 Game

 Timestamp is 5d58acff (Sat Aug 17 20:42:23 2019)

 Preferred load address is 00400000

 Start         Length     Name                   Class
 0001:00000000 0002f680H .text                   CODE
 0001:0002f680 00002fe0H .text$di                CODE
 0001:00032660 001d7760H .text$mn                CODE
 0001:00209dc0 00024920H .text$x                 CODE
 0001:0022e6e0 00002cfcH .text$yd                CODE
 0002:00000000 000009c0H .idata$5                DATA
 0002:000009c0 00000004H .00cfg                  DATA
 0002:000009c4 00000004H .CRT$XCA                DATA
 0002:000009c8 00000004H .CRT$XCAA               DATA
 0002:000009cc 0000001cH .CRT$XCC                DATA
 0002:000009e8 00000008H .CRT$XCL                DATA
 0002:000009f0 00000278H .CRT$XCU                DATA
 0002:00000c68 00000004H .CRT$XCZ                DATA
 0002:00000c6c 00000004H .CRT$XIA                DATA
 0002:00000c70 00000004H .CRT$XIAA               DATA
 0002:00000c74 00000004H .CRT$XIAC               DATA
 0002:00000c78 00000020H .CRT$XIC                DATA
 0002:00000c98 00000004H .CRT$XIZ                DATA
 0002:00000c9c 00000004H .CRT$XLA                DATA
 0002:00000ca0 00000004H .CRT$XLZ                DATA
 0002:00000ca4 00000004H .CRT$XPA                DATA
 0002:00000ca8 0000000cH .CRT$XPX                DATA
 0002:00000cb4 00000004H .CRT$XPXA               DATA
 0002:00000cb8 00000004H .CRT$XPZ                DATA
 0002:00000cbc 00000004H .CRT$XTA                DATA
 0002:00000cc0 00000020H .CRT$XTZ                DATA
 0002:00000cc4 00000000H .gfids$y                DATA
 0002:00000ce0 00043010H .rdata                  DATA
 0002:00043cf0 00000018H .rdata$T                DATA
 0002:00043d08 00006c00H .rdata$r                DATA
 0002:0004a908 000003b0H .rdata$zzzdbg           DATA
 0002:0004acb8 00000004H .rtc$IAA                DATA
 0002:0004acbc 00000004H .rtc$IZZ                DATA
 0002:0004acc0 00000004H .rtc$TAA                DATA
 0002:0004acc4 0000001cH .rtc$TZZ                DATA
 0002:0004ace0 00000020H .tls                    DATA
 0002:0004ad00 00000004H .tls$                   DATA
 0002:0004ad04 00000004H .tls$ZZZ                DATA
 0002:0004ad08 00027004H .xdata$x                DATA
 0002:00071d0c 00000000H .edata                  DATA
 0002:00071d0c 0000012cH .idata$2                DATA
 0002:00071e38 00000014H .idata$3                DATA
 0002:00071e4c 000009c0H .idata$4                DATA
 0002:0007280c 00004cdeH .idata$6                DATA
 0003:00000000 00012eb0H .data                   DATA
 0003:00012eb0 00002d90H .data$r                 DATA
 0003:00015c40 00018b58H .bss                    DATA
 0004:00000000 000008e0H .data1                  DATA
 0005:00000000 00000340H .rsrc$01                DATA
 0005:00000340 00027658H .rsrc$02                DATA

  Address         Publics by Value              Rva+Base       Lib:Object

 0000:00000000       ___safe_se_handler_table   00000000     <absolute>
 0000:00000000       ___dynamic_value_reloc_table 00000000     <absolute>
 0000:00000000       ___guard_longjmp_table     00000000     <absolute>
 0000:00000000       ___guard_iat_count         00000000     <absolute>
 0000:00000000       ___guard_longjmp_count     00000000     <absolute>
 0000:00000000       ___guard_fids_count        00000000     <absolute>
 0000:00000000       ___hybrid_code_map_count   00000000     <absolute>
 0000:00000000       __except_list              00000000     <absolute>
 0000:00000000       ___safe_se_handler_count   00000000     <absolute>
 0000:00000000       ___hybrid_auxiliary_iat    00000000     <absolute>
 0000:00000000       ___volatile_metadata       00000000     <absolute>
 0000:00000000       ___hybrid_code_map         00000000     <absolute>
 0000:00000000       ___guard_iat_table         00000000     <absolute>
 0000:00000000       ___enclave_config          00000000     <absolute>
 0000:00000000       ___guard_fids_table        00000000     <absolute>
 0000:0000002c       __tls_array                0000002c     <absolute>
 0000:00000100       ___guard_flags             00000100     <absolute>
 0000:00000000       ___ImageBase               00400000     <linker-defined>
 0001:0000002d       ?init_D3DXVec2Normalize@@YGPAUD3DXVECTOR2@@PAU1@PBU1@@Z 0040102d f   d3dx8:d3dxmath.obj
 0001:0000003a       _D3DXVec2Normalize@8       0040103a f   d3dx8:d3dxmath.obj
 0001:00000040       ?init_D3DXVec2Hermite@@YGPAUD3DXVECTOR2@@PAU1@PBU1@111M@Z 00401040 f   d3dx8:d3dxmath.obj
 0001:0000006a       ?c_D3DXVec2Hermite@@YGPAUD3DXVECTOR2@@PAU1@PBU1@111M@Z 0040106a f   d3dx8:d3dxmath.obj
 0001:000000f8       ?init_D3DXVec2CatmullRom@@YGPAUD3DXVECTOR2@@PAU1@PBU1@111M@Z 004010f8 f   d3dx8:d3dxmath.obj
 0001:00000122       ?c_D3DXVec2CatmullRom@@YGPAUD3DXVECTOR2@@PAU1@PBU1@111M@Z 00401122 f   d3dx8:d3dxmath.obj
 0001:000001d1       ?init_D3DXVec2BaryCentric@@YGPAUD3DXVECTOR2@@PAU1@PBU1@11MM@Z 004011d1 f   d3dx8:d3dxmath.obj
 0001:00000200       ?c_D3DXVec2BaryCentric@@YGPAUD3DXVECTOR2@@PAU1@PBU1@11MM@Z 00401200 f   d3dx8:d3dxmath.obj
 0001:00000243       ?init_D3DXVec2Transform@@YGPAUD3DXVECTOR4@@PAU1@PBUD3DXVECTOR2@@PBUD3DXMATRIX@@@Z 00401243 f   d3dx8:d3dxmath.obj
 0001:00000250       _D3DXVec2Transform@12      00401250 f   d3dx8:d3dxmath.obj
 0001:00000256       ?init_D3DXVec2TransformCoord@@YGPAUD3DXVECTOR2@@PAU1@PBU1@PBUD3DXMATRIX@@@Z 00401256 f   d3dx8:d3dxmath.obj
 0001:00000263       _D3DXVec2TransformCoord@12 00401263 f   d3dx8:d3dxmath.obj
 0001:00000269       ?init_D3DXVec2TransformNormal@@YGPAUD3DXVECTOR2@@PAU1@PBU1@PBUD3DXMATRIX@@@Z 00401269 f   d3dx8:d3dxmath.obj
 0001:00000276       ?init_D3DXVec3Normalize@@YGPAUD3DXVECTOR3@@PAU1@PBU1@@Z 00401276 f   d3dx8:d3dxmath.obj
 0001:00000283       _D3DXVec3Normalize@8       00401283 f   d3dx8:d3dxmath.obj
 0001:00000289       ?init_D3DXVec3Hermite@@YGPAUD3DXVECTOR3@@PAU1@PBU1@111M@Z 00401289 f   d3dx8:d3dxmath.obj
 0001:000002b3       ?c_D3DXVec3Hermite@@YGPAUD3DXVECTOR3@@PAU1@PBU1@111M@Z 004012b3 f   d3dx8:d3dxmath.obj
 0001:00000361       ?init_D3DXVec3CatmullRom@@YGPAUD3DXVECTOR3@@PAU1@PBU1@111M@Z 00401361 f   d3dx8:d3dxmath.obj
 0001:0000038b       ?c_D3DXVec3CatmullRom@@YGPAUD3DXVECTOR3@@PAU1@PBU1@111M@Z 0040138b f   d3dx8:d3dxmath.obj
 0001:0000045c       ?init_D3DXVec3BaryCentric@@YGPAUD3DXVECTOR3@@PAU1@PBU1@11MM@Z 0040145c f   d3dx8:d3dxmath.obj
 0001:0000048b       ?c_D3DXVec3BaryCentric@@YGPAUD3DXVECTOR3@@PAU1@PBU1@11MM@Z 0040148b f   d3dx8:d3dxmath.obj
 0001:000004e8       ?init_D3DXVec3Transform@@YGPAUD3DXVECTOR4@@PAU1@PBUD3DXVECTOR3@@PBUD3DXMATRIX@@@Z 004014e8 f   d3dx8:d3dxmath.obj
 0001:000004f5       _D3DXVec3Transform@12      004014f5 f   d3dx8:d3dxmath.obj
 0001:000004fb       ?c_D3DXVec3Transform@@YGPAUD3DXVECTOR4@@PAU1@PBUD3DXVECTOR3@@PBUD3DXMATRIX@@@Z 004014fb f   d3dx8:d3dxmath.obj
 0001:00000586       ?init_D3DXVec3TransformCoord@@YGPAUD3DXVECTOR3@@PAU1@PBU1@PBUD3DXMATRIX@@@Z 00401586 f   d3dx8:d3dxmath.obj
 0001:00000593       _D3DXVec3TransformCoord@12 00401593 f   d3dx8:d3dxmath.obj
 0001:00000599       ?init_D3DXVec3TransformNormal@@YGPAUD3DXVECTOR3@@PAU1@PBU1@PBUD3DXMATRIX@@@Z 00401599 f   d3dx8:d3dxmath.obj
 0001:000005a6       ?c_D3DXVec3TransformNormal@@YGPAUD3DXVECTOR3@@PAU1@PBU1@PBUD3DXMATRIX@@@Z 004015a6 f   d3dx8:d3dxmath.obj
 0001:0000060c       ?init_D3DXVec3Project@@YGPAUD3DXVECTOR3@@PAU1@PBU1@PBU_D3DVIEWPORT8@@PBUD3DXMATRIX@@33@Z 0040160c f   d3dx8:d3dxmath.obj
 0001:0000061d       ?init_D3DXVec3Unproject@@YGPAUD3DXVECTOR3@@PAU1@PBU1@PBU_D3DVIEWPORT8@@PBUD3DXMATRIX@@33@Z 0040161d f   d3dx8:d3dxmath.obj
 0001:0000062e       ?init_D3DXVec4Cross@@YGPAUD3DXVECTOR4@@PAU1@PBU1@11@Z 0040162e f   d3dx8:d3dxmath.obj
 0001:0000063b       ?c_D3DXVec4Cross@@YGPAUD3DXVECTOR4@@PAU1@PBU1@11@Z 0040163b f   d3dx8:d3dxmath.obj
 0001:0000072b       ?init_D3DXVec4Normalize@@YGPAUD3DXVECTOR4@@PAU1@PBU1@@Z 0040172b f   d3dx8:d3dxmath.obj
 0001:00000738       ?init_D3DXVec4Hermite@@YGPAUD3DXVECTOR4@@PAU1@PBU1@111M@Z 00401738 f   d3dx8:d3dxmath.obj
 0001:00000762       ?c_D3DXVec4Hermite@@YGPAUD3DXVECTOR4@@PAU1@PBU1@111M@Z 00401762 f   d3dx8:d3dxmath.obj
 0001:00000833       ?init_D3DXVec4CatmullRom@@YGPAUD3DXVECTOR4@@PAU1@PBU1@111M@Z 00401833 f   d3dx8:d3dxmath.obj
 0001:0000085d       ?c_D3DXVec4CatmullRom@@YGPAUD3DXVECTOR4@@PAU1@PBU1@111M@Z 0040185d f   d3dx8:d3dxmath.obj
 0001:00000950       ?init_D3DXVec4BaryCentric@@YGPAUD3DXVECTOR4@@PAU1@PBU1@11MM@Z 00401950 f   d3dx8:d3dxmath.obj
 0001:0000097f       ?c_D3DXVec4BaryCentric@@YGPAUD3DXVECTOR4@@PAU1@PBU1@11MM@Z 0040197f f   d3dx8:d3dxmath.obj
 0001:000009f6       ?init_D3DXVec4Transform@@YGPAUD3DXVECTOR4@@PAU1@PBU1@PBUD3DXMATRIX@@@Z 004019f6 f   d3dx8:d3dxmath.obj
 0001:00000a03       ?c_D3DXVec4Transform@@YGPAUD3DXVECTOR4@@PAU1@PBU1@PBUD3DXMATRIX@@@Z 00401a03 f   d3dx8:d3dxmath.obj
 0001:00000aa2       ?init_D3DXMatrixfDeterminant@@YGMPBUD3DXMATRIX@@@Z 00401aa2 f   d3dx8:d3dxmath.obj
 0001:00000aaf       ?c_D3DXMatrixfDeterminant@@YGMPBUD3DXMATRIX@@@Z 00401aaf f   d3dx8:d3dxmath.obj
 0001:00000b79       ?init_D3DXMatrixMultiply@@YGPAUD3DXMATRIX@@PAU1@PBU1@1@Z 00401b79 f   d3dx8:d3dxmath.obj
 0001:00000b86       _D3DXMatrixMultiply@12     00401b86 f   d3dx8:d3dxmath.obj
 0001:00000b8c       ?c_D3DXMatrixMultiply@@YGPAUD3DXMATRIX@@PAU1@PBU1@1@Z 00401b8c f   d3dx8:d3dxmath.obj
 0001:00000dc2       ?init_D3DXMatrixTranspose@@YGPAUD3DXMATRIX@@PAU1@PBU1@@Z 00401dc2 f   d3dx8:d3dxmath.obj
 0001:00000dcf       _D3DXMatrixTranspose@8     00401dcf f   d3dx8:d3dxmath.obj
 0001:00000dd5       ?c_D3DXMatrixTranspose@@YGPAUD3DXMATRIX@@PAU1@PBU1@@Z 00401dd5 f   d3dx8:d3dxmath.obj
 0001:00000e42       ?init_D3DXMatrixMultiplyTranspose@@YGPAUD3DXMATRIX@@PAU1@PBU1@1@Z 00401e42 f   d3dx8:d3dxmath.obj
 0001:00000e4f       ?c_D3DXMatrixMultiplyTranspose@@YGPAUD3DXMATRIX@@PAU1@PBU1@1@Z 00401e4f f   d3dx8:d3dxmath.obj
 0001:00001085       ?init_D3DXMatrixInverse@@YGPAUD3DXMATRIX@@PAU1@PAMPBU1@@Z 00402085 f   d3dx8:d3dxmath.obj
 0001:00001092       _D3DXMatrixInverse@12      00402092 f   d3dx8:d3dxmath.obj
 0001:00001098       ?c_D3DXMatrixInverse@@YGPAUD3DXMATRIX@@PAU1@PAMPBU1@@Z 00402098 f   d3dx8:d3dxmath.obj
 0001:00001425       ?init_D3DXMatrixScaling@@YGPAUD3DXMATRIX@@PAU1@MMM@Z 00402425 f   d3dx8:d3dxmath.obj
 0001:00001453       _D3DXMatrixScaling@16      00402453 f   d3dx8:d3dxmath.obj
 0001:00001459       ?c_D3DXMatrixScaling@@YGPAUD3DXMATRIX@@PAU1@MMM@Z 00402459 f   d3dx8:d3dxmath.obj
 0001:000014b5       ?init_D3DXMatrixTranslation@@YGPAUD3DXMATRIX@@PAU1@MMM@Z 004024b5 f   d3dx8:d3dxmath.obj
 0001:000014e3       _D3DXMatrixTranslation@16  004024e3 f   d3dx8:d3dxmath.obj
 0001:000014e9       ?c_D3DXMatrixTranslation@@YGPAUD3DXMATRIX@@PAU1@MMM@Z 004024e9 f   d3dx8:d3dxmath.obj
 0001:00001545       ?init_D3DXMatrixRotationX@@YGPAUD3DXMATRIX@@PAU1@M@Z 00402545 f   d3dx8:d3dxmath.obj
 0001:00001561       ?c_D3DXMatrixRotationX@@YGPAUD3DXMATRIX@@PAU1@M@Z 00402561 f   d3dx8:d3dxmath.obj
 0001:000015db       ?init_D3DXMatrixRotationY@@YGPAUD3DXMATRIX@@PAU1@M@Z 004025db f   d3dx8:d3dxmath.obj
 0001:000015f7       _D3DXMatrixRotationY@8     004025f7 f   d3dx8:d3dxmath.obj
 0001:000015fd       ?c_D3DXMatrixRotationY@@YGPAUD3DXMATRIX@@PAU1@M@Z 004025fd f   d3dx8:d3dxmath.obj
 0001:00001678       ?init_D3DXMatrixRotationZ@@YGPAUD3DXMATRIX@@PAU1@M@Z 00402678 f   d3dx8:d3dxmath.obj
 0001:00001694       _D3DXMatrixRotationZ@8     00402694 f   d3dx8:d3dxmath.obj
 0001:0000169a       ?c_D3DXMatrixRotationZ@@YGPAUD3DXMATRIX@@PAU1@M@Z 0040269a f   d3dx8:d3dxmath.obj
 0001:00001716       ?init_D3DXMatrixRotationAxis@@YGPAUD3DXMATRIX@@PAU1@PBUD3DXVECTOR3@@M@Z 00402716 f   d3dx8:d3dxmath.obj
 0001:00001736       _D3DXMatrixRotationAxis@12 00402736 f   d3dx8:d3dxmath.obj
 0001:0000173c       ?c_D3DXMatrixRotationAxis@@YGPAUD3DXMATRIX@@PAU1@PBUD3DXVECTOR3@@M@Z 0040273c f   d3dx8:d3dxmath.obj
 0001:0000183e       ?init_D3DXMatrixRotationQuaternion@@YGPAUD3DXMATRIX@@PAU1@PBUD3DXQUATERNION@@@Z 0040283e f   d3dx8:d3dxmath.obj
 0001:0000184b       _D3DXMatrixRotationQuaternion@8 0040284b f   d3dx8:d3dxmath.obj
 0001:00001851       ?c_D3DXMatrixRotationQuaternion@@YGPAUD3DXMATRIX@@PAU1@PBUD3DXQUATERNION@@@Z 00402851 f   d3dx8:d3dxmath.obj
 0001:00001933       ?init_D3DXMatrixRotationYawPitchRoll@@YGPAUD3DXMATRIX@@PAU1@MMM@Z 00402933 f   d3dx8:d3dxmath.obj
 0001:00001961       ?init_D3DXMatrixTransformation@@YGPAUD3DXMATRIX@@PAU1@PBUD3DXVECTOR3@@PBUD3DXQUATERNION@@1121@Z 00402961 f   d3dx8:d3dxmath.obj
 0001:00001972       _D3DXMatrixTransformation@28 00402972 f   d3dx8:d3dxmath.obj
 0001:00001978       ?init_D3DXMatrixAffineTransformation@@YGPAUD3DXMATRIX@@PAU1@MPBUD3DXVECTOR3@@PBUD3DXQUATERNION@@1@Z 00402978 f   d3dx8:d3dxmath.obj
 0001:0000199f       ?c_D3DXMatrixAffineTransformation@@YGPAUD3DXMATRIX@@PAU1@MPBUD3DXVECTOR3@@PBUD3DXQUATERNION@@1@Z 0040299f f   d3dx8:d3dxmath.obj
 0001:00001a85       _D3DXMatrixLookAtLH@16     00402a85 f   d3dx8:d3dxmath.obj
 0001:00001bcd       _D3DXMatrixPerspectiveFovLH@20 00402bcd f   d3dx8:d3dxmath.obj
 0001:00001c61       _D3DXMatrixOrthoLH@20      00402c61 f   d3dx8:d3dxmath.obj
 0001:00001cd5       ?init_D3DXMatrixShadow@@YGPAUD3DXMATRIX@@PAU1@PBUD3DXVECTOR4@@PBUD3DXPLANE@@@Z 00402cd5 f   d3dx8:d3dxmath.obj
 0001:00001ce2       ?init_D3DXMatrixReflect@@YGPAUD3DXMATRIX@@PAU1@PBUD3DXPLANE@@@Z 00402ce2 f   d3dx8:d3dxmath.obj
 0001:00001cef       ?init_D3DXQuaternionToAxisAngle@@YGXPBUD3DXQUATERNION@@PAUD3DXVECTOR3@@PAM@Z 00402cef f   d3dx8:d3dxmath.obj
 0001:00001cfc       ?c_D3DXQuaternionToAxisAngle@@YGXPBUD3DXQUATERNION@@PAUD3DXVECTOR3@@PAM@Z 00402cfc f   d3dx8:d3dxmath.obj
 0001:00001d99       ?init_D3DXQuaternionRotationMatrix@@YGPAUD3DXQUATERNION@@PAU1@PBUD3DXMATRIX@@@Z 00402d99 f   d3dx8:d3dxmath.obj
 0001:00001da6       ?c_D3DXQuaternionRotationMatrix@@YGPAUD3DXQUATERNION@@PAU1@PBUD3DXMATRIX@@@Z 00402da6 f   d3dx8:d3dxmath.obj
 0001:00001eda       ?init_D3DXQuaternionRotationAxis@@YGPAUD3DXQUATERNION@@PAU1@PBUD3DXVECTOR3@@M@Z 00402eda f   d3dx8:d3dxmath.obj
 0001:00001efa       ?c_D3DXQuaternionRotationAxis@@YGPAUD3DXQUATERNION@@PAU1@PBUD3DXVECTOR3@@M@Z 00402efa f   d3dx8:d3dxmath.obj
 0001:00001f56       ?init_D3DXQuaternionRotationYawPitchRoll@@YGPAUD3DXQUATERNION@@PAU1@MMM@Z 00402f56 f   d3dx8:d3dxmath.obj
 0001:00001f84       _D3DXQuaternionRotationYawPitchRoll@16 00402f84 f   d3dx8:d3dxmath.obj
 0001:00001f8a       ?c_D3DXQuaternionRotationYawPitchRoll@@YGPAUD3DXQUATERNION@@PAU1@MMM@Z 00402f8a f   d3dx8:d3dxmath.obj
 0001:00002063       ?init_D3DXQuaternionMultiply@@YGPAUD3DXQUATERNION@@PAU1@PBU1@1@Z 00403063 f   d3dx8:d3dxmath.obj
 0001:00002070       _D3DXQuaternionMultiply@12 00403070 f   d3dx8:d3dxmath.obj
 0001:00002076       ?c_D3DXQuaternionMultiply@@YGPAUD3DXQUATERNION@@PAU1@PBU1@1@Z 00403076 f   d3dx8:d3dxmath.obj
 0001:0000210c       ?init_D3DXQuaternionNormalize@@YGPAUD3DXQUATERNION@@PAU1@PBU1@@Z 0040310c f   d3dx8:d3dxmath.obj
 0001:00002119       ?c_D3DXQuaternionNormalize@@YGPAUD3DXQUATERNION@@PAU1@PBU1@@Z 00403119 f   d3dx8:d3dxmath.obj
 0001:000021d2       ?init_D3DXQuaternionInverse@@YGPAUD3DXQUATERNION@@PAU1@PBU1@@Z 004031d2 f   d3dx8:d3dxmath.obj
 0001:000021df       _D3DXQuaternionInverse@8   004031df f   d3dx8:d3dxmath.obj
 0001:000021e5       ?c_D3DXQuaternionInverse@@YGPAUD3DXQUATERNION@@PAU1@PBU1@@Z 004031e5 f   d3dx8:d3dxmath.obj
 0001:00002299       _D3DXQuaternionLn@8        00403299 f   d3dx8:d3dxmath.obj
 0001:0000229f       ?c_D3DXQuaternionLn@@YGPAUD3DXQUATERNION@@PAU1@PBU1@@Z 0040329f f   d3dx8:d3dxmath.obj
 0001:0000231d       _D3DXQuaternionExp@8       0040331d f   d3dx8:d3dxmath.obj
 0001:00002323       ?c_D3DXQuaternionExp@@YGPAUD3DXQUATERNION@@PAU1@PBU1@@Z 00403323 f   d3dx8:d3dxmath.obj
 0001:000023be       ?init_D3DXQuaternionSlerp@@YGPAUD3DXQUATERNION@@PAU1@PBU1@1M@Z 004033be f   d3dx8:d3dxmath.obj
 0001:000023e2       _D3DXQuaternionSlerp@16    004033e2 f   d3dx8:d3dxmath.obj
 0001:000023e8       ?c_D3DXQuaternionSlerp@@YGPAUD3DXQUATERNION@@PAU1@PBU1@1M@Z 004033e8 f   d3dx8:d3dxmath.obj
 0001:000024cb       ?init_D3DXQuaternionSquad@@YGPAUD3DXQUATERNION@@PAU1@PBU1@111M@Z 004034cb f   d3dx8:d3dxmath.obj
 0001:000024f5       ?c_D3DXQuaternionSquad@@YGPAUD3DXQUATERNION@@PAU1@PBU1@111M@Z 004034f5 f   d3dx8:d3dxmath.obj
 0001:0000254c       ?init_D3DXQuaternionSquadSetup@@YGXPAUD3DXQUATERNION@@00PBU1@111@Z 0040354c f   d3dx8:d3dxmath.obj
 0001:0000255d       ?init_D3DXQuaternionBaryCentric@@YGPAUD3DXQUATERNION@@PAU1@PBU1@11MM@Z 0040355d f   d3dx8:d3dxmath.obj
 0001:0000258c       ?c_D3DXQuaternionBaryCentric@@YGPAUD3DXQUATERNION@@PAU1@PBU1@11MM@Z 0040358c f   d3dx8:d3dxmath.obj
 0001:00002617       ?init_D3DXPlaneNormalize@@YGPAUD3DXPLANE@@PAU1@PBU1@@Z 00403617 f   d3dx8:d3dxmath.obj
 0001:00002624       _D3DXPlaneNormalize@8      00403624 f   d3dx8:d3dxmath.obj
 0001:0000262a       ?c_D3DXPlaneNormalize@@YGPAUD3DXPLANE@@PAU1@PBU1@@Z 0040362a f   d3dx8:d3dxmath.obj
 0001:000026ce       ?init_D3DXPlaneIntersectLine@@YGPAUD3DXVECTOR3@@PAU1@PBUD3DXPLANE@@PBU1@2@Z 004036ce f   d3dx8:d3dxmath.obj
 0001:000026db       _D3DXPlaneIntersectLine@16 004036db f   d3dx8:d3dxmath.obj
 0001:000026e1       ?c_D3DXPlaneIntersectLine@@YGPAUD3DXVECTOR3@@PAU1@PBUD3DXPLANE@@PBU1@2@Z 004036e1 f   d3dx8:d3dxmath.obj
 0001:00002783       ?init_D3DXPlaneFromPointNormal@@YGPAUD3DXPLANE@@PAU1@PBUD3DXVECTOR3@@1@Z 00403783 f   d3dx8:d3dxmath.obj
 0001:00002790       ?c_D3DXPlaneFromPointNormal@@YGPAUD3DXPLANE@@PAU1@PBUD3DXVECTOR3@@1@Z 00403790 f   d3dx8:d3dxmath.obj
 0001:000027c8       ?init_D3DXPlaneFromPoints@@YGPAUD3DXPLANE@@PAU1@PBUD3DXVECTOR3@@11@Z 004037c8 f   d3dx8:d3dxmath.obj
 0001:000027d5       ?c_D3DXPlaneFromPoints@@YGPAUD3DXPLANE@@PAU1@PBUD3DXVECTOR3@@11@Z 004037d5 f   d3dx8:d3dxmath.obj
 0001:00002877       ?init_D3DXPlaneTransform@@YGPAUD3DXPLANE@@PAU1@PBU1@PBUD3DXMATRIX@@@Z 00403877 f   d3dx8:d3dxmath.obj
 0001:00002884       ?c_D3DXPlaneTransform@@YGPAUD3DXPLANE@@PAU1@PBU1@PBUD3DXMATRIX@@@Z 00403884 f   d3dx8:d3dxmath.obj
 0001:00002923       ?c_D3DXVec2Normalize@@YGPAUD3DXVECTOR2@@PAU1@PBU1@@Z 00403923 f   d3dx8:d3dxmath.obj
 0001:000029b0       ?c_D3DXVec2Transform@@YGPAUD3DXVECTOR4@@PAU1@PBUD3DXVECTOR2@@PBUD3DXMATRIX@@@Z 004039b0 f   d3dx8:d3dxmath.obj
 0001:00002a1b       ?c_D3DXVec2TransformCoord@@YGPAUD3DXVECTOR2@@PAU1@PBU1@PBUD3DXMATRIX@@@Z 00403a1b f   d3dx8:d3dxmath.obj
 0001:00002a9b       ?c_D3DXVec2TransformNormal@@YGPAUD3DXVECTOR2@@PAU1@PBU1@PBUD3DXMATRIX@@@Z 00403a9b f   d3dx8:d3dxmath.obj
 0001:00002ad7       ?c_D3DXVec3Normalize@@YGPAUD3DXVECTOR3@@PAU1@PBU1@@Z 00403ad7 f   d3dx8:d3dxmath.obj
 0001:00002b77       ?c_D3DXVec3TransformCoord@@YGPAUD3DXVECTOR3@@PAU1@PBU1@PBUD3DXMATRIX@@@Z 00403b77 f   d3dx8:d3dxmath.obj
 0001:00002c36       ?c_D3DXVec3Project@@YGPAUD3DXVECTOR3@@PAU1@PBU1@PBU_D3DVIEWPORT8@@PBUD3DXMATRIX@@33@Z 00403c36 f   d3dx8:d3dxmath.obj
 0001:00002dc3       ?c_D3DXVec3Unproject@@YGPAUD3DXVECTOR3@@PAU1@PBU1@PBU_D3DVIEWPORT8@@PBUD3DXMATRIX@@33@Z 00403dc3 f   d3dx8:d3dxmath.obj
 0001:00002f69       ?c_D3DXVec4Normalize@@YGPAUD3DXVECTOR4@@PAU1@PBU1@@Z 00403f69 f   d3dx8:d3dxmath.obj
 0001:00003022       ?c_D3DXMatrixRotationYawPitchRoll@@YGPAUD3DXMATRIX@@PAU1@MMM@Z 00404022 f   d3dx8:d3dxmath.obj
 0001:0000305b       ?c_D3DXMatrixTransformation@@YGPAUD3DXMATRIX@@PAU1@PBUD3DXVECTOR3@@PBUD3DXQUATERNION@@1121@Z 0040405b f   d3dx8:d3dxmath.obj
 0001:0000330f       ?c_D3DXMatrixShadow@@YGPAUD3DXMATRIX@@PAU1@PBUD3DXVECTOR4@@PBUD3DXPLANE@@@Z 0040430f f   d3dx8:d3dxmath.obj
 0001:000033e9       ?c_D3DXMatrixReflect@@YGPAUD3DXMATRIX@@PAU1@PBUD3DXPLANE@@@Z 004043e9 f   d3dx8:d3dxmath.obj
 0001:000034a8       ?c_D3DXQuaternionSquadSetup@@YGXPAUD3DXQUATERNION@@00PBU1@111@Z 004044a8 f   d3dx8:d3dxmath.obj
 0001:00003882       ?D3DXGetFormatInfo@@YAPBU_D3DXFORMAT_INFO@@W4_D3DFORMAT@@@Z 00404882 f   d3dx8:d3dx8tex.obj
 0001:0000391b       ?D3DXFindClosestFormat@@YA?AW4_D3DFORMAT@@PBW41@PBUtagPALETTEENTRY@@PBU_D3DXFORMAT_INFO@@@Z 0040491b f   d3dx8:d3dx8tex.obj
 0001:00003989       ?D3DXFindClosestDeviceFormat@@YA?AW4_D3DFORMAT@@PAUIDirect3DDevice8@@KW4_D3DRESOURCETYPE@@PBU_D3DXFORMAT_INFO@@@Z 00404989 f   d3dx8:d3dx8tex.obj
 0001:00003a6b       ?D3DXFindClosestExternalFormat@@YA?AW4_D3DFORMAT@@W41@@Z 00404a6b f   d3dx8:d3dx8tex.obj
 0001:00003a9c       _D3DXLoadSurfaceFromMemory@40 00404a9c f   d3dx8:d3dx8tex.obj
 0001:00003b7b       ??0D3DXCOLOR@@QAE@XZ       00404b7b f i d3dx8:d3dx8tex.obj
 0001:00003b7e       _D3DXLoadVolumeFromMemory@44 00404b7e f   d3dx8:d3dx8tex.obj
 0001:00003f7b       ??_ECD3DXLockSurface@@QAEPAXI@Z 00404f7b f i d3dx8:d3dx8tex.obj
 0001:00003fc6       ??_ECD3DXLockVolume@@QAEPAXI@Z 00404fc6 f i d3dx8:d3dx8tex.obj
 0001:00004011       ??_H@YGXPAXIHP6EPAX0@Z@Z   00405011 f i d3dx8:d3dx8tex.obj
 0001:00004033       _D3DXLoadSurfaceFromSurface@32 00405033 f   d3dx8:d3dx8tex.obj
 0001:000041d9       _D3DXLoadVolumeFromVolume@32 004051d9 f   d3dx8:d3dx8tex.obj
 0001:0000461f       _D3DXSaveTextureToFileA@16 0040561f f   d3dx8:d3dx8tex.obj
 0001:0000463c       _D3DXFilterTexture@16      0040563c f   d3dx8:d3dx8tex.obj
 0001:00004f93       _D3DXCreateTextureFromFileInMemoryEx@60 00405f93 f   d3dx8:d3dx8tex.obj
 0001:00004fd3       _D3DXCreateTextureFromFileExA@56 00405fd3 f   d3dx8:d3dx8tex.obj
 0001:00005036       ??_GCD3DXSprite@@QAEPAXI@Z 00406036 f i d3dx8:d3dx8core.obj
 0001:00005052       _D3DXCreateSprite@8        00406052 f   d3dx8:d3dx8core.obj
 0001:0000511a       ?_asm_isMMX@@YAHXZ         0040611a f   d3dx8:cpudetect.obj
 0001:0000513f       ?isMMXprocessor@@YAHXZ     0040613f f   d3dx8:cpudetect.obj
 0001:00005369       _D3DXCpuOptimizations@4    00406369 f   d3dx8:cpudetect.obj
 0001:00005446       ?D3DXDebugMute@@YAXH@Z     00406446 f   d3dx8:d3dx8dbg.obj
 0001:000054d6       ??0CD3DXImage@@QAE@XZ      004064d6 f   d3dx8:cd3dximage.obj
 0001:000054ef       ??1CD3DXImage@@QAE@XZ      004064ef f   d3dx8:cd3dximage.obj
 0001:00005548       ??_GCD3DXImage@@QAEPAXI@Z  00406548 f i d3dx8:cd3dximage.obj
 0001:00005564       ?Initialize@CD3DXImage@@QAEJPAUD3DX_BLT@@@Z 00406564 f   d3dx8:cd3dximage.obj
 0001:00005627       ?LoadDIB@CD3DXImage@@AAEJPBXK@Z 00406627 f   d3dx8:cd3dximage.obj
 0001:00005d3d       ?SaveDIB@CD3DXImage@@AAEJPAXH@Z 00406d3d f   d3dx8:cd3dximage.obj
 0001:00006083       ?LoadJPG@CD3DXImage@@AAEJPBXK@Z 00407083 f   d3dx8:cd3dximage.obj
 0001:000062f3       ?LoadTGA@CD3DXImage@@AAEJPBXK@Z 004072f3 f   d3dx8:cd3dximage.obj
 0001:0000679a       ?LoadPPM@CD3DXImage@@AAEJPBXK@Z 0040779a f   d3dx8:cd3dximage.obj
 0001:00006a70       ?LoadPNG@CD3DXImage@@AAEJPBXK@Z 00407a70 f   d3dx8:cd3dximage.obj
 0001:00007006       ?LoadDDS@CD3DXImage@@AAEJPBXK@Z 00408006 f   d3dx8:cd3dximage.obj
 0001:00007347       ?SaveDDS@CD3DXImage@@AAEJPAX@Z 00408347 f   d3dx8:cd3dximage.obj
 0001:000075ef       ?Save@CD3DXImage@@QAEJPBXW4_D3DXIMAGE_FILEFORMAT@@H@Z 004085ef f   d3dx8:cd3dximage.obj
 0001:000078b8       ?LoadBMP@CD3DXImage@@AAEJPBXK@Z 004088b8 f   d3dx8:cd3dximage.obj
 0001:000078e8       ?Load@CD3DXImage@@QAEJPBXKPAU_D3DXIMAGE_INFO@@H@Z 004088e8 f   d3dx8:cd3dximage.obj
 0001:00007abd       ??0CD3DXBlt@@QAE@XZ        00408abd f   d3dx8:cd3dxblt.obj
 0001:00007ac7       ??1CD3DXBlt@@QAE@XZ        00408ac7 f   d3dx8:cd3dxblt.obj
 0001:00007ae5       ??0TF_Row@@QAE@XZ          00408ae5 f i d3dx8:cd3dxblt.obj
 0001:00007af2       ??1TF_Row@@QAE@XZ          00408af2 f i d3dx8:cd3dxblt.obj
 0001:00007db8       ??_ETF_Row@@QAEPAXI@Z      00408db8 f i d3dx8:cd3dxblt.obj
 0001:00007e04       ?BltTriangle3D@CD3DXBlt@@IAEJXZ 00408e04 f   d3dx8:cd3dxblt.obj
 0001:00008278       ?BltSame_DXTn@CD3DXBlt@@IAEJXZ 00409278 f   d3dx8:cd3dxblt.obj
 0001:00008406       ?c_BoxFilter2D_A8R8G8B8@@YAJPAI0IIII@Z 00409406 f   d3dx8:cd3dxblt.obj
 0001:0000852c       ?BltBox2D_A8R8G8B8@CD3DXBlt@@IAEJXZ 0040952c f   d3dx8:cd3dxblt.obj
 0001:0000855d       ?c_BoxFilter2D_X8R8G8B8@@YAJPAI0IIII@Z 0040955d f   d3dx8:cd3dxblt.obj
 0001:00008645       ?mmx_BoxFilter2D_A8R8G8B8@@YAJPAI0IIII@Z 00409645 f   d3dx8:cd3dxblt.obj
 0001:0000875b       ?init_BoxFilter2D_A8R8G8B8@@YAJPAI0IIII@Z 0040975b f   d3dx8:cd3dxblt.obj
 0001:00008793       ?init_BoxFilter2D_X8R8G8B8@@YAJPAI0IIII@Z 00409793 f   d3dx8:cd3dxblt.obj
 0001:000087c2       ?BltBox2D_X8R8G8B8@CD3DXBlt@@IAEJXZ 004097c2 f   d3dx8:cd3dxblt.obj
 0001:000087f3       ?BltBox2D_R5G6B5@CD3DXBlt@@IAEJXZ 004097f3 f   d3dx8:cd3dxblt.obj
 0001:00008943       ?BltBox2D_X1R5G5B5@CD3DXBlt@@IAEJXZ 00409943 f   d3dx8:cd3dxblt.obj
 0001:00008a67       ?BltBox2D_A1R5G5B5@CD3DXBlt@@IAEJXZ 00409a67 f   d3dx8:cd3dxblt.obj
 0001:00008bb6       ?BltBox2D_A4R4G4B4@CD3DXBlt@@IAEJXZ 00409bb6 f   d3dx8:cd3dxblt.obj
 0001:00008d09       ?BltBox2D_R3G3B2@CD3DXBlt@@IAEJXZ 00409d09 f   d3dx8:cd3dxblt.obj
 0001:00008e48       ?BltBox2D_A8@CD3DXBlt@@IAEJXZ 00409e48 f   d3dx8:cd3dxblt.obj
 0001:00008ee3       ?BltBox2D_A8R3G3B2@CD3DXBlt@@IAEJXZ 00409ee3 f   d3dx8:cd3dxblt.obj
 0001:0000902f       ?BltBox2D_X4R4G4B4@CD3DXBlt@@IAEJXZ 0040a02f f   d3dx8:cd3dxblt.obj
 0001:00009150       ?BltBox2D_A8L8@CD3DXBlt@@IAEJXZ 0040a150 f   d3dx8:cd3dxblt.obj
 0001:0000929c       ?BltBox2D_A4L4@CD3DXBlt@@IAEJXZ 0040a29c f   d3dx8:cd3dxblt.obj
 0001:000093db       ?BltSame@CD3DXBlt@@IAEJXZ  0040a3db f   d3dx8:cd3dxblt.obj
 0001:00009513       ?BltCopy@CD3DXBlt@@IAEJXZ  0040a513 f   d3dx8:cd3dxblt.obj
 0001:00009604       ?BltNone@CD3DXBlt@@IAEJXZ  0040a604 f   d3dx8:cd3dxblt.obj
 0001:00009806       ?BltPoint@CD3DXBlt@@IAEJXZ 0040a806 f   d3dx8:cd3dxblt.obj
 0001:00009a0a       ?BltBox2D@CD3DXBlt@@IAEJXZ 0040aa0a f   d3dx8:cd3dxblt.obj
 0001:00009e2d       ?BltBox3D@CD3DXBlt@@IAEJXZ 0040ae2d f   d3dx8:cd3dxblt.obj
 0001:0000a3bf       ?BltLinear2D@CD3DXBlt@@IAEJXZ 0040b3bf f   d3dx8:cd3dxblt.obj
 0001:0000a7a5       ?BltLinear3D@CD3DXBlt@@IAEJXZ 0040b7a5 f   d3dx8:cd3dxblt.obj
 0001:0000aed6       ?BltTriangle2D@CD3DXBlt@@IAEJXZ 0040bed6 f   d3dx8:cd3dxblt.obj
 0001:0000b278       ?Blt@CD3DXBlt@@QAEJPAUD3DX_BLT@@0K@Z 0040c278 f   d3dx8:cd3dxblt.obj
 0001:0000b392       ??0CD3DXLockSurface@@QAE@XZ 0040c392 f   d3dx8:cd3dxlock.obj
 0001:0000b3a2       ?Unlock@CD3DXLockSurface@@QAEJXZ 0040c3a2 f   d3dx8:cd3dxlock.obj
 0001:0000b40b       ??0CD3DXLockVolume@@QAE@XZ 0040c40b f   d3dx8:cd3dxlock.obj
 0001:0000b411       ?Unlock@CD3DXLockVolume@@QAEJXZ 0040c411 f   d3dx8:cd3dxlock.obj
 0001:0000b427       ??1CD3DXLockSurface@@QAE@XZ 0040c427 f   d3dx8:cd3dxlock.obj
 0001:0000b42c       ?Lock@CD3DXLockSurface@@QAEJPAUD3DX_BLT@@PAUIDirect3DSurface8@@PBUtagPALETTEENTRY@@PBUtagRECT@@KK@Z 0040c42c f   d3dx8:cd3dxlock.obj
 0001:0000b83f       ??1CD3DXLockVolume@@QAE@XZ 0040c83f f   d3dx8:cd3dxlock.obj
 0001:0000b844       ?Lock@CD3DXLockVolume@@QAEJPAUD3DX_BLT@@PAUIDirect3DVolume8@@PBUtagPALETTEENTRY@@PBU_D3DBOX@@KK@Z 0040c844 f   d3dx8:cd3dxlock.obj
 0001:0000bb9f       ??1CD3DXCodec@@UAE@XZ      0040cb9f f   d3dx8:cd3dxcodec.obj
 0001:0000bbb2       ?Decode@CD3DXCodec@@UAEXIIPAUD3DXCOLOR@@@Z 0040cbb2 f   d3dx8:cd3dxcodec.obj
 0001:0000bbb5       ?Encode@CD3DXCodec@@UAEXIIPAUD3DXCOLOR@@@Z 0040cbb5 f   d3dx8:cd3dxcodec.obj
 0001:0000bbb8       ?Convert@CD3DXCodec@@IAEPAUD3DXCOLOR@@PAU2@@Z 0040cbb8 f   d3dx8:cd3dxcodec.obj
 0001:0000beaf       ?QuantizeColorKey@CD3DXCodecYUV@@MAEXXZ 0040ceaf f   d3dx8:cd3dxcodec.obj
 0001:0000beb0       ??1CD3DXCodecDXT@@UAE@XZ   0040ceb0 f   d3dx8:cd3dxcodec.obj
 0001:0000bf50       ?Encode@CD3DXCodecDXT@@UAEXIIPAUD3DXCOLOR@@@Z 0040cf50 f   d3dx8:cd3dxcodec.obj
 0001:0000c36d       ??0CD3DXCodec@@IAE@PAUD3DX_BLT@@IK@Z 0040d36d f   d3dx8:cd3dxcodec.obj
 0001:0000c5b9       ??_ECD3DXCodec@@UAEPAXI@Z  0040d5b9 f i d3dx8:cd3dxcodec.obj
 0001:0000c5b9       ??_GCD3DXCodec@@UAEPAXI@Z  0040d5b9 f i d3dx8:cd3dxcodec.obj
 0001:0000c5d5       ?ConvertFrom@CD3DXCodec@@QAEJPAV1@@Z 0040d5d5 f   d3dx8:cd3dxcodec.obj
 0001:0000c650       ?QuantizeColorKey@CD3DXCodec@@MAEXXZ 0040d650 f   d3dx8:cd3dxcodec.obj
 0001:0000c71c       ?ColorKey@CD3DXCodec@@IAEXPAUD3DXCOLOR@@@Z 0040d71c f   d3dx8:cd3dxcodec.obj
 0001:0000c78c       ?Encode@CD3DXCodec_R8G8B8@@UAEXIIPAUD3DXCOLOR@@@Z 0040d78c f   d3dx8:cd3dxcodec.obj
 0001:0000c878       ?Encode@CD3DXCodec_A8R8G8B8@@UAEXIIPAUD3DXCOLOR@@@Z 0040d878 f   d3dx8:cd3dxcodec.obj
 0001:0000c99b       ?Encode@CD3DXCodec_X8R8G8B8@@UAEXIIPAUD3DXCOLOR@@@Z 0040d99b f   d3dx8:cd3dxcodec.obj
 0001:0000ca9c       ?Encode@CD3DXCodec_R5G6B5@@UAEXIIPAUD3DXCOLOR@@@Z 0040da9c f   d3dx8:cd3dxcodec.obj
 0001:0000cb9d       ?Encode@CD3DXCodec_X1R5G5B5@@UAEXIIPAUD3DXCOLOR@@@Z 0040db9d f   d3dx8:cd3dxcodec.obj
 0001:0000cc9e       ?Encode@CD3DXCodec_A1R5G5B5@@UAEXIIPAUD3DXCOLOR@@@Z 0040dc9e f   d3dx8:cd3dxcodec.obj
 0001:0000cdbb       ?Encode@CD3DXCodec_A4R4G4B4@@UAEXIIPAUD3DXCOLOR@@@Z 0040ddbb f   d3dx8:cd3dxcodec.obj
 0001:0000cede       ?Encode@CD3DXCodec_R3G3B2@@UAEXIIPAUD3DXCOLOR@@@Z 0040dede f   d3dx8:cd3dxcodec.obj
 0001:0000cfdc       ?Encode@CD3DXCodec_A8@@UAEXIIPAUD3DXCOLOR@@@Z 0040dfdc f   d3dx8:cd3dxcodec.obj
 0001:0000d085       ?Encode@CD3DXCodec_A8R3G3B2@@UAEXIIPAUD3DXCOLOR@@@Z 0040e085 f   d3dx8:cd3dxcodec.obj
 0001:0000d1a8       ?Encode@CD3DXCodec_X4R4G4B4@@UAEXIIPAUD3DXCOLOR@@@Z 0040e1a8 f   d3dx8:cd3dxcodec.obj
 0001:0000d2a9       ?Encode@CD3DXCodec_A2B10G10R10@@UAEXIIPAUD3DXCOLOR@@@Z 0040e2a9 f   d3dx8:cd3dxcodec.obj
 0001:0000d3cc       ?Encode@CD3DXCodec_G16R16@@UAEXIIPAUD3DXCOLOR@@@Z 0040e3cc f   d3dx8:cd3dxcodec.obj
 0001:0000d49c       ?Encode@CD3DXCodec_A8P8@@UAEXIIPAUD3DXCOLOR@@@Z 0040e49c f   d3dx8:cd3dxcodec.obj
 0001:0000d5b4       ?Encode@CD3DXCodec_P8@@UAEXIIPAUD3DXCOLOR@@@Z 0040e5b4 f   d3dx8:cd3dxcodec.obj
 0001:0000d679       ?Encode@CD3DXCodec_L8@@UAEXIIPAUD3DXCOLOR@@@Z 0040e679 f   d3dx8:cd3dxcodec.obj
 0001:0000d73e       ?Encode@CD3DXCodec_A8L8@@UAEXIIPAUD3DXCOLOR@@@Z 0040e73e f   d3dx8:cd3dxcodec.obj
 0001:0000d834       ?Encode@CD3DXCodec_A4L4@@UAEXIIPAUD3DXCOLOR@@@Z 0040e834 f   d3dx8:cd3dxcodec.obj
 0001:0000d91f       ?Encode@CD3DXCodec_V8U8@@UAEXIIPAUD3DXCOLOR@@@Z 0040e91f f   d3dx8:cd3dxcodec.obj
 0001:0000d9f4       ?Encode@CD3DXCodec_L6V5U5@@UAEXIIPAUD3DXCOLOR@@@Z 0040e9f4 f   d3dx8:cd3dxcodec.obj
 0001:0000daf9       ?Encode@CD3DXCodec_X8L8V8U8@@UAEXIIPAUD3DXCOLOR@@@Z 0040eaf9 f   d3dx8:cd3dxcodec.obj
 0001:0000dc04       ?Encode@CD3DXCodec_Q8W8V8U8@@UAEXIIPAUD3DXCOLOR@@@Z 0040ec04 f   d3dx8:cd3dxcodec.obj
 0001:0000dd3e       ?Encode@CD3DXCodec_V16U16@@UAEXIIPAUD3DXCOLOR@@@Z 0040ed3e f   d3dx8:cd3dxcodec.obj
 0001:0000de14       ?Encode@CD3DXCodec_W11V11U10@@UAEXIIPAUD3DXCOLOR@@@Z 0040ee14 f   d3dx8:cd3dxcodec.obj
 0001:0000df1e       ?Encode@CD3DXCodec_A2W10V10U10@@UAEXIIPAUD3DXCOLOR@@@Z 0040ef1e f   d3dx8:cd3dxcodec.obj
 0001:0000e054       ?Encode@CD3DXCodec_D16_LOCKABLE@@UAEXIIPAUD3DXCOLOR@@@Z 0040f054 f   d3dx8:cd3dxcodec.obj
 0001:0000e11b       ?Encode@CD3DXCodec_D3DX_L16@@UAEXIIPAUD3DXCOLOR@@@Z 0040f11b f   d3dx8:cd3dxcodec.obj
 0001:0000e1e2       ?Encode@CD3DXCodec_D3DX_A16L16@@UAEXIIPAUD3DXCOLOR@@@Z 0040f1e2 f   d3dx8:cd3dxcodec.obj
 0001:0000e2d0       ?Encode@CD3DXCodec_D3DX_R16G16B16@@UAEXIIPAUD3DXCOLOR@@@Z 0040f2d0 f   d3dx8:cd3dxcodec.obj
 0001:0000e3bf       ?Encode@CD3DXCodec_D3DX_A16R16G16B16@@UAEXIIPAUD3DXCOLOR@@@Z 0040f3bf f   d3dx8:cd3dxcodec.obj
 0001:0000e51b       ?Decode@CD3DXCodec_R8G8B8@@UAEXIIPAUD3DXCOLOR@@@Z 0040f51b f   d3dx8:cd3dxcodec.obj
 0001:0000e5a7       ?Decode@CD3DXCodec_A8R8G8B8@@UAEXIIPAUD3DXCOLOR@@@Z 0040f5a7 f   d3dx8:cd3dxcodec.obj
 0001:0000e64d       ?Decode@CD3DXCodec_X8R8G8B8@@UAEXIIPAUD3DXCOLOR@@@Z 0040f64d f   d3dx8:cd3dxcodec.obj
 0001:0000e6e9       ?Decode@CD3DXCodec_R5G6B5@@UAEXIIPAUD3DXCOLOR@@@Z 0040f6e9 f   d3dx8:cd3dxcodec.obj
 0001:0000e78e       ?Decode@CD3DXCodec_X1R5G5B5@@UAEXIIPAUD3DXCOLOR@@@Z 0040f78e f   d3dx8:cd3dxcodec.obj
 0001:0000e830       ?Decode@CD3DXCodec_A1R5G5B5@@UAEXIIPAUD3DXCOLOR@@@Z 0040f830 f   d3dx8:cd3dxcodec.obj
 0001:0000e8e0       ?Decode@CD3DXCodec_A4R4G4B4@@UAEXIIPAUD3DXCOLOR@@@Z 0040f8e0 f   d3dx8:cd3dxcodec.obj
 0001:0000e98f       ?Decode@CD3DXCodec_A2B10G10R10@@UAEXIIPAUD3DXCOLOR@@@Z 0040f98f f   d3dx8:cd3dxcodec.obj
 0001:0000ea65       ?Decode@CD3DXCodec_G16R16@@UAEXIIPAUD3DXCOLOR@@@Z 0040fa65 f   d3dx8:cd3dxcodec.obj
 0001:0000eaf7       ?Decode@CD3DXCodec_R3G3B2@@UAEXIIPAUD3DXCOLOR@@@Z 0040faf7 f   d3dx8:cd3dxcodec.obj
 0001:0000eb99       ?Decode@CD3DXCodec_A8@@UAEXIIPAUD3DXCOLOR@@@Z 0040fb99 f   d3dx8:cd3dxcodec.obj
 0001:0000ec0b       ?Decode@CD3DXCodec_A8R3G3B2@@UAEXIIPAUD3DXCOLOR@@@Z 0040fc0b f   d3dx8:cd3dxcodec.obj
 0001:0000ecbd       ?Decode@CD3DXCodec_X4R4G4B4@@UAEXIIPAUD3DXCOLOR@@@Z 0040fcbd f   d3dx8:cd3dxcodec.obj
 0001:0000ed5c       ?Decode@CD3DXCodec_A8P8@@UAEXIIPAUD3DXCOLOR@@@Z 0040fd5c f   d3dx8:cd3dxcodec.obj
 0001:0000ede3       ?Decode@CD3DXCodec_P8@@UAEXIIPAUD3DXCOLOR@@@Z 0040fde3 f   d3dx8:cd3dxcodec.obj
 0001:0000ee47       ?Decode@CD3DXCodec_L8@@UAEXIIPAUD3DXCOLOR@@@Z 0040fe47 f   d3dx8:cd3dxcodec.obj
 0001:0000eeb5       ?Decode@CD3DXCodec_A8L8@@UAEXIIPAUD3DXCOLOR@@@Z 0040feb5 f   d3dx8:cd3dxcodec.obj
 0001:0000ef3e       ?Decode@CD3DXCodec_A4L4@@UAEXIIPAUD3DXCOLOR@@@Z 0040ff3e f   d3dx8:cd3dxcodec.obj
 0001:0000efc7       ?Decode@CD3DXCodec_V8U8@@UAEXIIPAUD3DXCOLOR@@@Z 0040ffc7 f   d3dx8:cd3dxcodec.obj
 0001:0000f049       ?Decode@CD3DXCodec_L6V5U5@@UAEXIIPAUD3DXCOLOR@@@Z 00410049 f   d3dx8:cd3dxcodec.obj
 0001:0000f0fa       ?Decode@CD3DXCodec_X8L8V8U8@@UAEXIIPAUD3DXCOLOR@@@Z 004100fa f   d3dx8:cd3dxcodec.obj
 0001:0000f18b       ?Decode@CD3DXCodec_Q8W8V8U8@@UAEXIIPAUD3DXCOLOR@@@Z 0041018b f   d3dx8:cd3dxcodec.obj
 0001:0000f222       ?Decode@CD3DXCodec_V16U16@@UAEXIIPAUD3DXCOLOR@@@Z 00410222 f   d3dx8:cd3dxcodec.obj
 0001:0000f2a5       ?Decode@CD3DXCodec_W11V11U10@@UAEXIIPAUD3DXCOLOR@@@Z 004102a5 f   d3dx8:cd3dxcodec.obj
 0001:0000f35f       ?Decode@CD3DXCodec_A2W10V10U10@@UAEXIIPAUD3DXCOLOR@@@Z 0041035f f   d3dx8:cd3dxcodec.obj
 0001:0000f432       ?Decode@CD3DXCodec_D16_LOCKABLE@@UAEXIIPAUD3DXCOLOR@@@Z 00410432 f   d3dx8:cd3dxcodec.obj
 0001:0000f4a2       ?Decode@CD3DXCodec_D3DX_L16@@UAEXIIPAUD3DXCOLOR@@@Z 004104a2 f   d3dx8:cd3dxcodec.obj
 0001:0000f512       ?Decode@CD3DXCodec_D3DX_A16L16@@UAEXIIPAUD3DXCOLOR@@@Z 00410512 f   d3dx8:cd3dxcodec.obj
 0001:0000f5a0       ?Decode@CD3DXCodec_D3DX_R16G16B16@@UAEXIIPAUD3DXCOLOR@@@Z 004105a0 f   d3dx8:cd3dxcodec.obj
 0001:0000f62c       ?Decode@CD3DXCodec_D3DX_A16R16G16B16@@UAEXIIPAUD3DXCOLOR@@@Z 0041062c f   d3dx8:cd3dxcodec.obj
 0001:0000f70c       ??0CD3DXCodec_R8G8B8@@QAE@PAUD3DX_BLT@@@Z 0041070c f i d3dx8:cd3dxcodec.obj
 0001:0000f728       ??0CD3DXCodecYUV@@QAE@PAUD3DX_BLT@@@Z 00410728 f   d3dx8:cd3dxcodec.obj
 0001:0000f820       ??_ECD3DXCodec_R8G8B8@@UAEPAXI@Z 00410820 f i d3dx8:cd3dxcodec.obj
 0001:0000f820       ??_GCD3DXCodec_R8G8B8@@UAEPAXI@Z 00410820 f i d3dx8:cd3dxcodec.obj
 0001:0000f83c       ??1CD3DXCodec_R8G8B8@@UAE@XZ 0041083c f i d3dx8:cd3dxcodec.obj
 0001:0000f841       ??0CD3DXCodec_A8R8G8B8@@QAE@PAUD3DX_BLT@@@Z 00410841 f i d3dx8:cd3dxcodec.obj
 0001:0000f85d       ??_ECD3DXCodec_A8R8G8B8@@UAEPAXI@Z 0041085d f i d3dx8:cd3dxcodec.obj
 0001:0000f85d       ??_GCD3DXCodec_A8R8G8B8@@UAEPAXI@Z 0041085d f i d3dx8:cd3dxcodec.obj
 0001:0000f879       ??1CD3DXCodec_A8R8G8B8@@UAE@XZ 00410879 f i d3dx8:cd3dxcodec.obj
 0001:0000f87e       ??0CD3DXCodec_X8R8G8B8@@QAE@PAUD3DX_BLT@@@Z 0041087e f i d3dx8:cd3dxcodec.obj
 0001:0000f89a       ??_GCD3DXCodec_X8R8G8B8@@UAEPAXI@Z 0041089a f i d3dx8:cd3dxcodec.obj
 0001:0000f89a       ??_ECD3DXCodec_X8R8G8B8@@UAEPAXI@Z 0041089a f i d3dx8:cd3dxcodec.obj
 0001:0000f8b6       ??1CD3DXCodec_X8R8G8B8@@UAE@XZ 004108b6 f i d3dx8:cd3dxcodec.obj
 0001:0000f8bb       ??0CD3DXCodec_R5G6B5@@QAE@PAUD3DX_BLT@@@Z 004108bb f i d3dx8:cd3dxcodec.obj
 0001:0000f8d7       ?Commit@CD3DXCodecYUV@@QAEJXZ 004108d7 f   d3dx8:cd3dxcodec.obj
 0001:0000fac3       ??_ECD3DXCodec_R5G6B5@@UAEPAXI@Z 00410ac3 f i d3dx8:cd3dxcodec.obj
 0001:0000fac3       ??_GCD3DXCodec_R5G6B5@@UAEPAXI@Z 00410ac3 f i d3dx8:cd3dxcodec.obj
 0001:0000fadf       ??1CD3DXCodec_R5G6B5@@UAE@XZ 00410adf f i d3dx8:cd3dxcodec.obj
 0001:0000fae4       ??0CD3DXCodec_X1R5G5B5@@QAE@PAUD3DX_BLT@@@Z 00410ae4 f i d3dx8:cd3dxcodec.obj
 0001:0000fb00       ??_ECD3DXCodec_X1R5G5B5@@UAEPAXI@Z 00410b00 f i d3dx8:cd3dxcodec.obj
 0001:0000fb00       ??_GCD3DXCodec_X1R5G5B5@@UAEPAXI@Z 00410b00 f i d3dx8:cd3dxcodec.obj
 0001:0000fb1c       ??1CD3DXCodec_X1R5G5B5@@UAE@XZ 00410b1c f i d3dx8:cd3dxcodec.obj
 0001:0000fb21       ??0CD3DXCodec_A1R5G5B5@@QAE@PAUD3DX_BLT@@@Z 00410b21 f i d3dx8:cd3dxcodec.obj
 0001:0000fb3d       ??_ECD3DXCodec_A1R5G5B5@@UAEPAXI@Z 00410b3d f i d3dx8:cd3dxcodec.obj
 0001:0000fb3d       ??_GCD3DXCodec_A1R5G5B5@@UAEPAXI@Z 00410b3d f i d3dx8:cd3dxcodec.obj
 0001:0000fb59       ??1CD3DXCodec_A1R5G5B5@@UAE@XZ 00410b59 f i d3dx8:cd3dxcodec.obj
 0001:0000fb5e       ?Fetch@CD3DXCodecYUV@@QAEJIIH@Z 00410b5e f   d3dx8:cd3dxcodec.obj
 0001:0000fe2f       ??0CD3DXCodec_A4R4G4B4@@QAE@PAUD3DX_BLT@@@Z 00410e2f f i d3dx8:cd3dxcodec.obj
 0001:0000fe4b       ??_GCD3DXCodec_A4R4G4B4@@UAEPAXI@Z 00410e4b f i d3dx8:cd3dxcodec.obj
 0001:0000fe4b       ??_ECD3DXCodec_A4R4G4B4@@UAEPAXI@Z 00410e4b f i d3dx8:cd3dxcodec.obj
 0001:0000fe67       ??1CD3DXCodec_A4R4G4B4@@UAE@XZ 00410e67 f i d3dx8:cd3dxcodec.obj
 0001:0000fe6c       ??0CD3DXCodec_R3G3B2@@QAE@PAUD3DX_BLT@@@Z 00410e6c f i d3dx8:cd3dxcodec.obj
 0001:0000fe88       ??_ECD3DXCodec_R3G3B2@@UAEPAXI@Z 00410e88 f i d3dx8:cd3dxcodec.obj
 0001:0000fe88       ??_GCD3DXCodec_R3G3B2@@UAEPAXI@Z 00410e88 f i d3dx8:cd3dxcodec.obj
 0001:0000fea4       ??1CD3DXCodec_R3G3B2@@UAE@XZ 00410ea4 f i d3dx8:cd3dxcodec.obj
 0001:0000fea9       ??0CD3DXCodec_A8@@QAE@PAUD3DX_BLT@@@Z 00410ea9 f i d3dx8:cd3dxcodec.obj
 0001:0000fec5       ??_ECD3DXCodec_A8@@UAEPAXI@Z 00410ec5 f i d3dx8:cd3dxcodec.obj
 0001:0000fec5       ??_GCD3DXCodec_A8@@UAEPAXI@Z 00410ec5 f i d3dx8:cd3dxcodec.obj
 0001:0000fee1       ??1CD3DXCodec_A8@@UAE@XZ   00410ee1 f i d3dx8:cd3dxcodec.obj
 0001:0000fee6       ??0CD3DXCodec_A8R3G3B2@@QAE@PAUD3DX_BLT@@@Z 00410ee6 f i d3dx8:cd3dxcodec.obj
 0001:0000ff02       ??_GCD3DXCodec_A8R3G3B2@@UAEPAXI@Z 00410f02 f i d3dx8:cd3dxcodec.obj
 0001:0000ff02       ??_ECD3DXCodec_A8R3G3B2@@UAEPAXI@Z 00410f02 f i d3dx8:cd3dxcodec.obj
 0001:0000ff1e       ??1CD3DXCodec_A8R3G3B2@@UAE@XZ 00410f1e f i d3dx8:cd3dxcodec.obj
 0001:0000ff23       ??0CD3DXCodec_X4R4G4B4@@QAE@PAUD3DX_BLT@@@Z 00410f23 f i d3dx8:cd3dxcodec.obj
 0001:0000ff3f       ??_GCD3DXCodec_X4R4G4B4@@UAEPAXI@Z 00410f3f f i d3dx8:cd3dxcodec.obj
 0001:0000ff3f       ??_ECD3DXCodec_X4R4G4B4@@UAEPAXI@Z 00410f3f f i d3dx8:cd3dxcodec.obj
 0001:0000ff5b       ??1CD3DXCodec_X4R4G4B4@@UAE@XZ 00410f5b f i d3dx8:cd3dxcodec.obj
 0001:0000ff60       ?Encode@CD3DXCodecYUV@@UAEXIIPAUD3DXCOLOR@@@Z 00410f60 f   d3dx8:cd3dxcodec.obj
 0001:0000ffed       ??0CD3DXCodec_A2B10G10R10@@QAE@PAUD3DX_BLT@@@Z 00410fed f i d3dx8:cd3dxcodec.obj
 0001:00010009       ??_GCD3DXCodec_A2B10G10R10@@UAEPAXI@Z 00411009 f i d3dx8:cd3dxcodec.obj
 0001:00010009       ??_ECD3DXCodec_A2B10G10R10@@UAEPAXI@Z 00411009 f i d3dx8:cd3dxcodec.obj
 0001:00010025       ??1CD3DXCodec_A2B10G10R10@@UAE@XZ 00411025 f i d3dx8:cd3dxcodec.obj
 0001:0001002a       ?Decode@CD3DXCodecYUV@@UAEXIIPAUD3DXCOLOR@@@Z 0041102a f   d3dx8:cd3dxcodec.obj
 0001:00010099       ??0CD3DXCodec_G16R16@@QAE@PAUD3DX_BLT@@@Z 00411099 f i d3dx8:cd3dxcodec.obj
 0001:000100b5       ??_GCD3DXCodec_G16R16@@UAEPAXI@Z 004110b5 f i d3dx8:cd3dxcodec.obj
 0001:000100b5       ??_ECD3DXCodec_G16R16@@UAEPAXI@Z 004110b5 f i d3dx8:cd3dxcodec.obj
 0001:000100d1       ??1CD3DXCodec_G16R16@@UAE@XZ 004110d1 f i d3dx8:cd3dxcodec.obj
 0001:000100d6       ??0CD3DXCodecDXT@@QAE@PAUD3DX_BLT@@@Z 004110d6 f   d3dx8:cd3dxcodec.obj
 0001:000102c8       ??0CD3DXCodec_A8P8@@QAE@PAUD3DX_BLT@@@Z 004112c8 f i d3dx8:cd3dxcodec.obj
 0001:000102e4       ??_GCD3DXCodec_A8P8@@UAEPAXI@Z 004112e4 f i d3dx8:cd3dxcodec.obj
 0001:000102e4       ??_ECD3DXCodec_A8P8@@UAEPAXI@Z 004112e4 f i d3dx8:cd3dxcodec.obj
 0001:00010300       ??1CD3DXCodec_A8P8@@UAE@XZ 00411300 f i d3dx8:cd3dxcodec.obj
 0001:00010305       ??0CD3DXCodec_P8@@QAE@PAUD3DX_BLT@@@Z 00411305 f i d3dx8:cd3dxcodec.obj
 0001:00010321       ??_ECD3DXCodec_P8@@UAEPAXI@Z 00411321 f i d3dx8:cd3dxcodec.obj
 0001:00010321       ??_GCD3DXCodec_P8@@UAEPAXI@Z 00411321 f i d3dx8:cd3dxcodec.obj
 0001:0001033d       ??1CD3DXCodec_P8@@UAE@XZ   0041133d f i d3dx8:cd3dxcodec.obj
 0001:00010342       ??0CD3DXCodec_L8@@QAE@PAUD3DX_BLT@@@Z 00411342 f i d3dx8:cd3dxcodec.obj
 0001:0001035e       ??_GCD3DXCodec_L8@@UAEPAXI@Z 0041135e f i d3dx8:cd3dxcodec.obj
 0001:0001035e       ??_ECD3DXCodec_L8@@UAEPAXI@Z 0041135e f i d3dx8:cd3dxcodec.obj
 0001:0001037a       ??1CD3DXCodec_L8@@UAE@XZ   0041137a f i d3dx8:cd3dxcodec.obj
 0001:0001037f       ??0CD3DXCodec_A8L8@@QAE@PAUD3DX_BLT@@@Z 0041137f f i d3dx8:cd3dxcodec.obj
 0001:0001039b       ??_GCD3DXCodecDXT@@UAEPAXI@Z 0041139b f i d3dx8:cd3dxcodec.obj
 0001:0001039b       ??_ECD3DXCodecDXT@@UAEPAXI@Z 0041139b f i d3dx8:cd3dxcodec.obj
 0001:000103b7       ??_GCD3DXCodec_A8L8@@UAEPAXI@Z 004113b7 f i d3dx8:cd3dxcodec.obj
 0001:000103b7       ??_ECD3DXCodec_A8L8@@UAEPAXI@Z 004113b7 f i d3dx8:cd3dxcodec.obj
 0001:000103d3       ??1CD3DXCodec_A8L8@@UAE@XZ 004113d3 f i d3dx8:cd3dxcodec.obj
 0001:000103d8       ??0CD3DXCodec_A4L4@@QAE@PAUD3DX_BLT@@@Z 004113d8 f i d3dx8:cd3dxcodec.obj
 0001:000103f4       ??_GCD3DXCodec_A4L4@@UAEPAXI@Z 004113f4 f i d3dx8:cd3dxcodec.obj
 0001:000103f4       ??_ECD3DXCodec_A4L4@@UAEPAXI@Z 004113f4 f i d3dx8:cd3dxcodec.obj
 0001:00010410       ??1CD3DXCodec_A4L4@@UAE@XZ 00411410 f i d3dx8:cd3dxcodec.obj
 0001:00010415       ?QuantizeColorKey@CD3DXCodecDXT@@MAEXXZ 00411415 f   d3dx8:cd3dxcodec.obj
 0001:00010516       ??0CD3DXCodec_V8U8@@QAE@PAUD3DX_BLT@@@Z 00411516 f i d3dx8:cd3dxcodec.obj
 0001:00010532       ??_ECD3DXCodec_V8U8@@UAEPAXI@Z 00411532 f i d3dx8:cd3dxcodec.obj
 0001:00010532       ??_GCD3DXCodec_V8U8@@UAEPAXI@Z 00411532 f i d3dx8:cd3dxcodec.obj
 0001:0001054e       ??1CD3DXCodec_V8U8@@UAE@XZ 0041154e f i d3dx8:cd3dxcodec.obj
 0001:00010553       ??0CD3DXCodec_L6V5U5@@QAE@PAUD3DX_BLT@@@Z 00411553 f i d3dx8:cd3dxcodec.obj
 0001:0001056f       ??_GCD3DXCodec_L6V5U5@@UAEPAXI@Z 0041156f f i d3dx8:cd3dxcodec.obj
 0001:0001056f       ??_ECD3DXCodec_L6V5U5@@UAEPAXI@Z 0041156f f i d3dx8:cd3dxcodec.obj
 0001:0001058b       ??1CD3DXCodec_L6V5U5@@UAE@XZ 0041158b f i d3dx8:cd3dxcodec.obj
 0001:00010590       ??0CD3DXCodec_X8L8V8U8@@QAE@PAUD3DX_BLT@@@Z 00411590 f i d3dx8:cd3dxcodec.obj
 0001:000105ac       ??_GCD3DXCodec_X8L8V8U8@@UAEPAXI@Z 004115ac f i d3dx8:cd3dxcodec.obj
 0001:000105ac       ??_ECD3DXCodec_X8L8V8U8@@UAEPAXI@Z 004115ac f i d3dx8:cd3dxcodec.obj
 0001:000105c8       ??1CD3DXCodec_X8L8V8U8@@UAE@XZ 004115c8 f i d3dx8:cd3dxcodec.obj
 0001:000105cd       ??0CD3DXCodec_Q8W8V8U8@@QAE@PAUD3DX_BLT@@@Z 004115cd f i d3dx8:cd3dxcodec.obj
 0001:000105e9       ??_ECD3DXCodec_Q8W8V8U8@@UAEPAXI@Z 004115e9 f i d3dx8:cd3dxcodec.obj
 0001:000105e9       ??_GCD3DXCodec_Q8W8V8U8@@UAEPAXI@Z 004115e9 f i d3dx8:cd3dxcodec.obj
 0001:00010605       ??1CD3DXCodec_Q8W8V8U8@@UAE@XZ 00411605 f i d3dx8:cd3dxcodec.obj
 0001:0001060a       ??0CD3DXCodec_V16U16@@QAE@PAUD3DX_BLT@@@Z 0041160a f i d3dx8:cd3dxcodec.obj
 0001:00010626       ??_ECD3DXCodec_V16U16@@UAEPAXI@Z 00411626 f i d3dx8:cd3dxcodec.obj
 0001:00010626       ??_GCD3DXCodec_V16U16@@UAEPAXI@Z 00411626 f i d3dx8:cd3dxcodec.obj
 0001:00010642       ??1CD3DXCodec_V16U16@@UAE@XZ 00411642 f i d3dx8:cd3dxcodec.obj
 0001:00010647       ??0CD3DXCodec_W11V11U10@@QAE@PAUD3DX_BLT@@@Z 00411647 f i d3dx8:cd3dxcodec.obj
 0001:00010663       ??_ECD3DXCodec_W11V11U10@@UAEPAXI@Z 00411663 f i d3dx8:cd3dxcodec.obj
 0001:00010663       ??_GCD3DXCodec_W11V11U10@@UAEPAXI@Z 00411663 f i d3dx8:cd3dxcodec.obj
 0001:0001067f       ??1CD3DXCodec_W11V11U10@@UAE@XZ 0041167f f i d3dx8:cd3dxcodec.obj
 0001:00010684       ??0CD3DXCodec_A2W10V10U10@@QAE@PAUD3DX_BLT@@@Z 00411684 f i d3dx8:cd3dxcodec.obj
 0001:000106a0       ??_ECD3DXCodec_A2W10V10U10@@UAEPAXI@Z 004116a0 f i d3dx8:cd3dxcodec.obj
 0001:000106a0       ??_GCD3DXCodec_A2W10V10U10@@UAEPAXI@Z 004116a0 f i d3dx8:cd3dxcodec.obj
 0001:000106bc       ??1CD3DXCodec_A2W10V10U10@@UAE@XZ 004116bc f i d3dx8:cd3dxcodec.obj
 0001:000106c1       ??0CD3DXCodec_D16_LOCKABLE@@QAE@PAUD3DX_BLT@@@Z 004116c1 f i d3dx8:cd3dxcodec.obj
 0001:000106dd       ??_GCD3DXCodec_D16_LOCKABLE@@UAEPAXI@Z 004116dd f i d3dx8:cd3dxcodec.obj
 0001:000106dd       ??_ECD3DXCodec_D16_LOCKABLE@@UAEPAXI@Z 004116dd f i d3dx8:cd3dxcodec.obj
 0001:000106f9       ??1CD3DXCodec_D16_LOCKABLE@@UAE@XZ 004116f9 f i d3dx8:cd3dxcodec.obj
 0001:000106fe       ??0CD3DXCodec_D3DX_L16@@QAE@PAUD3DX_BLT@@@Z 004116fe f i d3dx8:cd3dxcodec.obj
 0001:0001071a       ??_GCD3DXCodec_D3DX_L16@@UAEPAXI@Z 0041171a f i d3dx8:cd3dxcodec.obj
 0001:0001071a       ??_ECD3DXCodec_D3DX_L16@@UAEPAXI@Z 0041171a f i d3dx8:cd3dxcodec.obj
 0001:00010736       ??1CD3DXCodec_D3DX_L16@@UAE@XZ 00411736 f i d3dx8:cd3dxcodec.obj
 0001:0001073b       ?Decode@CD3DXCodecDXT@@UAEXIIPAUD3DXCOLOR@@@Z 0041173b f   d3dx8:cd3dxcodec.obj
 0001:000109e4       ??0CD3DXCodec_D3DX_A16L16@@QAE@PAUD3DX_BLT@@@Z 004119e4 f i d3dx8:cd3dxcodec.obj
 0001:00010a00       ??_ECD3DXCodec_D3DX_A16L16@@UAEPAXI@Z 00411a00 f i d3dx8:cd3dxcodec.obj
 0001:00010a00       ??_GCD3DXCodec_D3DX_A16L16@@UAEPAXI@Z 00411a00 f i d3dx8:cd3dxcodec.obj
 0001:00010a1c       ??1CD3DXCodec_D3DX_A16L16@@UAE@XZ 00411a1c f i d3dx8:cd3dxcodec.obj
 0001:00010a21       ??0CD3DXCodec_D3DX_R16G16B16@@QAE@PAUD3DX_BLT@@@Z 00411a21 f i d3dx8:cd3dxcodec.obj
 0001:00010a3d       ??_GCD3DXCodec_D3DX_R16G16B16@@UAEPAXI@Z 00411a3d f i d3dx8:cd3dxcodec.obj
 0001:00010a3d       ??_ECD3DXCodec_D3DX_R16G16B16@@UAEPAXI@Z 00411a3d f i d3dx8:cd3dxcodec.obj
 0001:00010a59       ??1CD3DXCodec_D3DX_R16G16B16@@UAE@XZ 00411a59 f i d3dx8:cd3dxcodec.obj
 0001:00010a5e       ??0CD3DXCodec_D3DX_A16R16G16B16@@QAE@PAUD3DX_BLT@@@Z 00411a5e f i d3dx8:cd3dxcodec.obj
 0001:00010a7a       ??_ECD3DXCodec_D3DX_A16R16G16B16@@UAEPAXI@Z 00411a7a f i d3dx8:cd3dxcodec.obj
 0001:00010a7a       ??_GCD3DXCodec_D3DX_A16R16G16B16@@UAEPAXI@Z 00411a7a f i d3dx8:cd3dxcodec.obj
 0001:00010a96       ??1CD3DXCodec_D3DX_A16R16G16B16@@UAE@XZ 00411a96 f i d3dx8:cd3dxcodec.obj
 0001:00010a9b       ??0CD3DXCodec_DXT1@@QAE@PAUD3DX_BLT@@@Z 00411a9b f i d3dx8:cd3dxcodec.obj
 0001:00010ab3       ??_ECD3DXCodec_DXT1@@UAEPAXI@Z 00411ab3 f i d3dx8:cd3dxcodec.obj
 0001:00010ab3       ??_GCD3DXCodec_DXT1@@UAEPAXI@Z 00411ab3 f i d3dx8:cd3dxcodec.obj
 0001:00010acf       ??1CD3DXCodec_DXT1@@UAE@XZ 00411acf f i d3dx8:cd3dxcodec.obj
 0001:00010ad4       ??0CD3DXCodec_DXT2@@QAE@PAUD3DX_BLT@@@Z 00411ad4 f i d3dx8:cd3dxcodec.obj
 0001:00010aec       ??_ECD3DXCodec_DXT2@@UAEPAXI@Z 00411aec f i d3dx8:cd3dxcodec.obj
 0001:00010aec       ??_GCD3DXCodec_DXT2@@UAEPAXI@Z 00411aec f i d3dx8:cd3dxcodec.obj
 0001:00010b08       ??1CD3DXCodec_DXT2@@UAE@XZ 00411b08 f i d3dx8:cd3dxcodec.obj
 0001:00010b0d       ??0CD3DXCodec_DXT3@@QAE@PAUD3DX_BLT@@@Z 00411b0d f i d3dx8:cd3dxcodec.obj
 0001:00010b25       ??_GCD3DXCodec_DXT3@@UAEPAXI@Z 00411b25 f i d3dx8:cd3dxcodec.obj
 0001:00010b25       ??_ECD3DXCodec_DXT3@@UAEPAXI@Z 00411b25 f i d3dx8:cd3dxcodec.obj
 0001:00010b41       ??1CD3DXCodec_DXT3@@UAE@XZ 00411b41 f i d3dx8:cd3dxcodec.obj
 0001:00010b46       ??0CD3DXCodec_DXT4@@QAE@PAUD3DX_BLT@@@Z 00411b46 f i d3dx8:cd3dxcodec.obj
 0001:00010b5e       ??_GCD3DXCodec_DXT4@@UAEPAXI@Z 00411b5e f i d3dx8:cd3dxcodec.obj
 0001:00010b5e       ??_ECD3DXCodec_DXT4@@UAEPAXI@Z 00411b5e f i d3dx8:cd3dxcodec.obj
 0001:00010b7a       ??1CD3DXCodec_DXT4@@UAE@XZ 00411b7a f i d3dx8:cd3dxcodec.obj
 0001:00010b7f       ??0CD3DXCodec_DXT5@@QAE@PAUD3DX_BLT@@@Z 00411b7f f i d3dx8:cd3dxcodec.obj
 0001:00010b97       ??_GCD3DXCodec_DXT5@@UAEPAXI@Z 00411b97 f i d3dx8:cd3dxcodec.obj
 0001:00010b97       ??_ECD3DXCodec_DXT5@@UAEPAXI@Z 00411b97 f i d3dx8:cd3dxcodec.obj
 0001:00010bb3       ??1CD3DXCodec_DXT5@@UAE@XZ 00411bb3 f i d3dx8:cd3dxcodec.obj
 0001:00010bb8       ??1CD3DXCodecYUV@@UAE@XZ   00411bb8 f   d3dx8:cd3dxcodec.obj
 0001:00010c01       ??0CD3DXCodec_UYVY@@QAE@PAUD3DX_BLT@@@Z 00411c01 f i d3dx8:cd3dxcodec.obj
 0001:00010c19       ??0CD3DXCodec_YUY2@@QAE@PAUD3DX_BLT@@@Z 00411c19 f i d3dx8:cd3dxcodec.obj
 0001:00010c31       ?Create@CD3DXCodec@@SAPAV1@PAUD3DX_BLT@@@Z 00411c31 f   d3dx8:cd3dxcodec.obj
 0001:0001138d       ??_GCD3DXCodecYUV@@UAEPAXI@Z 0041238d f i d3dx8:cd3dxcodec.obj
 0001:0001138d       ??_ECD3DXCodecYUV@@UAEPAXI@Z 0041238d f i d3dx8:cd3dxcodec.obj
 0001:000113a9       ??_GCD3DXCodec_UYVY@@UAEPAXI@Z 004123a9 f i d3dx8:cd3dxcodec.obj
 0001:000113a9       ??_ECD3DXCodec_UYVY@@UAEPAXI@Z 004123a9 f i d3dx8:cd3dxcodec.obj
 0001:000113c5       ??1CD3DXCodec_UYVY@@UAE@XZ 004123c5 f i d3dx8:cd3dxcodec.obj
 0001:000113ca       ??_ECD3DXCodec_YUY2@@UAEPAXI@Z 004123ca f i d3dx8:cd3dxcodec.obj
 0001:000113ca       ??_GCD3DXCodec_YUY2@@UAEPAXI@Z 004123ca f i d3dx8:cd3dxcodec.obj
 0001:000113e6       ??1CD3DXCodec_YUY2@@UAE@XZ 004123e6 f i d3dx8:cd3dxcodec.obj
 0001:000113eb       ??0CD3DXFile@@QAE@XZ       004123eb f   d3dx8:cd3dxfile.obj
 0001:000113fd       ?Open@CD3DXFile@@QAEJPBXH@Z 004123fd f   d3dx8:cd3dxfile.obj
 0001:0001150d       ?Create@CD3DXFile@@QAEJPBXH@Z 0041250d f   d3dx8:cd3dxfile.obj
 0001:000115d7       ?Close@CD3DXFile@@QAEJXZ   004125d7 f   d3dx8:cd3dxfile.obj
 0001:00011618       ??1CD3DXFile@@QAE@XZ       00412618 f   d3dx8:cd3dxfile.obj
 0001:00011623       ??1CD3DXSprite@@QAE@XZ     00412623 f   d3dx8:cd3dxsprite.obj
 0001:00011663       ?AddRef@CD3DXSprite@@UAGKXZ 00412663 f   d3dx8:cd3dxsprite.obj
 0001:00011670       ?Initialize@CD3DXSprite@@QAEJPAUIDirect3DDevice8@@@Z 00412670 f   d3dx8:cd3dxsprite.obj
 0001:000116e5       ?GetDevice@CD3DXSprite@@UAGJPAPAUIDirect3DDevice8@@@Z 004126e5 f   d3dx8:cd3dxsprite.obj
 0001:0001170b       ?End@CD3DXSprite@@UAGJXZ   0041270b f   d3dx8:cd3dxsprite.obj
 0001:00011736       ?OnLostDevice@CD3DXSprite@@UAGJXZ 00412736 f   d3dx8:cd3dxsprite.obj
 0001:00011775       ?OnResetDevice@CD3DXSprite@@UAGJXZ 00412775 f   d3dx8:cd3dxsprite.obj
 0001:0001177a       ?QueryInterface@CD3DXSprite@@UAGJABU_GUID@@PAPAX@Z 0041277a f   d3dx8:cd3dxsprite.obj
 0001:000117be       ?Release@CD3DXSprite@@UAGKXZ 004127be f   d3dx8:cd3dxsprite.obj
 0001:000117d6       ?Begin@CD3DXSprite@@UAGJXZ 004127d6 f   d3dx8:cd3dxsprite.obj
 0001:00011c12       ?Draw@CD3DXSprite@@UAGJPAUIDirect3DTexture8@@PBUtagRECT@@PBUD3DXVECTOR2@@2M2K@Z 00412c12 f   d3dx8:cd3dxsprite.obj
 0001:00011ce9       ?DrawTransform@CD3DXSprite@@UAGJPAUIDirect3DTexture8@@PBUtagRECT@@PBUD3DXMATRIX@@K@Z 00412ce9 f   d3dx8:cd3dxsprite.obj
 0001:000120bc       ??0CD3DXSprite@@QAE@XZ     004130bc f   d3dx8:cd3dxsprite.obj
 0001:000120e0       ?sse_D3DXInitFastTable@@YAXPAUD3DXFASTTABLE@@@Z 004130e0 f   d3dx8:ssefasttable.obj
 0001:000121f0       ?sse2_D3DXInitFastTable@@YAXPAUD3DXFASTTABLE@@@Z 004131f0 f   d3dx8:ssefasttable2.obj
 0001:00012300       ?get_feature_flags@@YAIXZ  00413300 f   d3dx8:d3dxmathx3d.obj
 0001:000123d5       ?x3d_D3DXInitFastTable@@YAXPAUD3DXFASTTABLE@@@Z 004133d5 f   d3dx8:d3dxmathx3d.obj
 0001:000125fb       ?x86_D3DXVec2Transform@@YGPAUD3DXVECTOR4@@PAU1@PBUD3DXVECTOR2@@PBUD3DXMATRIX@@@Z 004135fb f   d3dx8:d3dxmathx86.obj
 0001:00012664       ?x86_D3DXVec2TransformNormal@@YGPAUD3DXVECTOR2@@PAU1@PBU1@PBUD3DXMATRIX@@@Z 00413664 f   d3dx8:d3dxmathx86.obj
 0001:00012699       ?x86_D3DXVec3Transform@@YGPAUD3DXVECTOR4@@PAU1@PBUD3DXVECTOR3@@PBUD3DXMATRIX@@@Z 00413699 f   d3dx8:d3dxmathx86.obj
 0001:00012724       ?x86_D3DXVec3TransformNormal@@YGPAUD3DXVECTOR3@@PAU1@PBU1@PBUD3DXMATRIX@@@Z 00413724 f   d3dx8:d3dxmathx86.obj
 0001:00012783       ?x86_D3DXVec4Transform@@YGPAUD3DXVECTOR4@@PAU1@PBU1@PBUD3DXMATRIX@@@Z 00413783 f   d3dx8:d3dxmathx86.obj
 0001:0001281c       ?x86_D3DXVec3Normalize@@YGPAUD3DXVECTOR3@@PAU1@PBU1@@Z 0041381c f   d3dx8:d3dxmathx86.obj
 0001:000128e6       ?x86_D3DXMatrixMultiply@@YGPAUD3DXMATRIX@@PAU1@PBU1@1@Z 004138e6 f   d3dx8:d3dxmathx86.obj
 0001:000129c9       ?x86_D3DXMatrixMultiplyTranspose@@YGPAUD3DXMATRIX@@PAU1@PBU1@1@Z 004139c9 f   d3dx8:d3dxmathx86.obj
 0001:00012a57       ?x86_D3DXInitFastTable@@YAXPAUD3DXFASTTABLE@@@Z 00413a57 f   d3dx8:d3dxmathx86.obj
 0001:00012a93       ?jpeg_CreateDecompress@D3DX@@YAXPAUjpeg_decompress_struct@1@HI@Z 00413a93 f   d3dx8:jdapimin.obj
 0001:00012b53       ?jpeg_destroy_decompress@D3DX@@YAXPAUjpeg_decompress_struct@1@@Z 00413b53 f   d3dx8:jdapimin.obj
 0001:00012ccb       ?jpeg_consume_input@D3DX@@YAHPAUjpeg_decompress_struct@1@@Z 00413ccb f   d3dx8:jdapimin.obj
 0001:00012d65       ?jpeg_finish_decompress@D3DX@@YAEPAUjpeg_decompress_struct@1@@Z 00413d65 f   d3dx8:jdapimin.obj
 0001:00012e0c       ?jpeg_read_header@D3DX@@YAHPAUjpeg_decompress_struct@1@E@Z 00413e0c f   d3dx8:jdapimin.obj
 0001:00012f18       ?jpeg_read_scanlines@D3DX@@YAIPAUjpeg_decompress_struct@1@PAPAEI@Z 00413f18 f   d3dx8:jdapistd.obj
 0001:00012f9c       ?jpeg_start_decompress@D3DX@@YAEPAUjpeg_decompress_struct@1@@Z 00413f9c f   d3dx8:jdapistd.obj
 0001:000145ae       ?jpeg_resync_to_restart@D3DX@@YAEPAUjpeg_decompress_struct@1@H@Z 004155ae f   d3dx8:jdmarker.obj
 0001:000146c7       ?jinit_marker_reader@D3DX@@YAXPAUjpeg_decompress_struct@1@@Z 004156c7 f   d3dx8:jdmarker.obj
 0001:00014855       ?jpeg_std_error@D3DX@@YAPAUjpeg_error_mgr@1@PAU21@@Z 00415855 f   d3dx8:jerror.obj
 0001:00014928       ?png_set_error_fn@D3DX@@YAXPAUpng_struct_def@1@PAXP6AX0PBD@Z3@Z 00415928 f   d3dx8:pngerror.obj
 0001:00014942       ?png_error@D3DX@@YAXPAUpng_struct_def@1@PBD@Z 00415942 f   d3dx8:pngerror.obj
 0001:00014960       ?png_warning@D3DX@@YAXPAUpng_struct_def@1@PBD@Z 00415960 f   d3dx8:pngerror.obj
 0001:00014975       ?png_chunk_error@D3DX@@YAXPAUpng_struct_def@1@PBD@Z 00415975 f   d3dx8:pngerror.obj
 0001:0001499a       ?png_chunk_warning@D3DX@@YAXPAUpng_struct_def@1@PBD@Z 0041599a f   d3dx8:pngerror.obj
 0001:000149bf       ?png_create_read_struct@D3DX@@YAPAUpng_struct_def@1@PBDPAXP6AXPAU21@0@Z3@Z 004159bf f   d3dx8:pngread.obj
 0001:00014ac2       ?png_read_info@D3DX@@YAXPAUpng_struct_def@1@PAUpng_info_struct@1@@Z 00415ac2 f   d3dx8:pngread.obj
 0001:00014c35       ?png_read_update_info@D3DX@@YAXPAUpng_struct_def@1@PAUpng_info_struct@1@@Z 00415c35 f   d3dx8:pngread.obj
 0001:00014c55       ?png_read_row@D3DX@@YAXPAUpng_struct_def@1@PAE1@Z 00415c55 f   d3dx8:pngread.obj
 0001:00014ffc       ?png_read_image@D3DX@@YAXPAUpng_struct_def@1@PAPAE@Z 00415ffc f   d3dx8:pngread.obj
 0001:00015049       ?png_read_destroy@D3DX@@YAXPAUpng_struct_def@1@PAUpng_info_struct@1@1@Z 00416049 f   d3dx8:pngread.obj
 0001:0001516c       ?png_destroy_read_struct@D3DX@@YAXPAPAUpng_struct_def@1@PAPAUpng_info_struct@1@1@Z 0041616c f   d3dx8:pngread.obj
 0001:000151ed       ?png_get_valid@D3DX@@YAKPAUpng_struct_def@1@PAUpng_info_struct@1@K@Z 004161ed f   d3dx8:pngget.obj
 0001:00015207       ?png_get_rowbytes@D3DX@@YAKPAUpng_struct_def@1@PAUpng_info_struct@1@@Z 00416207 f   d3dx8:pngget.obj
 0001:0001521d       ?png_get_channels@D3DX@@YAEPAUpng_struct_def@1@PAUpng_info_struct@1@@Z 0041621d f   d3dx8:pngget.obj
 0001:00015233       ?png_get_gAMA@D3DX@@YAKPAUpng_struct_def@1@PAUpng_info_struct@1@PAN@Z 00416233 f   d3dx8:pngget.obj
 0001:0001525c       ?png_get_sRGB@D3DX@@YAKPAUpng_struct_def@1@PAUpng_info_struct@1@PAH@Z 0041625c f   d3dx8:pngget.obj
 0001:00015287       ?png_get_IHDR@D3DX@@YAKPAUpng_struct_def@1@PAUpng_info_struct@1@PAK2PAH3333@Z 00416287 f   d3dx8:pngget.obj
 0001:00015358       ?png_get_PLTE@D3DX@@YAKPAUpng_struct_def@1@PAUpng_info_struct@1@PAPAUpng_color_struct@1@PAH@Z 00416358 f   d3dx8:pngget.obj
 0001:0001538b       ?png_get_tRNS@D3DX@@YAKPAUpng_struct_def@1@PAUpng_info_struct@1@PAPAEPAHPAPAUpng_color_16_struct@1@@Z 0041638b f   d3dx8:pngget.obj
 0001:000153f2       ?png_set_bgr@D3DX@@YAXPAUpng_struct_def@1@@Z 004163f2 f   d3dx8:pngtrans.obj
 0001:000153fb       ?png_set_swap@D3DX@@YAXPAUpng_struct_def@1@@Z 004163fb f   d3dx8:pngtrans.obj
 0001:0001540d       ?png_set_packing@D3DX@@YAXPAUpng_struct_def@1@@Z 0041640d f   d3dx8:pngtrans.obj
 0001:00015426       ?png_set_interlace_handling@D3DX@@YAHPAUpng_struct_def@1@@Z 00416426 f   d3dx8:pngtrans.obj
 0001:0001543f       ?png_set_filler@D3DX@@YAXPAUpng_struct_def@1@KH@Z 0041643f f   d3dx8:pngtrans.obj
 0001:0001548c       ?png_do_swap@D3DX@@YAXPAUpng_row_info_struct@1@PAE@Z 0041648c f   d3dx8:pngtrans.obj
 0001:000154b9       ?png_do_bgr@D3DX@@YAXPAUpng_row_info_struct@1@PAE@Z 004164b9 f   d3dx8:pngtrans.obj
 0001:00015578       ?png_set_gamma@D3DX@@YAXPAUpng_struct_def@1@NN@Z 00416578 f   d3dx8:pngrtran.obj
 0001:000155ae       ?png_set_gray_1_2_4_to_8@D3DX@@YAXPAUpng_struct_def@1@@Z 004165ae f   d3dx8:pngrtran.obj
 0001:000155b7       ?png_set_tRNS_to_alpha@D3DX@@YAXPAUpng_struct_def@1@@Z 004165b7 f   d3dx8:pngrtran.obj
 0001:000155c0       ?png_read_transform_info@D3DX@@YAXPAUpng_struct_def@1@PAUpng_info_struct@1@@Z 004165c0 f   d3dx8:pngrtran.obj
 0001:000156ab       ?png_do_unpack@D3DX@@YAXPAUpng_row_info_struct@1@PAE@Z 004166ab f   d3dx8:pngrtran.obj
 0001:000157bb       ?png_do_unshift@D3DX@@YAXPAUpng_row_info_struct@1@PAEPAUpng_color_8_struct@1@@Z 004167bb f   d3dx8:pngrtran.obj
 0001:00015932       ?png_do_chop@D3DX@@YAXPAUpng_row_info_struct@1@PAE@Z 00416932 f   d3dx8:pngrtran.obj
 0001:00015976       ?png_do_read_filler@D3DX@@YAXPAUpng_row_info_struct@1@PAEKK@Z 00416976 f   d3dx8:pngrtran.obj
 0001:00015bae       ?png_do_gamma@D3DX@@YAXPAUpng_row_info_struct@1@PAE1PAPAGH@Z 00416bae f   d3dx8:pngrtran.obj
 0001:00015efc       ?png_do_expand_palette@D3DX@@YAXPAUpng_row_info_struct@1@PAEPAUpng_color_struct@1@1H@Z 00416efc f   d3dx8:pngrtran.obj
 0001:00016104       ?png_do_expand@D3DX@@YAXPAUpng_row_info_struct@1@PAEPAUpng_color_16_struct@1@@Z 00417104 f   d3dx8:pngrtran.obj
 0001:00016456       ?png_do_dither@D3DX@@YAXPAUpng_row_info_struct@1@PAE11@Z 00417456 f   d3dx8:pngrtran.obj
 0001:00016564       ?png_build_gamma_table@D3DX@@YAXPAUpng_struct_def@1@@Z 00417564 f   d3dx8:pngrtran.obj
 0001:0001686d       ?png_init_read_transformations@D3DX@@YAXPAUpng_struct_def@1@@Z 0041786d f   d3dx8:pngrtran.obj
 0001:00016980       ?png_do_read_transformations@D3DX@@YAXPAUpng_struct_def@1@@Z 00417980 f   d3dx8:pngrtran.obj
 0001:00016b38       ?png_set_gAMA@D3DX@@YAXPAUpng_struct_def@1@PAUpng_info_struct@1@N@Z 00417b38 f   d3dx8:pngset.obj
 0001:00016b53       ?png_set_IHDR@D3DX@@YAXPAUpng_struct_def@1@PAUpng_info_struct@1@KKHHHHH@Z 00417b53 f   d3dx8:pngset.obj
 0001:00016bf4       ?png_set_PLTE@D3DX@@YAXPAUpng_struct_def@1@PAUpng_info_struct@1@PAUpng_color_struct@1@H@Z 00417bf4 f   d3dx8:pngset.obj
 0001:00016c18       ?png_set_sRGB@D3DX@@YAXPAUpng_struct_def@1@PAUpng_info_struct@1@H@Z 00417c18 f   d3dx8:pngset.obj
 0001:00016c33       ?png_set_sRGB_gAMA_and_cHRM@D3DX@@YAXPAUpng_struct_def@1@PAUpng_info_struct@1@H@Z 00417c33 f   d3dx8:pngset.obj
 0001:00016c6c       ?png_set_tRNS@D3DX@@YAXPAUpng_struct_def@1@PAUpng_info_struct@1@PAEHPAUpng_color_16_struct@1@@Z 00417c6c f   d3dx8:pngset.obj
 0001:00016cb3       ?png_read_data@D3DX@@YAXPAUpng_struct_def@1@PAEI@Z 00417cb3 f   d3dx8:pngrio.obj
 0001:00016cdb       ?png_set_read_fn@D3DX@@YAXPAUpng_struct_def@1@PAXP6AX0PAEI@Z@Z 00417cdb f   d3dx8:pngrio.obj
 0001:00016d1a       ?png_sig_cmp@D3DX@@YAHPAEII@Z 00417d1a f   d3dx8:png.obj
 0001:00016d62       ?png_zalloc@D3DX@@YAPAXPAXII@Z 00417d62 f   d3dx8:png.obj
 0001:00016db5       ?png_zfree@D3DX@@YAXPAX0@Z 00417db5 f   d3dx8:png.obj
 0001:00016dba       ?png_reset_crc@D3DX@@YAXPAUpng_struct_def@1@@Z 00417dba f   d3dx8:png.obj
 0001:00016dd2       ?png_calculate_crc@D3DX@@YAXPAUpng_struct_def@1@PAEI@Z 00417dd2 f   d3dx8:png.obj
 0001:00016e11       ?png_info_destroy@D3DX@@YAXPAUpng_struct_def@1@PAUpng_info_struct@1@@Z 00417e11 f   d3dx8:png.obj
 0001:00016e1f       ?png_create_info_struct@D3DX@@YAPAUpng_info_struct@1@PAUpng_struct_def@1@@Z 00417e1f f   d3dx8:png.obj
 0001:000180d0       ?D3DXDecodeDXT1@@YAJPAUD3DXCOLOR@@PBE@Z 004190d0 f   d3dx8:dxtn.obj
 0001:0001820e       ?D3DXDecodeDXT3@@YAJPAUD3DXCOLOR@@PBE@Z 0041920e f   d3dx8:dxtn.obj
 0001:00018291       ?D3DXDecodeDXT5@@YAJPAUD3DXCOLOR@@PBE@Z 00419291 f   d3dx8:dxtn.obj
 0001:000183cd       ?D3DXEncodeDXT1@@YAJPAEPBUD3DXCOLOR@@@Z 004193cd f   d3dx8:dxtn.obj
 0001:000183e5       ?D3DXEncodeDXT3@@YAJPAEPBUD3DXCOLOR@@@Z 004193e5 f   d3dx8:dxtn.obj
 0001:000184f9       ?D3DXEncodeDXT5@@YAJPAEPBUD3DXCOLOR@@@Z 004194f9 f   d3dx8:dxtn.obj
 0001:0001894b       ?D3DXDecodeDXT2@@YAJPAUD3DXCOLOR@@PBE@Z 0041994b f   d3dx8:dxtn.obj
 0001:0001896e       ?D3DXDecodeDXT4@@YAJPAUD3DXCOLOR@@PBE@Z 0041996e f   d3dx8:dxtn.obj
 0001:00018991       ?D3DXEncodeDXT2@@YAJPAEPBUD3DXCOLOR@@@Z 00419991 f   d3dx8:dxtn.obj
 0001:000189c5       ?D3DXEncodeDXT4@@YAJPAEPBUD3DXCOLOR@@@Z 004199c5 f   d3dx8:dxtn.obj
 0001:00018a00       ?sse_D3DXVec2Transform@@YGPAUD3DXVECTOR4@@PAU1@PBUD3DXVECTOR2@@PBUD3DXMATRIX@@@Z 00419a00 f   d3dx8:d3dxmathsse.obj
 0001:00018a40       ?sse_D3DXVec2TransformCoord@@YGPAUD3DXVECTOR2@@PAU1@PBU1@PBUD3DXMATRIX@@@Z 00419a40 f   d3dx8:d3dxmathsse.obj
 0001:00018aa0       ?sse_D3DXVec2TransformNormal@@YGPAUD3DXVECTOR2@@PAU1@PBU1@PBUD3DXMATRIX@@@Z 00419aa0 f   d3dx8:d3dxmathsse.obj
 0001:00018ae0       ?sse_D3DXVec3TransformNormal@@YGPAUD3DXVECTOR3@@PAU1@PBU1@PBUD3DXMATRIX@@@Z 00419ae0 f   d3dx8:d3dxmathsse.obj
 0001:00018ba0       ?sse_D3DXVec3Transform@@YGPAUD3DXVECTOR4@@PAU1@PBUD3DXVECTOR3@@PBUD3DXMATRIX@@@Z 00419ba0 f   d3dx8:d3dxmathsse.obj
 0001:00018c60       ?sse_D3DXVec3TransformCoord@@YGPAUD3DXVECTOR3@@PAU1@PBU1@PBUD3DXMATRIX@@@Z 00419c60 f   d3dx8:d3dxmathsse.obj
 0001:00018d60       ?sse_D3DXVec4Transform@@YGPAUD3DXVECTOR4@@PAU1@PBU1@PBUD3DXMATRIX@@@Z 00419d60 f   d3dx8:d3dxmathsse.obj
 0001:00018e20       ?sse_D3DXMatrixMultiply@@YGPAUD3DXMATRIX@@PAU1@PBU1@1@Z 00419e20 f   d3dx8:d3dxmathsse.obj
 0001:00018f70       ?sse_D3DXVec3Normalize@@YGPAUD3DXVECTOR3@@PAU1@PBU1@@Z 00419f70 f   d3dx8:d3dxmathsse.obj
 0001:00019040       ?sse_D3DXPlaneNormalize@@YGPAUD3DXPLANE@@PAU1@PBU1@@Z 0041a040 f   d3dx8:d3dxmathsse.obj
 0001:00019120       ?sse_D3DXMatrixInverse@@YGPAUD3DXMATRIX@@PAU1@PAMPBU1@@Z 0041a120 f   d3dx8:d3dxmathsse.obj
 0001:000193e0       ?sse_D3DXMatrixMultiplyTranspose@@YGPAUD3DXMATRIX@@PAU1@PBU1@1@Z 0041a3e0 f   d3dx8:d3dxmathsse.obj
 0001:00019540       ?sse_D3DXVec4Cross@@YGPAUD3DXVECTOR4@@PAU1@PBU1@11@Z 0041a540 f   d3dx8:d3dxmathsse.obj
 0001:000195f0       ?sse_D3DXVec4Normalize@@YGPAUD3DXVECTOR4@@PAU1@PBU1@@Z 0041a5f0 f   d3dx8:d3dxmathsse.obj
 0001:00019690       ?sse_D3DXVec3CatmullRom@@YGPAUD3DXVECTOR3@@PAU1@PBU1@111M@Z 0041a690 f   d3dx8:d3dxmathsse.obj
 0001:00019750       ?sse_D3DXVec2CatmullRom@@YGPAUD3DXVECTOR2@@PAU1@PBU1@111M@Z 0041a750 f   d3dx8:d3dxmathsse.obj
 0001:000197e0       ?sse_D3DXVec4CatmullRom@@YGPAUD3DXVECTOR4@@PAU1@PBU1@111M@Z 0041a7e0 f   d3dx8:d3dxmathsse.obj
 0001:00019890       ?sse_D3DXVec3Hermite@@YGPAUD3DXVECTOR3@@PAU1@PBU1@111M@Z 0041a890 f   d3dx8:d3dxmathsse.obj
 0001:00019950       ?sse_D3DXVec4Hermite@@YGPAUD3DXVECTOR4@@PAU1@PBU1@111M@Z 0041a950 f   d3dx8:d3dxmathsse.obj
 0001:000199f0       ?sse_D3DXVec2Hermite@@YGPAUD3DXVECTOR2@@PAU1@PBU1@111M@Z 0041a9f0 f   d3dx8:d3dxmathsse.obj
 0001:00019a80       ?sse_D3DXVec3BaryCentric@@YGPAUD3DXVECTOR3@@PAU1@PBU1@11MM@Z 0041aa80 f   d3dx8:d3dxmathsse.obj
 0001:00019ae0       ?sse_D3DXVec4BaryCentric@@YGPAUD3DXVECTOR4@@PAU1@PBU1@11MM@Z 0041aae0 f   d3dx8:d3dxmathsse.obj
 0001:00019b30       ?sse_D3DXVec2BaryCentric@@YGPAUD3DXVECTOR2@@PAU1@PBU1@11MM@Z 0041ab30 f   d3dx8:d3dxmathsse.obj
 0001:00019b90       ?sse_D3DXPlaneIntersectLine@@YGPAUD3DXVECTOR3@@PAU1@PBUD3DXPLANE@@PBU1@2@Z 0041ab90 f   d3dx8:d3dxmathsse.obj
 0001:00019c50       ?sse_D3DXMatrixDeterminant@@YGMPBUD3DXMATRIX@@@Z 0041ac50 f   d3dx8:d3dxmathsse.obj
 0001:00019d20       ?sse_D3DXPlaneFromPoints@@YGPAUD3DXPLANE@@PAU1@PBUD3DXVECTOR3@@11@Z 0041ad20 f   d3dx8:d3dxmathsse.obj
 0001:00019e10       ?sse_D3DXMatrixShadow@@YGPAU_D3DMATRIX@@PAU1@PBUD3DXVECTOR4@@PBUD3DXPLANE@@@Z 0041ae10 f   d3dx8:d3dxmathsse.obj
 0001:00019fa0       ?sse_D3DXMatrixReflect@@YGPAUD3DXMATRIX@@PAU1@PBUD3DXPLANE@@@Z 0041afa0 f   d3dx8:d3dxmathsse.obj
 0001:0001a080       ?sse_D3DXQuaternionMultiply@@YGPAUD3DXQUATERNION@@PAU1@PBU1@1@Z 0041b080 f   d3dx8:d3dxquatsse.obj
 0001:0001a110       ?sse_D3DXQuaternionNormalize@@YGPAUD3DXQUATERNION@@PAU1@PBU1@@Z 0041b110 f   d3dx8:d3dxquatsse.obj
 0001:0001a1b0       ?sse_D3DXQuaternionInverse@@YGPAUD3DXQUATERNION@@PAU1@PBU1@@Z 0041b1b0 f   d3dx8:d3dxquatsse.obj
 0001:0001a220       ?sse_D3DXQuaternionRotationMatrix@@YGPAUD3DXQUATERNION@@PAU1@PBUD3DXMATRIX@@@Z 0041b220 f   d3dx8:d3dxquatsse.obj
 0001:0001a340       ?sse_D3DXQuaternionRotationYawPitchRoll@@YGPAUD3DXQUATERNION@@PAU1@MMM@Z 0041b340 f   d3dx8:d3dxquatsse.obj
 0001:0001a410       ?sse2_D3DXVec3TransformNormal@@YGPAUD3DXVECTOR3@@PAU1@PBU1@PBUD3DXMATRIX@@@Z 0041b410 f   d3dx8:d3dxmathsse2.obj
 0001:0001a4d0       ?sse2_D3DXVec3Transform@@YGPAUD3DXVECTOR4@@PAU1@PBUD3DXVECTOR3@@PBUD3DXMATRIX@@@Z 0041b4d0 f   d3dx8:d3dxmathsse2.obj
 0001:0001a590       ?sse2_D3DXVec3TransformCoord@@YGPAUD3DXVECTOR3@@PAU1@PBU1@PBUD3DXMATRIX@@@Z 0041b590 f   d3dx8:d3dxmathsse2.obj
 0001:0001a690       ?sse2_D3DXVec4Transform@@YGPAUD3DXVECTOR4@@PAU1@PBU1@PBUD3DXMATRIX@@@Z 0041b690 f   d3dx8:d3dxmathsse2.obj
 0001:0001a750       ?sse2_D3DXMatrixMultiply@@YGPAUD3DXMATRIX@@PAU1@PBU1@1@Z 0041b750 f   d3dx8:d3dxmathsse2.obj
 0001:0001a8a0       ?sse2_D3DXVec3Normalize@@YGPAUD3DXVECTOR3@@PAU1@PBU1@@Z 0041b8a0 f   d3dx8:d3dxmathsse2.obj
 0001:0001a970       ?sse2_D3DXPlaneNormalize@@YGPAUD3DXPLANE@@PAU1@PBU1@@Z 0041b970 f   d3dx8:d3dxmathsse2.obj
 0001:0001aa50       ?sse2_D3DXMatrixInverse@@YGPAUD3DXMATRIX@@PAU1@PAMPBU1@@Z 0041ba50 f   d3dx8:d3dxmathsse2.obj
 0001:0001ad10       ?sse2_D3DXMatrixMultiplyTranspose@@YGPAUD3DXMATRIX@@PAU1@PBU1@1@Z 0041bd10 f   d3dx8:d3dxmathsse2.obj
 0001:0001ae70       ?sse2_D3DXVec4Cross@@YGPAUD3DXVECTOR4@@PAU1@PBU1@11@Z 0041be70 f   d3dx8:d3dxmathsse2.obj
 0001:0001af20       ?sse2_D3DXMatrixRotationX@@YGPAUD3DXMATRIX@@PAU1@M@Z 0041bf20 f   d3dx8:d3dxmathsse2.obj
 0001:0001afa0       ?sse2_D3DXMatrixRotationY@@YGPAUD3DXMATRIX@@PAU1@M@Z 0041bfa0 f   d3dx8:d3dxmathsse2.obj
 0001:0001b030       ?sse2_D3DXMatrixDeterminant@@YGMPBUD3DXMATRIX@@@Z 0041c030 f   d3dx8:d3dxmathsse2.obj
 0001:0001b100       ?sse2_D3DXPlaneFromPoints@@YGPAUD3DXPLANE@@PAU1@PBUD3DXVECTOR3@@11@Z 0041c100 f   d3dx8:d3dxmathsse2.obj
 0001:0001b1f0       ?sse2_D3DXMatrixShadow@@YGPAU_D3DMATRIX@@PAU1@PBUD3DXVECTOR4@@PBUD3DXPLANE@@@Z 0041c1f0 f   d3dx8:d3dxmathsse2.obj
 0001:0001b380       ?sse2_D3DXMatrixReflect@@YGPAUD3DXMATRIX@@PAU1@PBUD3DXPLANE@@@Z 0041c380 f   d3dx8:d3dxmathsse2.obj
 0001:0001b460       ?sse2_D3DXQuaternionRotationMatrix@@YGPAUD3DXQUATERNION@@PAU1@PBUD3DXMATRIX@@@Z 0041c460 f   d3dx8:d3dxquatsse2.obj
 0001:0001b580       ?sse2_D3DXQuaternionRotationYawPitchRoll@@YGPAUD3DXQUATERNION@@PAU1@MMM@Z 0041c580 f   d3dx8:d3dxquatsse2.obj
 0001:0001b650       ?x3d_D3DXQuaternionMultiply@@YGPAUD3DXQUATERNION@@PAU1@PBU1@1@Z 0041c650 f   d3dx8:x3d_quat.obj
 0001:0001b6e9       ?x3d_D3DXQuaternionNormalize@@YGPAUD3DXQUATERNION@@PAU1@PBU1@@Z 0041c6e9 f   d3dx8:x3d_quat.obj
 0001:0001b746       ?x3d_D3DXQuaternionToAxisAngle@@YGXPBUD3DXQUATERNION@@PAUD3DXVECTOR3@@PAM@Z 0041c746 f   d3dx8:x3d_quat.obj
 0001:0001b7f9       ?x3d_D3DXQuaternionRotationMatrix@@YGPAUD3DXQUATERNION@@PAU1@PBUD3DXMATRIX@@@Z 0041c7f9 f   d3dx8:x3d_quat.obj
 0001:0001ba15       ?x3d_D3DXQuaternionRotationMatrix_K7@@YGPAUD3DXQUATERNION@@PAU1@PBUD3DXMATRIX@@@Z 0041ca15 f   d3dx8:x3d_quat.obj
 0001:0001bc2a       ?x3d_D3DXQuaternionRotationYawPitchRoll@@YGPAUD3DXQUATERNION@@PAU1@MMM@Z 0041cc2a f   d3dx8:x3d_quat.obj
 0001:0001bcef       ?x3d_D3DXQuaternionRotationAxis@@YGPAUD3DXQUATERNION@@PAU1@PBUD3DXVECTOR3@@M@Z 0041ccef f   d3dx8:x3d_quat.obj
 0001:0001bd5b       ?x3d_D3DXQuaternionSlerp@@YGPAUD3DXQUATERNION@@PAU1@PBU1@1M@Z 0041cd5b f   d3dx8:x3d_quat.obj
 0001:0001be92       ?x3d_D3DXQuaternionBaryCentric@@YGPAUD3DXQUATERNION@@PAU1@PBU1@11MM@Z 0041ce92 f   d3dx8:x3d_quat.obj
 0001:0001bf1f       ?x3d_D3DXQuaternionSquad@@YGPAUD3DXQUATERNION@@PAU1@PBU1@111M@Z 0041cf1f f   d3dx8:x3d_quat.obj
 0001:0001bfb1       ?x3d_D3DXQuaternionInverse@@YGPAUD3DXQUATERNION@@PAU1@PBU1@@Z 0041cfb1 f   d3dx8:x3d_quat.obj
 0001:0001c015       ?x3d_D3DXQuaternionLn@@YGPAUD3DXQUATERNION@@PAU1@PBU1@@Z 0041d015 f   d3dx8:x3d_quat.obj
 0001:0001c0bc       ?x3d_D3DXQuaternionExp@@YGPAUD3DXQUATERNION@@PAU1@PBU1@@Z 0041d0bc f   d3dx8:x3d_quat.obj
 0001:0001c161       ?x3d_D3DXQuaternionSquadSetup@@YGXPAUD3DXQUATERNION@@00PBU1@111@Z 0041d161 f   d3dx8:x3d_quat.obj
 0001:0001cbba       ?x3d_D3DXMatrixMultiply@@YGPAUD3DXMATRIX@@PAU1@PBU1@1@Z 0041dbba f   d3dx8:x3d_matx.obj
 0001:0001cdec       ?x3d_D3DXMatrixfDeterminant@@YGMPBUD3DXMATRIX@@@Z 0041ddec f   d3dx8:x3d_matx.obj
 0001:0001cebb       ?x3d_D3DXMatrixTranslation@@YGPAUD3DXMATRIX@@PAU1@MMM@Z 0041debb f   d3dx8:x3d_matx.obj
 0001:0001cf0b       ?x3d_D3DXMatrixShadow@@YGPAUD3DXMATRIX@@PAU1@PBUD3DXVECTOR4@@PBUD3DXPLANE@@@Z 0041df0b f   d3dx8:x3d_matx.obj
 0001:0001cff6       ?x3d_D3DXMatrixReflect@@YGPAUD3DXMATRIX@@PAU1@PBUD3DXPLANE@@@Z 0041dff6 f   d3dx8:x3d_matx.obj
 0001:0001d0d2       ?x3d_D3DXMatrixRotationX@@YGPAUD3DXMATRIX@@PAU1@M@Z 0041e0d2 f   d3dx8:x3d_matx.obj
 0001:0001d135       ?x3d_D3DXMatrixRotationY@@YGPAUD3DXMATRIX@@PAU1@M@Z 0041e135 f   d3dx8:x3d_matx.obj
 0001:0001d193       ?x3d_D3DXMatrixRotationZ@@YGPAUD3DXMATRIX@@PAU1@M@Z 0041e193 f   d3dx8:x3d_matx.obj
 0001:0001d1ec       ?x3d_D3DXMatrixScaling@@YGPAUD3DXMATRIX@@PAU1@MMM@Z 0041e1ec f   d3dx8:x3d_matx.obj
 0001:0001d233       ?x3d_D3DXMatrixTranspose@@YGPAUD3DXMATRIX@@PAU1@PBU1@@Z 0041e233 f   d3dx8:x3d_matx.obj
 0001:0001d2a2       ?x3d_D3DXMatrixIdentity@@YAPAUD3DXMATRIX@@PAU1@@Z 0041e2a2 f   d3dx8:x3d_matx.obj
 0001:0001d2db       ?x3d_D3DXMatrixRotationQuaternion@@YGPAUD3DXMATRIX@@PAU1@PBUD3DXQUATERNION@@@Z 0041e2db f   d3dx8:x3d_matx.obj
 0001:0001d3ad       ?x3d_D3DXMatrixRotationQuaternion_K7@@YGPAUD3DXMATRIX@@PAU1@PBUD3DXQUATERNION@@@Z 0041e3ad f   d3dx8:x3d_matx.obj
 0001:0001d462       ?x3d_D3DXMatrixTransformation@@YGPAUD3DXMATRIX@@PAU1@PBUD3DXVECTOR3@@PBUD3DXQUATERNION@@1121@Z 0041e462 f   d3dx8:x3d_matx.obj
 0001:0001e5fa       ?x3d_D3DXMatrixRotationYawPitchRoll@@YGPAUD3DXMATRIX@@PAU1@MMM@Z 0041f5fa f   d3dx8:x3d_matx.obj
 0001:0001e79f       ?x3d_D3DXMatrixAffineTransformation@@YGPAUD3DXMATRIX@@PAU1@MPBUD3DXVECTOR3@@PBUD3DXQUATERNION@@1@Z 0041f79f f   d3dx8:x3d_matx.obj
 0001:0001ecd3       ?x3d_D3DXMatrixRotationAxis@@YGPAUD3DXMATRIX@@PAU1@PBUD3DXVECTOR3@@M@Z 0041fcd3 f   d3dx8:x3d_matx.obj
 0001:0001edec       ?x3d_D3DXMatrixTransformation_K7@@YGPAUD3DXMATRIX@@PAU1@PBUD3DXVECTOR3@@PBUD3DXQUATERNION@@1121@Z 0041fdec f   d3dx8:x3d_matx.obj
 0001:0001ff40       ?x3d_D3DXMatrixInverse_K7@@YGPAUD3DXMATRIX@@PAU1@PAMPBU1@@Z 00420f40 f   d3dx8:x3d_matx.obj
 0001:00020222       ?x3d_D3DXMatrixMultiplyTranspose@@YGPAUD3DXMATRIX@@PAU1@PBU1@1@Z 00421222 f   d3dx8:x3d_matx.obj
 0001:0002061a       ?x3d_D3DXMatrixInverse_inline@@YGPAUD3DXMATRIX@@PAU1@PAMPBU1@@Z 0042161a f i d3dx8:x3d_matx.obj
 0001:0002094e       ?x3d_D3DXMatrixInverse@@YGPAUD3DXMATRIX@@PAU1@PAMPBU1@@Z 0042194e f   d3dx8:x3d_matx.obj
 0001:0002096a       ?x3d_D3DXVec3Transform@@YGPAUD3DXVECTOR4@@PAU1@PBUD3DXVECTOR3@@PBUD3DXMATRIX@@@Z 0042196a f   d3dx8:x3d_vec3.obj
 0001:000209db       ?x3d_D3DXVec3TransformNormal@@YGPAUD3DXVECTOR3@@PAU1@PBU1@PBUD3DXMATRIX@@@Z 004219db f   d3dx8:x3d_vec3.obj
 0001:00020a42       ?x3d_D3DXVec3Normalize@@YGPAUD3DXVECTOR3@@PAU1@PBU1@@Z 00421a42 f   d3dx8:x3d_vec3.obj
 0001:00020aa1       ?x3d_D3DXVec3BaryCentric@@YGPAUD3DXVECTOR3@@PAU1@PBU1@11MM@Z 00421aa1 f   d3dx8:x3d_vec3.obj
 0001:00020b12       ?x3d_D3DXVec3Hermite@@YGPAUD3DXVECTOR3@@PAU1@PBU1@111M@Z 00421b12 f   d3dx8:x3d_vec3.obj
 0001:00020be6       ?x3d_D3DXVec3CatmullRom@@YGPAUD3DXVECTOR3@@PAU1@PBU1@111M@Z 00421be6 f   d3dx8:x3d_vec3.obj
 0001:00020cd0       ?x3d_D3DXVec3TransformCoord_inline@@YGPAUD3DXVECTOR3@@PAU1@PBU1@PBUD3DXMATRIX@@@Z 00421cd0 f i d3dx8:x3d_vec3.obj
 0001:00020d5b       ?x3d_D3DXMatrixMultiply_inline@@YGPAUD3DXMATRIX@@PAU1@PBU1@1@Z 00421d5b f i d3dx8:x3d_vec3.obj
 0001:00020f22       ?x3d_D3DXVec3TransformCoord@@YGPAUD3DXVECTOR3@@PAU1@PBU1@PBUD3DXMATRIX@@@Z 00421f22 f   d3dx8:x3d_vec3.obj
 0001:00020f27       ?x3d_D3DXVec3Project@@YGPAUD3DXVECTOR3@@PAU1@PBU1@PBU_D3DVIEWPORT8@@PBUD3DXMATRIX@@33@Z 00421f27 f   d3dx8:x3d_vec3.obj
 0001:000210af       ?x3d_D3DXVec3Unproject@@YGPAUD3DXVECTOR3@@PAU1@PBU1@PBU_D3DVIEWPORT8@@PBUD3DXMATRIX@@33@Z 004220af f   d3dx8:x3d_vec3.obj
 0001:000212d5       ?x3d_D3DXVec3Unproject_K7@@YGPAUD3DXVECTOR3@@PAU1@PBU1@PBU_D3DVIEWPORT8@@PBUD3DXMATRIX@@33@Z 004222d5 f   d3dx8:x3d_vec3.obj
 0001:00021428       ?x3d_D3DXVec2Transform@@YGPAUD3DXVECTOR4@@PAU1@PBUD3DXVECTOR2@@PBUD3DXMATRIX@@@Z 00422428 f   d3dx8:x3d_vec2.obj
 0001:0002147d       ?x3d_D3DXVec2TransformNormal@@YGPAUD3DXVECTOR2@@PAU1@PBU1@PBUD3DXMATRIX@@@Z 0042247d f   d3dx8:x3d_vec2.obj
 0001:000214b6       ?x3d_D3DXVec2TransformCoord@@YGPAUD3DXVECTOR2@@PAU1@PBU1@PBUD3DXMATRIX@@@Z 004224b6 f   d3dx8:x3d_vec2.obj
 0001:0002151a       ?x3d_D3DXVec2Hermite@@YGPAUD3DXVECTOR2@@PAU1@PBU1@111M@Z 0042251a f   d3dx8:x3d_vec2.obj
 0001:000215b2       ?x3d_D3DXVec2BaryCentric@@YGPAUD3DXVECTOR2@@PAU1@PBU1@11MM@Z 004225b2 f   d3dx8:x3d_vec2.obj
 0001:000215fb       ?x3d_D3DXVec2Normalize@@YGPAUD3DXVECTOR2@@PAU1@PBU1@@Z 004225fb f   d3dx8:x3d_vec2.obj
 0001:0002163e       ?x3d_D3DXVec2CatmullRom@@YGPAUD3DXVECTOR2@@PAU1@PBU1@111M@Z 0042263e f   d3dx8:x3d_vec2.obj
 0001:000216e9       ?x3d_D3DXVec4Transform@@YGPAUD3DXVECTOR4@@PAU1@PBU1@PBUD3DXMATRIX@@@Z 004226e9 f   d3dx8:x3d_vec4.obj
 0001:0002176b       ?x3d_D3DXVec4Normalize@@YGPAUD3DXVECTOR4@@PAU1@PBU1@@Z 0042276b f   d3dx8:x3d_vec4.obj
 0001:000217ca       ?x3d_D3DXVec4Cross@@YGPAUD3DXVECTOR4@@PAU1@PBU1@11@Z 004227ca f   d3dx8:x3d_vec4.obj
 0001:000218fc       ?x3d_D3DXVec4BaryCentric@@YGPAUD3DXVECTOR4@@PAU1@PBU1@11MM@Z 004228fc f   d3dx8:x3d_vec4.obj
 0001:0002196d       ?x3d_D3DXVec4Hermite@@YGPAUD3DXVECTOR4@@PAU1@PBU1@111M@Z 0042296d f   d3dx8:x3d_vec4.obj
 0001:00021a35       ?x3d_D3DXVec4CatmullRom@@YGPAUD3DXVECTOR4@@PAU1@PBU1@111M@Z 00422a35 f   d3dx8:x3d_vec4.obj
 0001:00021b13       ?x3d_D3DXPlaneFromPointNormal@@YGPAUD3DXPLANE@@PAU1@PBUD3DXVECTOR3@@1@Z 00422b13 f   d3dx8:x3d_plane.obj
 0001:00021b56       ?x3d_D3DXPlaneFromPoints@@YGPAUD3DXPLANE@@PAU1@PBUD3DXVECTOR3@@11@Z 00422b56 f   d3dx8:x3d_plane.obj
 0001:00021c3a       ?x3d_D3DXPlaneIntersectLine@@YGPAUD3DXVECTOR3@@PAU1@PBUD3DXPLANE@@PBU1@2@Z 00422c3a f   d3dx8:x3d_plane.obj
 0001:00021cf8       ?x3d_D3DXPlaneNormalize@@YGPAUD3DXPLANE@@PAU1@PBU1@@Z 00422cf8 f   d3dx8:x3d_plane.obj
 0001:00021d5c       ?x3d_D3DXPlaneTransform@@YGPAUD3DXPLANE@@PAU1@PBU1@PBUD3DXMATRIX@@@Z 00422d5c f   d3dx8:x3d_plane.obj
 0001:00021dda       ?jdiv_round_up@D3DX@@YAJJJ@Z 00422dda f   d3dx8:jutils.obj
 0001:00021dea       ?jround_up@D3DX@@YAJJJ@Z   00422dea f   d3dx8:jutils.obj
 0001:00021e02       ?jcopy_sample_rows@D3DX@@YAXPAPAEH0HHI@Z 00422e02 f   d3dx8:jutils.obj
 0001:00021e49       ?jcopy_block_row@D3DX@@YAXPAY0EA@F0I@Z 00422e49 f   d3dx8:jutils.obj
 0001:00021e6b       ?jzero_far@D3DX@@YAXPAXI@Z 00422e6b f   d3dx8:jutils.obj
 0001:00021e86       ?IsMMX@D3DX@@YAHXZ         00422e86 f   d3dx8:jutils.obj
 0001:00022390       ?jinit_input_controller@D3DX@@YAXPAUjpeg_decompress_struct@1@@Z 00423390 f   d3dx8:jdinput.obj
 0001:00022d46       ?jinit_memory_mgr@D3DX@@YAXPAUjpeg_common_struct@1@@Z 00423d46 f   d3dx8:jmemmgr.obj
 0001:00022dfa       ?jpeg_abort@D3DX@@YAXPAUjpeg_common_struct@1@@Z 00423dfa f   d3dx8:jcomapi.obj
 0001:00022e1c       ?jpeg_destroy@D3DX@@YAXPAUjpeg_common_struct@1@@Z 00423e1c f   d3dx8:jcomapi.obj
 0001:00022e37       ?jpeg_alloc_quant_table@D3DX@@YAPAUJQUANT_TBL@1@PAUjpeg_common_struct@1@@Z 00423e37 f   d3dx8:jcomapi.obj
 0001:00022e53       ?jpeg_alloc_huff_table@D3DX@@YAPAUJHUFF_TBL@1@PAUjpeg_common_struct@1@@Z 00423e53 f   d3dx8:jcomapi.obj
 0001:00022ee0       ?jpeg_calc_output_dimensions@D3DX@@YAXPAUjpeg_decompress_struct@1@@Z 00423ee0 f   d3dx8:jdmaster.obj
 0001:00023439       ?jinit_master_decompress@D3DX@@YAXPAUjpeg_decompress_struct@1@@Z 00424439 f   d3dx8:jdmaster.obj
 0001:00023469       ?inflateReset@D3DX@@YAHPAUz_stream_s@1@@Z 00424469 f   d3dx8:inflate.obj
 0001:000234a8       ?inflateEnd@D3DX@@YAHPAUz_stream_s@1@@Z 004244a8 f   d3dx8:inflate.obj
 0001:000234e6       ?inflateInit2_@D3DX@@YAHPAUz_stream_s@1@HPBDH@Z 004244e6 f   d3dx8:inflate.obj
 0001:000235cb       ?inflateInit_@D3DX@@YAHPAUz_stream_s@1@PBDH@Z 004245cb f   d3dx8:inflate.obj
 0001:000235e2       ?inflate@D3DX@@YAHPAUz_stream_s@1@H@Z 004245e2 f   d3dx8:inflate.obj
 0001:00023949       ?png_create_struct@D3DX@@YAPAXH@Z 00424949 f   d3dx8:pngmem.obj
 0001:0002398b       ?png_destroy_struct@D3DX@@YAXPAX@Z 0042498b f   d3dx8:pngmem.obj
 0001:00023998       ?png_malloc@D3DX@@YAPAXPAUpng_struct_def@1@K@Z 00424998 f   d3dx8:pngmem.obj
 0001:000239ce       ?png_free@D3DX@@YAXPAUpng_struct_def@1@PAX@Z 004249ce f   d3dx8:pngmem.obj
 0001:000239e7       ?png_memcpy_check@D3DX@@YAPAXPAUpng_struct_def@1@PAX1K@Z 004249e7 f   d3dx8:pngmem.obj
 0001:00023a0a       ?png_memset_check@D3DX@@YAPAXPAUpng_struct_def@1@PAXHK@Z 00424a0a f   d3dx8:pngmem.obj
 0001:00023a3b       ?png_get_uint_32@D3DX@@YAKPAE@Z 00424a3b f   d3dx8:pngrutil.obj
 0001:00023a5e       ?png_crc_read@D3DX@@YAXPAUpng_struct_def@1@PAEI@Z 00424a5e f   d3dx8:pngrutil.obj
 0001:00023a78       ?png_crc_error@D3DX@@YAHPAUpng_struct_def@1@@Z 00424a78 f   d3dx8:pngrutil.obj
 0001:00023ad6       ?png_check_chunk_name@D3DX@@YAXPAUpng_struct_def@1@PAE@Z 00424ad6 f   d3dx8:pngrutil.obj
 0001:00023b38       ?png_combine_row@D3DX@@YAXPAUpng_struct_def@1@PAEH@Z 00424b38 f   d3dx8:pngrutil.obj
 0001:00023d4e       ?png_do_read_interlace@D3DX@@YAXPAUpng_row_info_struct@1@PAEHK@Z 00424d4e f   d3dx8:pngrutil.obj
 0001:00024017       ?png_read_filter_row@D3DX@@YAXPAUpng_struct_def@1@PAUpng_row_info_struct@1@PAE2H@Z 00425017 f   d3dx8:pngrutil.obj
 0001:00024192       ?png_read_start_row@D3DX@@YAXPAUpng_struct_def@1@@Z 00425192 f   d3dx8:pngrutil.obj
 0001:0002432e       ?png_crc_finish@D3DX@@YAHPAUpng_struct_def@1@K@Z 0042532e f   d3dx8:pngrutil.obj
 0001:000243ba       ?png_handle_IHDR@D3DX@@YAXPAUpng_struct_def@1@PAUpng_info_struct@1@K@Z 004253ba f   d3dx8:pngrutil.obj
 0001:000245b0       ?png_handle_PLTE@D3DX@@YAXPAUpng_struct_def@1@PAUpng_info_struct@1@K@Z 004255b0 f   d3dx8:pngrutil.obj
 0001:000246da       ?png_handle_IEND@D3DX@@YAXPAUpng_struct_def@1@PAUpng_info_struct@1@K@Z 004256da f   d3dx8:pngrutil.obj
 0001:00024724       ?png_handle_gAMA@D3DX@@YAXPAUpng_struct_def@1@PAUpng_info_struct@1@K@Z 00425724 f   d3dx8:pngrutil.obj
 0001:0002482f       ?png_handle_sRGB@D3DX@@YAXPAUpng_struct_def@1@PAUpng_info_struct@1@K@Z 0042582f f   d3dx8:pngrutil.obj
 0001:0002491e       ?png_handle_tRNS@D3DX@@YAXPAUpng_struct_def@1@PAUpng_info_struct@1@K@Z 0042591e f   d3dx8:pngrutil.obj
 0001:00024ad5       ?png_handle_unknown@D3DX@@YAXPAUpng_struct_def@1@PAUpng_info_struct@1@K@Z 00425ad5 f   d3dx8:pngrutil.obj
 0001:00024b1f       ?png_read_finish_row@D3DX@@YAXPAUpng_struct_def@1@@Z 00425b1f f   d3dx8:pngrutil.obj
 0001:00024d43       ?crc32@D3DX@@YAKKPBEI@Z    00425d43 f   d3dx8:crc32.obj
 0001:00024e50       ?sse_SinCos4@@YAXQBMQAM1@Z 00425e50 f   d3dx8:d3dxtrigsse.obj
 0001:00025040       ?sse2_sincos@@YG_K_K@Z     00426040 f   d3dx8:d3dxtrigsse2.obj
 0001:00025130       ?sse2_SinCos4@@YAXQBMQAM1@Z 00426130 f   d3dx8:d3dxtrigsse2.obj
 0001:00025280       _a_atan                    00426280 f   d3dx8:math.obj
 0001:00025340       _a_atan2                   00426340 f   d3dx8:math.obj
 0001:00025440       _a_acos                    00426440 f   d3dx8:math.obj
 0001:00025540       _a_asin                    00426540 f   d3dx8:math.obj
 0001:00025640       _a_log                     00426640 f   d3dx8:math.obj
 0001:00025740       _a_log10                   00426740 f   d3dx8:math.obj
 0001:00025760       _a_exp                     00426760 f   d3dx8:math.obj
 0001:00025840       _a_sqrt                    00426840 f   d3dx8:math.obj
 0001:00025860       _a_fabs                    00426860 f   d3dx8:math.obj
 0001:00025880       _a_ceil                    00426880 f   d3dx8:math.obj
 0001:000258c0       _a_floor                   004268c0 f   d3dx8:math.obj
 0001:00025900       _a_frexp                   00426900 f   d3dx8:math.obj
 0001:00025940       _a_ldexp                   00426940 f   d3dx8:math.obj
 0001:000259a0       _a_modf                    004269a0 f   d3dx8:math.obj
 0001:000259c0       _a_fmod                    004269c0 f   d3dx8:math.obj
 0001:00025a20       _a_sincos                  00426a20 f   d3dx8:math.obj
 0001:00025a20       _a_cos                     00426a20 f   d3dx8:math.obj
 0001:00025b40       _a_sin                     00426b40 f   d3dx8:math.obj
 0001:00025c60       _a_tan                     00426c60 f   d3dx8:math.obj
 0001:00025da0       _a_pow                     00426da0 f   d3dx8:math.obj
 0001:00025f38       ?jpeg_get_small@D3DX@@YAPAXPAUjpeg_common_struct@1@I@Z 00426f38 f   d3dx8:jmemnobs.obj
 0001:00025f43       ?jpeg_free_small@D3DX@@YAXPAUjpeg_common_struct@1@PAXI@Z 00426f43 f   d3dx8:jmemnobs.obj
 0001:00025f4e       ?jpeg_get_large@D3DX@@YAPAXPAUjpeg_common_struct@1@I@Z 00426f4e f   d3dx8:jmemnobs.obj
 0001:00025f59       ?jpeg_free_large@D3DX@@YAXPAUjpeg_common_struct@1@PAXI@Z 00426f59 f   d3dx8:jmemnobs.obj
 0001:00025f64       ?jpeg_mem_available@D3DX@@YAJPAUjpeg_common_struct@1@JJJ@Z 00426f64 f   d3dx8:jmemnobs.obj
 0001:00025f69       ?jpeg_open_backing_store@D3DX@@YAXPAUjpeg_common_struct@1@PAUbacking_store_struct@1@J@Z 00426f69 f   d3dx8:jmemnobs.obj
 0001:00025f7d       ?jpeg_mem_init@D3DX@@YAJPAUjpeg_common_struct@1@@Z 00426f7d f   d3dx8:jmemnobs.obj
 0001:00025f80       ?jpeg_mem_term@D3DX@@YAXPAUjpeg_common_struct@1@@Z 00426f80 f   d3dx8:jmemnobs.obj
 0001:000264bf       ?jinit_d_main_controller@D3DX@@YAXPAUjpeg_decompress_struct@1@E@Z 004274bf f   d3dx8:jdmainct.obj
 0001:000270fe       ?jinit_d_coef_controller@D3DX@@YAXPAUjpeg_decompress_struct@1@E@Z 004280fe f   d3dx8:jdcoefct.obj
 0001:000271f6       ?jpeg_make_d_derived_tbl@D3DX@@YAXPAUjpeg_decompress_struct@1@PAUJHUFF_TBL@1@PAPAUd_derived_tbl@1@@Z 004281f6 f   d3dx8:jdhuff.obj
 0001:000273a0       ?jpeg_fill_bit_buffer@D3DX@@YAEPAUbitread_working_state@1@JHH@Z 004283a0 f   d3dx8:jdhuff.obj
 0001:0002748a       ?jpeg_huff_decode@D3DX@@YAHPAUbitread_working_state@1@JHPAUd_derived_tbl@1@H@Z 0042848a f   d3dx8:jdhuff.obj
 0001:00027ace       ?jinit_huff_decoder@D3DX@@YAXPAUjpeg_decompress_struct@1@@Z 00428ace f   d3dx8:jdhuff.obj
 0001:0002867c       ?jinit_phuff_decoder@D3DX@@YAXPAUjpeg_decompress_struct@1@@Z 0042967c f   d3dx8:jdphuff.obj
 0001:00028894       ?jinit_inverse_dct@D3DX@@YAXPAUjpeg_decompress_struct@1@@Z 00429894 f   d3dx8:jddctmgr.obj
 0001:00028b2f       ?jinit_d_post_controller@D3DX@@YAXPAUjpeg_decompress_struct@1@E@Z 00429b2f f   d3dx8:jdpostct.obj
 0001:00028fee       ?jinit_upsampler@D3DX@@YAXPAUjpeg_decompress_struct@1@@Z 00429fee f   d3dx8:jdsample.obj
 0001:00029420       ?MYCbCr2RGB@D3DX@@YAXHPAE000@Z 0042a420 f   d3dx8:jdcolor.obj
 0001:0002977a       ?jinit_color_deconverter@D3DX@@YAXPAUjpeg_decompress_struct@1@@Z 0042a77a f   d3dx8:jdcolor.obj
 0001:00029d73       ?jinit_merged_upsampler@D3DX@@YAXPAUjpeg_decompress_struct@1@@Z 0042ad73 f   d3dx8:jdmerge.obj
 0001:0002ace9       ?jinit_2pass_quantizer@D3DX@@YAXPAUjpeg_decompress_struct@1@@Z 0042bce9 f   d3dx8:jquant2.obj
 0001:0002b77c       ?jinit_1pass_quantizer@D3DX@@YAXPAUjpeg_decompress_struct@1@@Z 0042c77c f   d3dx8:jquant1.obj
 0001:0002b803       ?inflate_blocks_reset@D3DX@@YAXPAUinflate_blocks_state@1@PAUz_stream_s@1@PAK@Z 0042c803 f   d3dx8:infblock.obj
 0001:0002b86e       ?inflate_blocks_new@D3DX@@YAPAUinflate_blocks_state@1@PAUz_stream_s@1@P6AKKPBEI@ZI@Z 0042c86e f   d3dx8:infblock.obj
 0001:0002b8fb       ?inflate_blocks@D3DX@@YAHPAUinflate_blocks_state@1@PAUz_stream_s@1@H@Z 0042c8fb f   d3dx8:infblock.obj
 0001:0002c096       ?inflate_blocks_free@D3DX@@YAHPAUinflate_blocks_state@1@PAUz_stream_s@1@@Z 0042d096 f   d3dx8:infblock.obj
 0001:0002c0ca       ?adler32@D3DX@@YAKKPBEI@Z  0042d0ca f   d3dx8:adler32.obj
 0001:0002c1e3       ?zcalloc@D3DX@@YAPAXPAXII@Z 0042d1e3 f   d3dx8:zutil.obj
 0001:0002c1f3       ?zcfree@D3DX@@YAXPAX0@Z    0042d1f3 f   d3dx8:zutil.obj
 0001:0002c1fe       ?jpeg_idct_4x4@D3DX@@YAXPAUjpeg_decompress_struct@1@PAUjpeg_component_info@1@PAFPAPAEI@Z 0042d1fe f   d3dx8:jidctred.obj
 0001:0002c513       ?jpeg_idct_2x2@D3DX@@YAXPAUjpeg_decompress_struct@1@PAUjpeg_component_info@1@PAFPAPAEI@Z 0042d513 f   d3dx8:jidctred.obj
 0001:0002c6d1       ?jpeg_idct_1x1@D3DX@@YAXPAUjpeg_decompress_struct@1@PAUjpeg_component_info@1@PAFPAPAEI@Z 0042d6d1 f   d3dx8:jidctred.obj
 0001:0002c70e       ?jpeg_idct_islow@D3DX@@YAXPAUjpeg_decompress_struct@1@PAUjpeg_component_info@1@PAFPAPAEI@Z 0042d70e f   d3dx8:jidctint.obj
 0001:0002c75a       ?jpeg_idct_ifast@D3DX@@YAXPAUjpeg_decompress_struct@1@PAUjpeg_component_info@1@PAFPAPAEI@Z 0042d75a f   d3dx8:jidctfst.obj
 0001:0002c7a6       ?jpeg_idct_float@D3DX@@YAXPAUjpeg_decompress_struct@1@PAUjpeg_component_info@1@PAFPAPAEI@Z 0042d7a6 f   d3dx8:jidctflt.obj
 0001:0002cb87       ?inflate_codes_new@D3DX@@YAPAUinflate_codes_state@1@IIPAUinflate_huft_s@1@0PAUz_stream_s@1@@Z 0042db87 f   d3dx8:infcodes.obj
 0001:0002cbbb       ?inflate_codes@D3DX@@YAHPAUinflate_blocks_state@1@PAUz_stream_s@1@H@Z 0042dbbb f   d3dx8:infcodes.obj
 0001:0002d11f       ?inflate_codes_free@D3DX@@YAXPAUinflate_codes_state@1@PAUz_stream_s@1@@Z 0042e11f f   d3dx8:infcodes.obj
 0001:0002d4b5       ?inflate_trees_bits@D3DX@@YAHPAI0PAPAUinflate_huft_s@1@PAU21@PAUz_stream_s@1@@Z 0042e4b5 f   d3dx8:inftrees.obj
 0001:0002d534       ?inflate_trees_dynamic@D3DX@@YAHIIPAI00PAPAUinflate_huft_s@1@1PAU21@PAUz_stream_s@1@@Z 0042e534 f   d3dx8:inftrees.obj
 0001:0002d637       ?inflate_trees_fixed@D3DX@@YAHPAI0PAPAUinflate_huft_s@1@1PAUz_stream_s@1@@Z 0042e637 f   d3dx8:inftrees.obj
 0001:0002d666       ?inflate_flush@D3DX@@YAHPAUinflate_blocks_state@1@PAUz_stream_s@1@H@Z 0042e666 f   d3dx8:infutil.obj
 0001:0002d77b       ?pidct8x8llm@D3DX@@YAXPAF00PAPAEIPAE@Z 0042e77b f   d3dx8:piint.obj
 0001:0002dbdd       ?midct8x8llm@D3DX@@YAXPAF00PAPAEIPAE@Z 0042ebdd f   d3dx8:miint.obj
 0001:0002e295       ?pidct8x8aan@D3DX@@YAXPAF00PAPAEIPAE@Z 0042f295 f   d3dx8:pifst.obj
 0001:0002e5f0       ?midct8x8aan@D3DX@@YAXPAF00PAPAEIPAE@Z 0042f5f0 f   d3dx8:mifst.obj
 0001:0002f3c3       ?inflate_fast@D3DX@@YAHIIPAUinflate_huft_s@1@0PAUinflate_blocks_state@1@PAUz_stream_s@1@@Z 004303c3 f   d3dx8:inffast.obj
 0001:00032660       ??$_Buynode@ABQAVCActionState@@@?$_List_buy@PAVCActionState@@V?$allocator@PAVCActionState@@@std@@@std@@QAEPAU?$_List_node@PAVCActionState@@PAX@1@PAU21@0ABQAVCActionState@@@Z 00433660 f i Actor.obj
 0001:000326e0       ??$_Emplace_reallocate@ABQAVCServerHarm@@@?$vector@PAVCServerHarm@@V?$allocator@PAVCServerHarm@@@std@@@std@@QAEPAPAVCServerHarm@@QAPAV2@ABQAV2@@Z 004336e0 f i Actor.obj
 0001:000328a0       ??0CActor@@QAE@PAVCCharacter@@@Z 004338a0 f   Actor.obj
 0001:00032960       ??0CMissionTrigger@@QAE@XZ 00433960 f   Actor.obj
 0001:000329d0       ??0CMonsterItem@@QAE@XZ    004339d0 f   Actor.obj
 0001:00032a30       ??1?$_List_alloc@U?$_List_base_types@PAVCActionState@@V?$allocator@PAVCActionState@@@std@@@std@@@std@@QAE@XZ 00433a30 f i Actor.obj
 0001:00032a70       ??1?$_List_buy@PAVCActionState@@V?$allocator@PAVCActionState@@@std@@@std@@QAE@XZ 00433a70 f i Actor.obj
 0001:00032ac0       ??1?$basic_string@DU?$char_traits@D@std@@V?$allocator@D@2@@std@@QAE@XZ 00433ac0 f i Actor.obj
 0001:00032b40       ??1?$list@PAVCActionState@@V?$allocator@PAVCActionState@@@std@@@std@@QAE@XZ 00433b40 f i Actor.obj
 0001:00032bc0       ??1?$vector@PAVCActorDie@@V?$allocator@PAVCActorDie@@@std@@@std@@QAE@XZ 00433bc0 f i Actor.obj
 0001:00032c50       ??1?$vector@PAVCServerHarm@@V?$allocator@PAVCServerHarm@@@std@@@std@@QAE@XZ 00433c50 f i Actor.obj
 0001:00032ce0       ??1CActor@@QAE@XZ          00433ce0 f   Actor.obj
 0001:00032d60       ??1CActorDie@@UAE@XZ       00433d60 f i Actor.obj
 0001:00032d70       ??_GCActorDie@@UAEPAXI@Z   00433d70 f i Actor.obj
 0001:00032d70       ??_ECActorDie@@UAEPAXI@Z   00433d70 f i Actor.obj
 0001:00032da0       ??_GCMissionTrigger@@UAEPAXI@Z 00433da0 f i Actor.obj
 0001:00032da0       ??_ECMissionTrigger@@UAEPAXI@Z 00433da0 f i Actor.obj
 0001:00032e30       ??_ECMonsterItem@@UAEPAXI@Z 00433e30 f i Actor.obj
 0001:00032e30       ??_GCMonsterItem@@UAEPAXI@Z 00433e30 f i Actor.obj
 0001:00032ea0       ??_H@YGXPAXIIP6EPAX0@Z@Z   00433ea0 f i Actor.obj
 0001:00032ed0       ?AddState@CActor@@QAE_NPAVCActionState@@@Z 00433ed0 f   Actor.obj
 0001:00032f70       ?CancelState@CActor@@QAEXXZ 00433f70 f   Actor.obj
 0001:00032f90       ?ClearQueueState@CActor@@QAEXXZ 00433f90 f   Actor.obj
 0001:00032fe0       ?CreateHarmMgr@CActor@@QAEPAVCServerHarm@@XZ 00433fe0 f   Actor.obj
 0001:000330b0       ?Exec@CActorDie@@UAEXXZ    004340b0 f i Actor.obj
 0001:000330c0       ?Exec@CMissionTrigger@@UAEXXZ 004340c0 f   Actor.obj
 0001:000331b0       ?Exec@CMonsterItem@@UAEXXZ 004341b0 f   Actor.obj
 0001:000332f0       ?ExecAllNet@CActor@@QAEXXZ 004342f0 f   Actor.obj
 0001:00033380       ?ExecDied@CActor@@QAEXXZ   00434380 f   Actor.obj
 0001:000333d0       ?FailedAction@CActor@@QAEXXZ 004343d0 f   Actor.obj
 0001:00033400       ?FindHarm@CActor@@QAEPAVCServerHarm@@H@Z 00434400 f   Actor.obj
 0001:00033430       ?FindStateClass@CActor@@QAEPAVCActionState@@ABVtype_info@@@Z 00434430 f   Actor.obj
 0001:000334b0       ?FrameMove@CActor@@QAEXK@Z 004344b0 f   Actor.obj
 0001:000335c0       ?GetNextState@CActor@@QAEPAVCActionState@@XZ 004345c0 f   Actor.obj
 0001:000335e0       ?IdleState@CActor@@QAEXXZ  004345e0 f   Actor.obj
 0001:00033660       ?InsertState@CActor@@QAE_NPAVCActionState@@_N@Z 00434660 f   Actor.obj
 0001:00033700       ?OverAllState@CActor@@QAEXXZ 00434700 f   Actor.obj
 0001:00033720       ?PlayPose@CActor@@QAEXH_N0@Z 00434720 f   Actor.obj
 0001:00033830       ?SetData@CMissionTrigger@@QAEXAAUstNetNpcMission@@@Z 00434830 f   Actor.obj
 0001:00033850       ?SetState@CActor@@QAEXW4eActorState@@@Z 00434850 f   Actor.obj
 0001:000338b0       ?Stop@CActor@@QAEXXZ       004348b0 f   Actor.obj
 0001:000338d0       ?SwitchState@CActor@@QAE_NPAVCActionState@@@Z 004348d0 f   Actor.obj
 0001:00033980       ?_Buynode0@?$_List_alloc@U?$_List_base_types@PAVCActionState@@V?$allocator@PAVCActionState@@@std@@@std@@@std@@QAEPAU?$_List_node@PAVCActionState@@PAX@2@PAU32@0@Z 00434980 f i Actor.obj
 0001:00033a10       ?_Xlength@?$vector@PAVCServerHarm@@V?$allocator@PAVCServerHarm@@@std@@@std@@CAXXZ 00434a10 f i Actor.obj
 0001:00033a20       ?__empty_global_delete@@YAXPAXI@Z 00434a20 f i Actor.obj
 0001:00033a20       ?__global_array_delete@@YAXPAXI@Z 00434a20 f i Actor.obj
 0001:00033a20       ?__global_delete@@YAXPAXI@Z 00434a20 f i Actor.obj
 0001:00033a30       ?deallocate@?$allocator@PAVCServerHarm@@@std@@QAEXQAPAVCServerHarm@@I@Z 00434a30 f i Actor.obj
 0001:00033a70       ?deallocate@?$allocator@U?$_List_node@PAVCActionState@@PAX@std@@@std@@QAEXQAU?$_List_node@PAVCActionState@@PAX@2@I@Z 00434a70 f i Actor.obj
 0001:00033ab0       ?push_back@?$list@PAVCActionState@@V?$allocator@PAVCActionState@@@std@@@std@@QAEXABQAVCActionState@@@Z 00434ab0 f i Actor.obj
 0001:00033b00       ?big_apple@@YAHXZ          00434b00 f i Algo.obj
 0001:00033b80       ?exit_lua@@YAXPAUlua_State@@@Z 00434b80 f   Algo.obj
 0001:00033b90       ?init_lua@@YAPAUlua_State@@XZ 00434b90 f   Algo.obj
 0001:00033ce0       ?load_luc@@YAHPAUlua_State@@PBD@Z 00434ce0 f   Algo.obj
 0001:00033da0       ?lua_cat_fish@@YAHPAUlua_State@@@Z 00434da0 f   Algo.obj
 0001:00033e80       ?lua_dog_blog@@YAHPAUlua_State@@@Z 00434e80 f   Algo.obj
 0001:00033f10       ?lua_dog_brog@@YAHPAUlua_State@@@Z 00434f10 f   Algo.obj
 0001:00033fa0       ?lua_fox_boff@@YAHPAUlua_State@@@Z 00434fa0 f   Algo.obj
 0001:00034030       ___local_stdio_printf_options 00435030 f i Algo.obj
 0001:00034040       _fprintf                   00435040 f i Algo.obj
 0001:00034070       _printf                    00435070 f i Algo.obj
 0001:000340a0       ?GP_GotoScene@@YAHH@Z      004350a0 f   AppScript.obj
 0001:00034100       ?GP_SetCameraPos@@YAHMMMMMM@Z 00435100 f   AppScript.obj
 0001:00034160       ?LoadScriptScene@CGameApp@@QAEXW4eSceneType@@@Z 00435160 f   AppScript.obj
 0001:000341d0       ?MPInitLua_App@@YAXXZ      004351d0 f   AppScript.obj
 0001:00034210       ?FrameMove@CArcTrack@@QAEXXZ 00435210 f   ArcTrack.obj
 0001:00034370       ?Start@CArcTrack@@QAEXABUD3DXVECTOR3@@0MM@Z 00435370 f   ArcTrack.obj
 0001:00034400       ??0CAutoAttack@@QAE@PAVCMouseDown@@@Z 00435400 f   AutoAttack.obj
 0001:00034440       ?AttackMoveTo@CAutoAttack@@QAE_NHH@Z 00435440 f   AutoAttack.obj
 0001:00034480       ?AttackStart@CAutoAttack@@QAE_NPAVCCharacter@@PAVCSkillRecord@@0@Z 00435480 f   AutoAttack.obj
 0001:00034560       ?AttackStart@CAutoAttack@@QAE_NPAVCCharacter@@PAVCSkillRecord@@HH@Z 00435560 f   AutoAttack.obj
 0001:00034650       ?Follow@CAutoAttack@@QAE_NPAVCCharacter@@0@Z 00435650 f   AutoAttack.obj
 0001:000346f0       ?FrameMove@CAutoAttack@@QAEXXZ 004356f0 f   AutoAttack.obj
 0001:000349d0       ?GetDistance@@YAH_J000@Z   004359d0 f i AutoAttack.obj
 0001:00034a30       ?Reset@CAutoAttack@@QAEXXZ 00435a30 f   AutoAttack.obj
 0001:00034a60       ?_CaleDist@CAutoAttack@@AAEXXZ 00435a60 f   AutoAttack.obj
 0001:00034ab0       ??$_Buynode@ABUD3DXVECTOR2@@@?$_List_buy@UD3DXVECTOR2@@V?$allocator@UD3DXVECTOR2@@@std@@@std@@QAEPAU?$_List_node@UD3DXVECTOR2@@PAX@1@PAU21@0ABUD3DXVECTOR2@@@Z 00435ab0 f i CameraCtrl.obj
 0001:00034b40       ??0CCameraCtrl@@QAE@XZ     00435b40 f   CameraCtrl.obj
 0001:00034d20       ??0Camera@Ninja@@QAE@PAV?$Controller@UD3DXVECTOR3@@@1@PAV?$Controller@USphereCoord@Ninja@@@1@@Z 00435d20 f   CameraCtrl.obj
 0001:00034d90       ??1?$_List_alloc@U?$_List_base_types@MV?$allocator@M@std@@@std@@@std@@QAE@XZ 00435d90 f i CameraCtrl.obj
 0001:00034dd0       ??1?$_List_alloc@U?$_List_base_types@UD3DXVECTOR2@@V?$allocator@UD3DXVECTOR2@@@std@@@std@@@std@@QAE@XZ 00435dd0 f i CameraCtrl.obj
 0001:00034e10       ??1?$_List_buy@MV?$allocator@M@std@@@std@@QAE@XZ 00435e10 f i CameraCtrl.obj
 0001:00034e60       ??1?$_List_buy@UD3DXVECTOR2@@V?$allocator@UD3DXVECTOR2@@@std@@@std@@QAE@XZ 00435e60 f i CameraCtrl.obj
 0001:00034eb0       ??1?$list@MV?$allocator@M@std@@@std@@QAE@XZ 00435eb0 f i CameraCtrl.obj
 0001:00034f30       ??1?$list@UD3DXVECTOR2@@V?$allocator@UD3DXVECTOR2@@@std@@@std@@QAE@XZ 00435f30 f i CameraCtrl.obj
 0001:00034fb0       ??1CCameraCtrl@@QAE@XZ     00435fb0 f   CameraCtrl.obj
 0001:00035030       ?AddPoint@CCameraCtrl@@QAEXMMM@Z 00436030 f   CameraCtrl.obj
 0001:00035160       ?BeginMove@CCameraCtrl@@QAEXXZ 00436160 f   CameraCtrl.obj
 0001:00035170       ?ChangeModel@CCameraCtrl@@QAEXXZ 00436170 f   CameraCtrl.obj
 0001:00035340       ?EnableRotation@CCameraCtrl@@QAEXH@Z 00436340 f   CameraCtrl.obj
 0001:000353d0       ?EndMove@CCameraCtrl@@QAEXXZ 004363d0 f   CameraCtrl.obj
 0001:000353e0       ?FrameMove@CCameraCtrl@@UAEXK@Z 004363e0 f   CameraCtrl.obj
 0001:00035a10       ?GetEyePos@CCameraCtrl@@QAEXAAUD3DXVECTOR3@@0@Z 00436a10 f   CameraCtrl.obj
 0001:00035b80       ?InitModel@CCameraCtrl@@QAEXHPAUD3DXVECTOR3@@@Z 00436b80 f   CameraCtrl.obj
 0001:00035f50       ?InitPos@CCameraCtrl@@QAEXMMM_N@Z 00436f50 f   CameraCtrl.obj
 0001:00036110       ?IsDefaultView@CCameraCtrl@@QAE_NXZ 00437110 f   CameraCtrl.obj
 0001:00036160       ?MoveForwardBack@CCameraCtrl@@QAEXM@Z 00437160 f   CameraCtrl.obj
 0001:000361a0       ?ResetCamera@CCameraCtrl@@QAEXM@Z 004371a0 f   CameraCtrl.obj
 0001:000361e0       ?RotationCameraLR@CCameraCtrl@@QAEXM@Z 004371e0 f   CameraCtrl.obj
 0001:00036230       ?Scale@CCameraCtrl@@QAEXM@Z 00437230 f   CameraCtrl.obj
 0001:000362c0       ?ScroolFB@CCameraCtrl@@QAE_NM@Z 004372c0 f   CameraCtrl.obj
 0001:000363c0       ?ScroolLR@CCameraCtrl@@QAEXM@Z 004373c0 f   CameraCtrl.obj
 0001:00036460       ?SetCameraDither@CCameraCtrl@@QAEXH@Z 00437460 f   CameraCtrl.obj
 0001:00036560       ?SetFollowObj@CCameraCtrl@@QAEXAAUD3DXVECTOR3@@@Z 00437560 f   CameraCtrl.obj
 0001:00036580       ?SetModel@CCameraCtrl@@QAEXHPAUD3DXVECTOR3@@@Z 00437580 f   CameraCtrl.obj
 0001:00036640       ?SetViewTransform@CCameraCtrl@@QAEXXZ 00437640 f   CameraCtrl.obj
 0001:00036710       ?Update@CCameraCtrl@@QAEXXZ 00437710 f   CameraCtrl.obj
 0001:00036960       ?_Buynode0@?$_List_alloc@U?$_List_base_types@MV?$allocator@M@std@@@std@@@std@@QAEPAU?$_List_node@MPAX@2@PAU32@0@Z 00437960 f i CameraCtrl.obj
 0001:000369f0       ?_Buynode0@?$_List_alloc@U?$_List_base_types@UD3DXVECTOR2@@V?$allocator@UD3DXVECTOR2@@@std@@@std@@@std@@QAEPAU?$_List_node@UD3DXVECTOR2@@PAX@2@PAU32@0@Z 004379f0 f i CameraCtrl.obj
 0001:00036a80       ?deallocate@?$allocator@U?$_List_node@MPAX@std@@@std@@QAEXQAU?$_List_node@MPAX@2@I@Z 00437a80 f i CameraCtrl.obj
 0001:00036ac0       ?deallocate@?$allocator@U?$_List_node@UD3DXVECTOR2@@PAX@std@@@std@@QAEXQAU?$_List_node@UD3DXVECTOR2@@PAX@2@I@Z 00437ac0 f i CameraCtrl.obj
 0001:00036b00       ??0?$basic_string@DU?$char_traits@D@std@@V?$allocator@D@2@@std@@QAE@XZ 00437b00 f i Character.obj
 0001:00036b20       ??0CCharacter@@QAE@XZ      00437b20 f   Character.obj
 0001:00036f00       ??1?$vector@PAUstChaState@CChaStateMgr@@V?$allocator@PAUstChaState@CChaStateMgr@@@std@@@std@@QAE@XZ 00437f00 f i Character.obj
 0001:00036f90       ??1?$vector@UstHit@CCharacter@@V?$allocator@UstHit@CCharacter@@@std@@@std@@QAE@XZ 00437f90 f i Character.obj
 0001:00037020       ??1CCharacter@@UAE@XZ      00438020 f   Character.obj
 0001:00037200       ??1CCharacterModel@@UAE@XZ 00438200 f i Character.obj
 0001:00037290       ??1CSceneNode@@MAE@XZ      00438290 f i Character.obj
 0001:000372d7       ??_ECCharacter@@WHNA@AEPAXI@Z 004382d7 f i Character.obj
 0001:000372f0       ??_ECCharacterModel@@UAEPAXI@Z 004382f0 f i Character.obj
 0001:000372f0       ??_GCCharacterModel@@UAEPAXI@Z 004382f0 f i Character.obj
 0001:000373a0       ??_ECSceneNode@@MAEPAXI@Z  004383a0 f i Character.obj
 0001:000373a0       ??_GCSceneNode@@MAEPAXI@Z  004383a0 f i Character.obj
 0001:00037410       ?ChangeReadySkill@CCharacter@@QAE_NH@Z 00438410 f   Character.obj
 0001:000374d0       ?ConvertPartTo8DWORD@CCharacter@@SAPAUxShipInfo@@AAUstNetChangeChaPart@@PAK@Z 004384d0 f   Character.obj
 0001:00037690       ?DestroyLinkItem@CCharacter@@QAEXXZ 00438690 f   Character.obj
 0001:00037700       ?DieTime@CCharacter@@QAEXXZ 00438700 f   Character.obj
 0001:00037840       ?FaceTo@CCharacter@@QAEHH@Z 00438840 f   Character.obj
 0001:000379a0       ?FixAngle@@YAHH@Z          004389a0 f i Character.obj
 0001:00037a00       ?ForceMove@CCharacter@@QAEXHH@Z 00438a00 f   Character.obj
 0001:00037cb0       ?FrameMove@CCharacter@@UAEXK@Z 00438cb0 f   Character.obj
 0001:00038370       ?FrameMove@CSceneNode@@UAEXK@Z 00439370 f i Character.obj
 0001:00038380       ?GetAngleDistance@@YAHHH@Z 00439380 f i Character.obj
 0001:000384e0       ?GetIsFly@CCharacter@@QAE_NXZ 004394e0 f   Character.obj
 0001:00038500       ?GetIsPet@CCharacter@@QAE_NXZ 00439500 f   Character.obj
 0001:00038520       ?GetItemRecordInfo@@YAPAVCItemRecord@@H@Z 00439520 f i Character.obj
 0001:00038570       ?GetObjDummyRunTimeMatrix@CCharacterModel@@QAEJPAUD3DXMATRIX@@KH@Z 00439570 f i Character.obj
 0001:000386c0       ?GetRunTimeMatrix@CCharacter@@UAE_NPAUD3DXMATRIX@@K@Z 004396c0 f   Character.obj
 0001:000386e0       ?GetRunTimeMatrix@CSceneNode@@UAE_NPAUD3DXMATRIX@@K@Z 004396e0 f i Character.obj
 0001:000386f0       ?GetShipPartInfo@@YAPAUxShipPartInfo@@H@Z 004396f0 f i Character.obj
 0001:00038740       ?InitState@CCharacter@@QAEXXZ 00439740 f   Character.obj
 0001:00038840       ?ItemEffect@CCharacter@@QAE_NHHH@Z 00439840 f   Character.obj
 0001:000389c0       ?LoadBoat@CCharacter@@QAE_NAAUstNetChangeChaPart@@@Z 004399c0 f   Character.obj
 0001:00038a60       ?LoadingCall@CCharacter@@QAEXXZ 00439a60 f   Character.obj
 0001:00038a70       ?OperatorEffect@CCharacter@@QAEXDHH@Z 00439a70 f   Character.obj
 0001:00038a80       ?PlayAni@CCharacter@@QAEXPADH@Z 00439a80 f   Character.obj
 0001:00038c00       ?PlayEnvSound@CGameScene@@SAXHHHM@Z 00439c00 f i Character.obj
 0001:00038c70       ?PlayPose@CCharacter@@QAE_NKKHH_N@Z 00439c70 f   Character.obj
 0001:00038de0       ?ReCreate@CCharacter@@UAEHK@Z 00439de0 f i Character.obj
 0001:00038e00       ?RefreshFog@CCharacter@@QAEXXZ 00439e00 f   Character.obj
 0001:00038f10       ?RefreshItem@CCharacter@@QAEX_N@Z 00439f10 f   Character.obj
 0001:00039000       ?RefreshLevel@CCharacter@@QAEXH@Z 0043a000 f   Character.obj
 0001:000390a0       ?RefreshShopShop@CCharacter@@QAEXXZ 0043a0a0 f   Character.obj
 0001:00039150       ?RefreshUI@CCharacter@@UAEXH@Z 0043a150 f   Character.obj
 0001:000391e0       ?RefreshUI@CSceneNode@@UAEXH@Z 0043a1e0 f i Character.obj
 0001:000391f0       ?Render@CCharacter@@UAEXXZ 0043a1f0 f   Character.obj
 0001:00039250       ?Render@CSceneNode@@UAEXXZ 0043a250 f i Character.obj
 0001:00039260       ?ResetReadySkill@CCharacter@@SAXXZ 0043a260 f   Character.obj
 0001:00039280       ?SelfEffect@CCharacter@@QAEPAVCEffectObj@@HH_NHH@Z 0043a280 f   Character.obj
 0001:000394e0       ?SetDefaultChaInfo@CCharacter@@QAEXPAVCChaRecord@@@Z 0043a4e0 f   Character.obj
 0001:000395e0       ?SetHandFace@CCharacter@@QAEXIH@Z 0043a5e0 f   Character.obj
 0001:00039850       ?SetHide@CCharacter@@QAEXH@Z 0043a850 f   Character.obj
 0001:000399b0       ?SetItemFace@CCharacter@@QAEXIH@Z 0043a9b0 f   Character.obj
 0001:00039c00       ?SetPreName@@YAXHQADAAKH@Z 0043ac00 f i Character.obj
 0001:0003a670       ?SetPreNameByEnergy@@YAXHPAFQADAAKHF@Z 0043b670 f i Character.obj
 0001:0003a9e0       ?SetPreNameSex@@YAXHQADAAKH@Z 0043b9e0 f i Character.obj
 0001:0003aaa0       ?SetScene@CSceneNode@@UAEXPAVCGameScene@@@Z 0043baa0 f i Character.obj
 0001:0003aab0       ?SkyEffect@CCharacter@@QAEPAVCEffectObj@@HHHHPAUD3DXVECTOR3@@HPAVCSkillRecord@@@Z 0043bab0 f   Character.obj
 0001:0003ae40       ?SwitchFightPose@CCharacter@@QAEXXZ 0043be40 f   Character.obj
 0001:0003ae60       ?SynchroSkillState@CCharacter@@QAEXPAUstSkillState@@H@Z 0043be60 f   Character.obj
 0001:0003b290       ?UpdataFace@CCharacter@@QAEXAAUstNetChangeChaPart@@@Z 0043c290 f   Character.obj
 0001:0003b4b0       ?UpdataItem@CCharacter@@QAE_NHK@Z 0043c4b0 f   Character.obj
 0001:0003b5f0       ?UpdateTileColor@CCharacter@@QAEXXZ 0043c5f0 f   Character.obj
 0001:0003b6f0       ?_Create@CCharacter@@EAEHHH@Z 0043c6f0 f   Character.obj
 0001:0003b700       ?_FightSwitch@CCharacter@@AAEX_N@Z 0043c700 f   Character.obj
 0001:0003b9a0       ?_GetTargetAngle@CCharacter@@AAEHHHH@Z 0043c9a0 f   Character.obj
 0001:0003ba40       ?_Tidy_deallocate@?$basic_string@DU?$char_traits@D@std@@V?$allocator@D@2@@std@@QAEXXZ 0043ca40 f i Character.obj
 0001:0003ba90       ?_UpdateHeight@CCharacter@@MAEXXZ 0043ca90 f   Character.obj
 0001:0003bbb0       ?_UpdatePitch@CCharacter@@MAEXXZ 0043cbb0 f i Character.obj
 0001:0003bc20       ?_UpdatePos@CCharacter@@MAEXXZ 0043cc20 f i Character.obj
 0001:0003bca0       ?_UpdateRoll@CCharacter@@MAEXXZ 0043cca0 f i Character.obj
 0001:0003bd10       ?_UpdateValid@CCharacter@@MAEXH@Z 0043cd10 f   Character.obj
 0001:0003bf80       ?_UpdateValid@CSceneNode@@MAEXH@Z 0043cf80 f i Character.obj
 0001:0003bf90       ?_UpdateYaw@CCharacter@@MAEXXZ 0043cf90 f i Character.obj
 0001:0003c020       ?_Xlen@?$basic_string@DU?$char_traits@D@std@@V?$allocator@D@2@@std@@SAXXZ 0043d020 f i Character.obj
 0001:0003c030       ?_Xran@?$_String_val@U?$_Simple_types@D@std@@@std@@SAXXZ 0043d030 f i Character.obj
 0001:0003c300       ?_computeLinkedMatrix@CCharacter@@AAEXXZ 0043d300 f   Character.obj
 0001:0003c590       ?allocate@?$allocator@D@std@@QAEPADI@Z 0043d590 f i Character.obj
 0001:0003c5f0       ?assign@?$basic_string@DU?$char_traits@D@std@@V?$allocator@D@2@@std@@QAEAAV12@QBDI@Z 0043d5f0 f i Character.obj
 0001:0003c6e0       ?find@?$basic_string@DU?$char_traits@D@std@@V?$allocator@D@2@@std@@QBEIQBDI@Z 0043d6e0 f i Character.obj
 0001:0003c7e0       ?setEvent@CCharacter@@UAEXPAVCEvent@@@Z 0043d7e0 f i Character.obj
 0001:0003c7f0       ?setEvent@CSceneNode@@UAEXPAVCEvent@@@Z 0043d7f0 f i Character.obj
 0001:0003c800       ?setName@CCharacter@@QAEXPBD@Z 0043d800 f   Character.obj
 0001:0003c830       ?setNpcState@CCharacter@@QAEXK@Z 0043d830 f   Character.obj
 0001:0003c940       ?setPos@CCharacter@@QAEXHH@Z 0043d940 f   Character.obj
 0001:0003c990       ?setSideID@CCharacter@@QAEXJ@Z 0043d990 f   Character.obj
 0001:0003cb30       ?substr@?$basic_string@DU?$char_traits@D@std@@V?$allocator@D@2@@std@@QBE?AV12@II@Z 0043db30 f i Character.obj
 0001:0003cbc0       ?Free@CGameCharacterAction@@QAEXXZ 0043dbc0 f   CharacterAction.obj
 0001:0003cc20       ?GetCharacterAction@@YA_NHPAUSCharacterAction@@@Z 0043dc20 f   CharacterAction.obj
 0001:0003cc70       ?Init@CGameCharacterAction@@QAE_NPAD@Z 0043dc70 f   CharacterAction.obj
 0001:0003d4e0       ?InitPoseData@@YAXXZ       0043e4e0 f   CharacterAction.obj
 0001:0003d4f0       ?StringGet@@YAJPADJ0PAJ0J@Z 0043e4f0 f   CharacterAction.obj
 0001:0003d560       ?StringSkipCompartment@@YAXPADPAJ0J@Z 0043e560 f   CharacterAction.obj
 0001:0003d5b0       ??0CCharacterModel@@QAE@XZ 0043e5b0 f   CharacterModel.obj
 0001:0003d730       ??1LEChaLoadInfo@LightEngine@@QAE@XZ 0043e730 f i CharacterModel.obj
 0001:0003d780       ??_GLESceneItem@LightEngine@@UAEPAXI@Z 0043e780 f i CharacterModel.obj
 0001:0003d780       ??_ELESceneItem@LightEngine@@UAEPAXI@Z 0043e780 f i CharacterModel.obj
 0001:0003d7b0       ?AttachItem@CCharacterModel@@QAEHKPAVCSceneItem@@KK@Z 0043e7b0 f   CharacterModel.obj
 0001:0003d890       ?ChangePart@CCharacterModel@@UAEHK@Z 0043e890 f   CharacterModel.obj
 0001:0003d9a0       ?ChangePart@CCharacterModel@@UAEHKK@Z 0043e9a0 f   CharacterModel.obj
 0001:0003dc90       ?ChangePart@CCharacterModel@@UAEHKPBD@Z 0043ec90 f   CharacterModel.obj
 0001:0003dcb0       ?Destroy@CCharacterModel@@QAEXXZ 0043ecb0 f   CharacterModel.obj
 0001:0003dd20       ?DestroyPart@CCharacterModel@@UAEHK@Z 0043ed20 f   CharacterModel.obj
 0001:0003dd40       ?DetachItem@CCharacterModel@@QAEPAVCSceneItem@@K@Z 0043ed40 f   CharacterModel.obj
 0001:0003dda0       ?DetachItem@CCharacterModel@@QAEPAVCSceneItem@@PAV2@@Z 0043eda0 f   CharacterModel.obj
 0001:0003de10       ?FrameMove@CCharacterModel@@QAEXXZ 0043ee10 f   CharacterModel.obj
 0001:0003deb0       ?GetCurPoseKeyFrameNum@CCharacterModel@@QAEKXZ 0043eeb0 f   CharacterModel.obj
 0001:0003df10       ?GetPoseInfoBig@CCharacterModel@@QAEPAUdrPoseInfo@LightEngine@@K@Z 0043ef10 f   CharacterModel.obj
 0001:0003df80       ?GetPoseVelocity@CCharacterModel@@QAEMXZ 0043ef80 f   CharacterModel.obj
 0001:0003e010       ?LoadCha@CCharacterModel@@UAEHKKPBK@Z 0043f010 f   CharacterModel.obj
 0001:0003e0d0       ?LoadCha@CCharacterModel@@UAEHPBULEChaLoadInfo@LightEngine@@@Z 0043f0d0 f   CharacterModel.obj
 0001:0003e170       ?LoadPart@CCharacterModel@@UAEHKK@Z 0043f170 f   CharacterModel.obj
 0001:0003e200       ?LoadPart@CCharacterModel@@UAEHKPBD@Z 0043f200 f   CharacterModel.obj
 0001:0003e340       ?LoadPose@CCharacterModel@@QAEHH@Z 0043f340 f   CharacterModel.obj
 0001:0003e590       ?LoadShip@CCharacterModel@@UAEHKKPAK@Z 0043f590 f   CharacterModel.obj
 0001:0003e5f0       ?LoadShip@CCharacterModel@@UAEHKPAK@Z 0043f5f0 f   CharacterModel.obj
 0001:0003e880       ?LoadTower@CCharacterModel@@UAEHKPAK@Z 0043f880 f   CharacterModel.obj
 0001:0003e8e0       ?PlayPose@CCharacterModel@@QAEXKKHHKK@Z 0043f8e0 f   CharacterModel.obj
 0001:0003eba0       ?ReCreate@CCharacterModel@@UAEHK@Z 0043fba0 f   CharacterModel.obj
 0001:0003ef00       ?Render@CCharacterModel@@QAEXXZ 0043ff00 f   CharacterModel.obj
 0001:0003f060       ?RenderForUI@CCharacterModel@@QAEXHH_N@Z 00440060 f   CharacterModel.obj
 0001:0003f370       ?RenderUI@CCharacterModel@@QAEXHH@Z 00440370 f   CharacterModel.obj
 0001:0003f650       ?SetAmbColor@CCharacterModel@@QAEXEEE@Z 00440650 f   CharacterModel.obj
 0001:0003f6c0       ?SetColor@CCharacterModel@@QAEXEEE@Z 004406c0 f   CharacterModel.obj
 0001:0003f750       ?SetDrunkState@CCharacterModel@@QAEHH@Z 00440750 f   CharacterModel.obj
 0001:0003f8d0       ?SetOpaque@CCharacterModel@@QAEXM@Z 004408d0 f   CharacterModel.obj
 0001:0003f920       ?SetPoseKeyFrameProc@CCharacterModel@@QAEXP6AXKKKKPAX@Z0@Z 00440920 f   CharacterModel.obj
 0001:0003f970       ?SetPoseVelocity@CCharacterModel@@QAEXM@Z 00440970 f   CharacterModel.obj
 0001:0003f9e0       ?_BigPose2SmallPose@CCharacterModel@@AAEKK@Z 004409e0 f   CharacterModel.obj
 0001:0003faf0       __snprintf_s               00440af0 f i CharacterModel.obj
 0001:0003fb30       ??$_Buynode@ABUpiecewise_construct_t@std@@V?$tuple@$$QAV?$basic_string@DU?$char_traits@D@std@@V?$allocator@D@2@@std@@@2@V?$tuple@$$V@2@@?$_Tree_comp_alloc@V?$_Tmap_traits@V?$basic_string@DU?$char_traits@D@std@@V?$allocator@D@2@@std@@PAVCRawDataInfo@@U?$less@V?$basic_string@DU?$char_traits@D@std@@V?$allocator@D@2@@std@@@2@V?$allocator@U?$pair@$$CBV?$basic_string@DU?$char_traits@D@std@@V?$allocator@D@2@@std@@PAVCRawDataInfo@@@std@@@2@$0A@@std@@@std@@QAEPAU?$_Tree_node@U?$pair@$$CBV?$basic_string@DU?$char_traits@D@std@@V?$allocator@D@2@@std@@PAVCRawDataInfo@@@std@@PAX@1@ABUpiecewise_construct_t@1@$$QAV?$tuple@$$QAV?$basic_string@DU?$char_traits@D@std@@V?$allocator@D@2@@std@@@1@$$QAV?$tuple@$$V@1@@Z 00440b30 f i ChaScript.obj
 0001:0003fbc0       ??$_Insert_at@AAU?$pair@$$CBV?$basic_string@DU?$char_traits@D@std@@V?$allocator@D@2@@std@@PAVCRawDataInfo@@@std@@PAU?$_Tree_node@U?$pair@$$CBV?$basic_string@DU?$char_traits@D@std@@V?$allocator@D@2@@std@@PAVCRawDataInfo@@@std@@PAX@2@@?$_Tree@V?$_Tmap_traits@V?$basic_string@DU?$char_traits@D@std@@V?$allocator@D@2@@std@@PAVCRawDataInfo@@U?$less@V?$basic_string@DU?$char_traits@D@std@@V?$allocator@D@2@@std@@@2@V?$allocator@U?$pair@$$CBV?$basic_string@DU?$char_traits@D@std@@V?$allocator@D@2@@std@@PAVCRawDataInfo@@@std@@@2@$0A@@std@@@std@@IAE?AV?$_Tree_iterator@V?$_Tree_val@U?$_Tree_simple_types@U?$pair@$$CBV?$basic_string@DU?$char_traits@D@std@@V?$allocator@D@2@@std@@PAVCRawDataInfo@@@std@@@std@@@std@@@1@_NPAU?$_Tree_node@U?$pair@$$CBV?$basic_string@DU?$char_traits@D@std@@V?$allocator@D@2@@std@@PAVCRawDataInfo@@@std@@PAX@1@AAU?$pair@$$CBV?$basic_string@DU?$char_traits@D@std@@V?$allocator@D@2@@std@@PAVCRawDataInfo@@@1@1@Z 00440bc0 f i ChaScript.obj
 0001:0003fd20       ??$_Insert_hint@AAU?$pair@$$CBV?$basic_string@DU?$char_traits@D@std@@V?$allocator@D@2@@std@@PAVCRawDataInfo@@@std@@PAU?$_Tree_node@U?$pair@$$CBV?$basic_string@DU?$char_traits@D@std@@V?$allocator@D@2@@std@@PAVCRawDataInfo@@@std@@PAX@2@@?$_Tree@V?$_Tmap_traits@V?$basic_string@DU?$char_traits@D@std@@V?$allocator@D@2@@std@@PAVCRawDataInfo@@U?$less@V?$basic_string@DU?$char_traits@D@std@@V?$allocator@D@2@@std@@@2@V?$allocator@U?$pair@$$CBV?$basic_string@DU?$char_traits@D@std@@V?$allocator@D@2@@std@@PAVCRawDataInfo@@@std@@@2@$0A@@std@@@std@@IAE?AV?$_Tree_iterator@V?$_Tree_val@U?$_Tree_simple_types@U?$pair@$$CBV?$basic_string@DU?$char_traits@D@std@@V?$allocator@D@2@@std@@PAVCRawDataInfo@@@std@@@std@@@std@@@1@V?$_Tree_const_iterator@V?$_Tree_val@U?$_Tree_simple_types@U?$pair@$$CBV?$basic_string@DU?$char_traits@D@std@@V?$allocator@D@2@@std@@PAVCRawDataInfo@@@std@@@std@@@std@@@1@AAU?$pair@$$CBV?$basic_string@DU?$char_traits@D@std@@V?$allocator@D@2@@std@@PAVCRawDataInfo@@@1@PAU?$_Tree_node@U?$pair@$$CBV?$basic_string@DU?$char_traits@D@std@@V?$allocator@D@2@@std@@PAVCRawDataInfo@@@std@@PAX@1@@Z 00440d20 f i ChaScript.obj
 0001:0003fed0       ??$_Insert_nohint@AAU?$pair@$$CBV?$basic_string@DU?$char_traits@D@std@@V?$allocator@D@2@@std@@PAVCRawDataInfo@@@std@@PAU?$_Tree_node@U?$pair@$$CBV?$basic_string@DU?$char_traits@D@std@@V?$allocator@D@2@@std@@PAVCRawDataInfo@@@std@@PAX@2@@?$_Tree@V?$_Tmap_traits@V?$basic_string@DU?$char_traits@D@std@@V?$allocator@D@2@@std@@PAVCRawDataInfo@@U?$less@V?$basic_string@DU?$char_traits@D@std@@V?$allocator@D@2@@std@@@2@V?$allocator@U?$pair@$$CBV?$basic_string@DU?$char_traits@D@std@@V?$allocator@D@2@@std@@PAVCRawDataInfo@@@std@@@2@$0A@@std@@@std@@IAE?AU?$pair@V?$_Tree_iterator@V?$_Tree_val@U?$_Tree_simple_types@U?$pair@$$CBV?$basic_string@DU?$char_traits@D@std@@V?$allocator@D@2@@std@@PAVCRawDataInfo@@@std@@@std@@@std@@@std@@_N@1@_NAAU?$pair@$$CBV?$basic_string@DU?$char_traits@D@std@@V?$allocator@D@2@@std@@PAVCRawDataInfo@@@1@PAU?$_Tree_node@U?$pair@$$CBV?$basic_string@DU?$char_traits@D@std@@V?$allocator@D@2@@std@@PAVCRawDataInfo@@@std@@PAX@1@@Z 00440ed0 f i ChaScript.obj
 0001:0003fff0       ??$_Traits_compare@U?$char_traits@D@std@@@std@@YAHQBDI0I@Z 00440ff0 f i ChaScript.obj
 0001:00040080       ??$construct@U?$pair@$$CBV?$basic_string@DU?$char_traits@D@std@@V?$allocator@D@2@@std@@PAVCRawDataInfo@@@std@@ABUpiecewise_construct_t@2@V?$tuple@$$QAV?$basic_string@DU?$char_traits@D@std@@V?$allocator@D@2@@std@@@2@V?$tuple@$$V@2@@?$_Default_allocator_traits@V?$allocator@U?$_Tree_node@U?$pair@$$CBV?$basic_string@DU?$char_traits@D@std@@V?$allocator@D@2@@std@@PAVCRawDataInfo@@@std@@PAX@std@@@std@@@std@@SAXAAV?$allocator@U?$_Tree_node@U?$pair@$$CBV?$basic_string@DU?$char_traits@D@std@@V?$allocator@D@2@@std@@PAVCRawDataInfo@@@std@@PAX@std@@@1@QAU?$pair@$$CBV?$basic_string@DU?$char_traits@D@std@@V?$allocator@D@2@@std@@PAVCRawDataInfo@@@1@ABUpiecewise_construct_t@1@$$QAV?$tuple@$$QAV?$basic_string@DU?$char_traits@D@std@@V?$allocator@D@2@@std@@@1@$$QAV?$tuple@$$V@1@@Z 00441080 f i ChaScript.obj
 0001:00040100       ??1?$pair@$$CBV?$basic_string@DU?$char_traits@D@std@@V?$allocator@D@2@@std@@PAVCRawDataInfo@@@std@@QAE@XZ 00441100 f i ChaScript.obj
 0001:00040150       ??A?$map@V?$basic_string@DU?$char_traits@D@std@@V?$allocator@D@2@@std@@PAVCRawDataInfo@@U?$less@V?$basic_string@DU?$char_traits@D@std@@V?$allocator@D@2@@std@@@2@V?$allocator@U?$pair@$$CBV?$basic_string@DU?$char_traits@D@std@@V?$allocator@D@2@@std@@PAVCRawDataInfo@@@std@@@2@@std@@QAEAAPAVCRawDataInfo@@$$QAV?$basic_string@DU?$char_traits@D@std@@V?$allocator@D@2@@1@@Z 00441150 f i ChaScript.obj
 0001:000401e0       ??E?$_Tree_const_iterator@V?$_Tree_val@U?$_Tree_simple_types@U?$pair@$$CBV?$basic_string@DU?$char_traits@D@std@@V?$allocator@D@2@@std@@PAVCRawDataInfo@@@std@@@std@@@std@@@std@@QAEAAV01@XZ 004411e0 f i ChaScript.obj
 0001:00040240       ??F?$_Tree_const_iterator@V?$_Tree_val@U?$_Tree_simple_types@U?$pair@$$CBV?$basic_string@DU?$char_traits@D@std@@V?$allocator@D@2@@std@@PAVCRawDataInfo@@@std@@@std@@@std@@@std@@QAEAAV01@XZ 00441240 f i ChaScript.obj
 0001:000402d0       ??R?$less@V?$basic_string@DU?$char_traits@D@std@@V?$allocator@D@2@@std@@@std@@QBE_NABV?$basic_string@DU?$char_traits@D@std@@V?$allocator@D@2@@1@0@Z 004412d0 f i ChaScript.obj
 0001:00040310       ?CH_Create@@YAHHH@Z        00441310 f   ChaScript.obj
 0001:00040360       ?CH_PlayPos@@YAHHHH@Z      00441360 f   ChaScript.obj
 0001:000403c0       ?CH_SetPos@@YAHHHH@Z       004413c0 f   ChaScript.obj
 0001:00040410       ?CH_SetYaw@@YAHHH@Z        00441410 f   ChaScript.obj
 0001:00040460       ?GetChaPhotoTexID@@YAHH@Z  00441460 f   ChaScript.obj
 0001:00040510       ?GetRawDataID@CRawDataSet@@QAEHPBD@Z 00441510 f i ChaScript.obj
 0001:000406c0       ?MPInitLua_Cha@@YAXXZ      004416c0 f   ChaScript.obj
 0001:00040730       ?_Buynode0@?$_Tree_comp_alloc@V?$_Tmap_traits@V?$basic_string@DU?$char_traits@D@std@@V?$allocator@D@2@@std@@PAVCRawDataInfo@@U?$less@V?$basic_string@DU?$char_traits@D@std@@V?$allocator@D@2@@std@@@2@V?$allocator@U?$pair@$$CBV?$basic_string@DU?$char_traits@D@std@@V?$allocator@D@2@@std@@PAVCRawDataInfo@@@std@@@2@$0A@@std@@@std@@QAEPAU?$_Tree_node@U?$pair@$$CBV?$basic_string@DU?$char_traits@D@std@@V?$allocator@D@2@@std@@PAVCRawDataInfo@@@std@@PAX@2@XZ 00441730 f i ChaScript.obj
 0001:000407c0       ?_Destroy_if_node@?$_Tree@V?$_Tmap_traits@V?$basic_string@DU?$char_traits@D@std@@V?$allocator@D@2@@std@@PAVCRawDataInfo@@U?$less@V?$basic_string@DU?$char_traits@D@std@@V?$allocator@D@2@@std@@@2@V?$allocator@U?$pair@$$CBV?$basic_string@DU?$char_traits@D@std@@V?$allocator@D@2@@std@@PAVCRawDataInfo@@@std@@@2@$0A@@std@@@std@@IAEXPAU?$_Tree_node@U?$pair@$$CBV?$basic_string@DU?$char_traits@D@std@@V?$allocator@D@2@@std@@PAVCRawDataInfo@@@std@@PAX@2@@Z 004417c0 f i ChaScript.obj
 0001:00040820       ?_Freenode0@?$_Tree_comp_alloc@V?$_Tmap_traits@V?$basic_string@DU?$char_traits@D@std@@V?$allocator@D@2@@std@@PAVCRawDataInfo@@U?$less@V?$basic_string@DU?$char_traits@D@std@@V?$allocator@D@2@@std@@@2@V?$allocator@U?$pair@$$CBV?$basic_string@DU?$char_traits@D@std@@V?$allocator@D@2@@std@@PAVCRawDataInfo@@@std@@@2@$0A@@std@@@std@@QAEXPAU?$_Tree_node@U?$pair@$$CBV?$basic_string@DU?$char_traits@D@std@@V?$allocator@D@2@@std@@PAVCRawDataInfo@@@std@@PAX@2@@Z 00441820 f i ChaScript.obj
 0001:00040840       ?_Lrotate@?$_Tree_val@U?$_Tree_simple_types@U?$pair@$$CBV?$basic_string@DU?$char_traits@D@std@@V?$allocator@D@2@@std@@PAVCRawDataInfo@@@std@@@std@@@std@@QAEXPAU?$_Tree_node@U?$pair@$$CBV?$basic_string@DU?$char_traits@D@std@@V?$allocator@D@2@@std@@PAVCRawDataInfo@@@std@@PAX@2@@Z 00441840 f i ChaScript.obj
 0001:000408a0       ?_Rrotate@?$_Tree_val@U?$_Tree_simple_types@U?$pair@$$CBV?$basic_string@DU?$char_traits@D@std@@V?$allocator@D@2@@std@@PAVCRawDataInfo@@@std@@@std@@@std@@QAEXPAU?$_Tree_node@U?$pair@$$CBV?$basic_string@DU?$char_traits@D@std@@V?$allocator@D@2@@std@@PAVCRawDataInfo@@@std@@PAX@2@@Z 004418a0 f i ChaScript.obj
 0001:00040900       ?deallocate@?$allocator@U?$_Tree_node@U?$pair@$$CBV?$basic_string@DU?$char_traits@D@std@@V?$allocator@D@2@@std@@PAVCRawDataInfo@@@std@@PAX@std@@@std@@QAEXQAU?$_Tree_node@U?$pair@$$CBV?$basic_string@DU?$char_traits@D@std@@V?$allocator@D@2@@std@@PAVCRawDataInfo@@@std@@PAX@2@I@Z 00441900 f i ChaScript.obj
 0001:00040940       ?lower_bound@?$_Tree@V?$_Tmap_traits@V?$basic_string@DU?$char_traits@D@std@@V?$allocator@D@2@@std@@PAVCRawDataInfo@@U?$less@V?$basic_string@DU?$char_traits@D@std@@V?$allocator@D@2@@std@@@2@V?$allocator@U?$pair@$$CBV?$basic_string@DU?$char_traits@D@std@@V?$allocator@D@2@@std@@PAVCRawDataInfo@@@std@@@2@$0A@@std@@@std@@QAE?AV?$_Tree_iterator@V?$_Tree_val@U?$_Tree_simple_types@U?$pair@$$CBV?$basic_string@DU?$char_traits@D@std@@V?$allocator@D@2@@std@@PAVCRawDataInfo@@@std@@@std@@@std@@@2@ABV?$basic_string@DU?$char_traits@D@std@@V?$allocator@D@2@@2@@Z 00441940 f i ChaScript.obj
 0001:000409a0       ??$_Emplace_reallocate@ABQAUstChaState@CChaStateMgr@@@?$vector@PAUstChaState@CChaStateMgr@@V?$allocator@PAUstChaState@CChaStateMgr@@@std@@@std@@QAEPAPAUstChaState@CChaStateMgr@@QAPAU23@ABQAU23@@Z 004419a0 f i ChaState.obj
 0001:00040b60       ??$_Emplace_reallocate@UstHit@CCharacter@@@?$vector@UstHit@CCharacter@@V?$allocator@UstHit@CCharacter@@@std@@@std@@QAEPAUstHit@CCharacter@@QAU23@$$QAU23@@Z 00441b60 f i ChaState.obj
 0001:00040d10       ??0CChaStateMgr@@QAE@PAVCCharacter@@@Z 00441d10 f   ChaState.obj
 0001:00040e20       ?ChaDestroy@CChaStateMgr@@QAEXXZ 00441e20 f   ChaState.obj
 0001:00040e90       ?Synchro@CChaStateMgr@@QAEAAVCBoolSet@@PAUstSkillState@@H@Z 00441e90 f   ChaState.obj
 0001:00041210       ?_Umove@?$vector@UstHit@CCharacter@@V?$allocator@UstHit@CCharacter@@@std@@@std@@AAEPAUstHit@CCharacter@@PAU34@00@Z 00442210 f i ChaState.obj
 0001:00041240       ?_Umove_if_noexcept@?$vector@UstHit@CCharacter@@V?$allocator@UstHit@CCharacter@@@std@@@std@@AAEXPAUstHit@CCharacter@@00@Z 00442240 f i ChaState.obj
 0001:00041270       ?_Xlength@?$vector@PAUstChaState@CChaStateMgr@@V?$allocator@PAUstChaState@CChaStateMgr@@@std@@@std@@CAXXZ 00442270 f i ChaState.obj
 0001:00041280       ?_Xlength@?$vector@UstHit@CCharacter@@V?$allocator@UstHit@CCharacter@@@std@@@std@@CAXXZ 00442280 f i ChaState.obj
 0001:00041290       ?deallocate@?$allocator@PAUstChaState@CChaStateMgr@@@std@@QAEXQAPAUstChaState@CChaStateMgr@@I@Z 00442290 f i ChaState.obj
 0001:000412d0       ?deallocate@?$allocator@UstHit@CCharacter@@@std@@QAEXQAUstHit@CCharacter@@I@Z 004422d0 f i ChaState.obj
 0001:00041310       ??$?6U?$char_traits@D@std@@@std@@YAAAV?$basic_ostream@DU?$char_traits@D@std@@@0@AAV10@PBD@Z 00442310 f i ChatRecord.obj
 0001:00041560       ??$_Fputc@D@std@@YA_NDPAU_iobuf@@@Z 00442560 f i ChatRecord.obj
 0001:00041580       ??$_Immortalize_impl@V_Iostream_error_category@std@@@std@@YGHPAX0PAPAX@Z 00442580 f i ChatRecord.obj
 0001:000415a0       ??$use_facet@V?$codecvt@DDU_Mbstatet@@@std@@@std@@YAABV?$codecvt@DDU_Mbstatet@@@0@ABVlocale@0@@Z 004425a0 f i ChatRecord.obj
 0001:00041760       ??$use_facet@V?$ctype@D@std@@@std@@YAABV?$ctype@D@0@ABVlocale@0@@Z 00442760 f i ChatRecord.obj
 0001:00041930       ??0?$basic_streambuf@DU?$char_traits@D@std@@@std@@IAE@XZ 00442930 f i ChatRecord.obj
 0001:000419c0       ??0?$basic_string@DU?$char_traits@D@std@@V?$allocator@D@2@@std@@QAE@ABV01@@Z 004429c0 f i ChatRecord.obj
 0001:00041a50       ??0_Locinfo@std@@QAE@PBD@Z 00442a50 f i ChatRecord.obj
 0001:00041b20       ??0_System_error@std@@IAE@Verror_code@1@ABV?$basic_string@DU?$char_traits@D@std@@V?$allocator@D@2@@1@@Z 00442b20 f i ChatRecord.obj
 0001:00041cb0       ??0_System_error@std@@QAE@ABV01@@Z 00442cb0 f i ChatRecord.obj
 0001:00041d40       ??0exception@std@@QAE@ABV01@@Z 00442d40 f i ChatRecord.obj
 0001:00041da0       ??0failure@ios_base@std@@QAE@ABV012@@Z 00442da0 f i ChatRecord.obj
 0001:00041e50       ??0failure@ios_base@std@@QAE@PBDABVerror_code@2@@Z 00442e50 f i ChatRecord.obj
 0001:00041f30       ??0runtime_error@std@@QAE@ABV01@@Z 00442f30 f i ChatRecord.obj
 0001:00041fb0       ??0runtime_error@std@@QAE@PBD@Z 00442fb0 f i ChatRecord.obj
 0001:00042030       ??0sentry@?$basic_ostream@DU?$char_traits@D@std@@@std@@QAE@AAV12@@Z 00443030 f i ChatRecord.obj
 0001:000420d0       ??0system_error@std@@QAE@ABV01@@Z 004430d0 f i ChatRecord.obj
 0001:00042170       ??1?$_Yarn@D@std@@QAE@XZ   00443170 f i ChatRecord.obj
 0001:000421c0       ??1?$_Yarn@_W@std@@QAE@XZ  004431c0 f i ChatRecord.obj
 0001:00042210       ??1?$basic_filebuf@DU?$char_traits@D@std@@@std@@UAE@XZ 00443210 f i ChatRecord.obj
 0001:000422c0       ??1?$basic_ios@DU?$char_traits@D@std@@@std@@UAE@XZ 004432c0 f i ChatRecord.obj
 0001:00042320       ??1?$basic_ostream@DU?$char_traits@D@std@@@std@@UAE@XZ 00443320 f i ChatRecord.obj
 0001:00042340       ??1?$basic_streambuf@DU?$char_traits@D@std@@@std@@UAE@XZ 00443340 f i ChatRecord.obj
 0001:000423b0       ??1?$ctype@D@std@@MAE@XZ   004433b0 f i ChatRecord.obj
 0001:00042450       ??1?$unique_ptr@V_Facet_base@std@@U?$default_delete@V_Facet_base@std@@@2@@std@@QAE@XZ 00443450 f i ChatRecord.obj
 0001:00042460       ??1_Facet_base@std@@UAE@XZ 00443460 f i ChatRecord.obj
 0001:00042470       ??1_Locinfo@std@@QAE@XZ    00443470 f i ChatRecord.obj
 0001:00042570       ??1_Sentry_base@?$basic_ostream@DU?$char_traits@D@std@@@std@@QAE@XZ 00443570 f i ChatRecord.obj
 0001:000425c0       ??1_System_error@std@@UAE@XZ 004435c0 f i ChatRecord.obj
 0001:00042610       ??1bad_cast@std@@UAE@XZ    00443610 f i ChatRecord.obj
 0001:00042660       ??1codecvt_base@std@@UAE@XZ 00443660 f i ChatRecord.obj
 0001:000426c0       ??1ctype_base@std@@UAE@XZ  004436c0 f i ChatRecord.obj
 0001:00042720       ??1exception@std@@UAE@XZ   00443720 f i ChatRecord.obj
 0001:00042770       ??1facet@locale@std@@MAE@XZ 00443770 f i ChatRecord.obj
 0001:000427c0       ??1failure@ios_base@std@@UAE@XZ 004437c0 f i ChatRecord.obj
 0001:00042810       ??1ios_base@std@@UAE@XZ    00443810 f i ChatRecord.obj
 0001:00042850       ??1locale@std@@QAE@XZ      00443850 f i ChatRecord.obj
 0001:000428a0       ??1runtime_error@std@@UAE@XZ 004438a0 f i ChatRecord.obj
 0001:000428f0       ??1sentry@?$basic_ostream@DU?$char_traits@D@std@@@std@@QAE@XZ 004438f0 f i ChatRecord.obj
 0001:00042960       ??1system_error@std@@UAE@XZ 00443960 f i ChatRecord.obj
 0001:000429b0       ??_D?$basic_ofstream@DU?$char_traits@D@std@@@std@@QAEXXZ 004439b0 f i ChatRecord.obj
 0001:00042a55       ??_E?$basic_ofstream@DU?$char_traits@D@std@@@std@@$4PPPPPPPM@A@AEPAXI@Z 00443a55 f i ChatRecord.obj
 0001:00042a5d       ??_E?$basic_ostream@DU?$char_traits@D@std@@@std@@$4PPPPPPPM@A@AEPAXI@Z 00443a5d f i ChatRecord.obj
 0001:00042a70       ??_E?$basic_filebuf@DU?$char_traits@D@std@@@std@@UAEPAXI@Z 00443a70 f i ChatRecord.obj
 0001:00042a70       ??_G?$basic_filebuf@DU?$char_traits@D@std@@@std@@UAEPAXI@Z 00443a70 f i ChatRecord.obj
 0001:00042aa0       ??_E?$basic_ios@DU?$char_traits@D@std@@@std@@UAEPAXI@Z 00443aa0 f i ChatRecord.obj
 0001:00042aa0       ??_G?$basic_ios@DU?$char_traits@D@std@@@std@@UAEPAXI@Z 00443aa0 f i ChatRecord.obj
 0001:00042b10       ??_E?$basic_ofstream@DU?$char_traits@D@std@@@std@@UAEPAXI@Z 00443b10 f i ChatRecord.obj
 0001:00042b10       ??_G?$basic_ofstream@DU?$char_traits@D@std@@@std@@UAEPAXI@Z 00443b10 f i ChatRecord.obj
 0001:00042b40       ??_G?$basic_ostream@DU?$char_traits@D@std@@@std@@UAEPAXI@Z 00443b40 f i ChatRecord.obj
 0001:00042b40       ??_E?$basic_ostream@DU?$char_traits@D@std@@@std@@UAEPAXI@Z 00443b40 f i ChatRecord.obj
 0001:00042bd0       ??_E?$basic_streambuf@DU?$char_traits@D@std@@@std@@UAEPAXI@Z 00443bd0 f i ChatRecord.obj
 0001:00042bd0       ??_G?$basic_streambuf@DU?$char_traits@D@std@@@std@@UAEPAXI@Z 00443bd0 f i ChatRecord.obj
 0001:00042c50       ??_G?$codecvt@DDU_Mbstatet@@@std@@MAEPAXI@Z 00443c50 f i ChatRecord.obj
 0001:00042c50       ??_E?$codecvt@DDU_Mbstatet@@@std@@MAEPAXI@Z 00443c50 f i ChatRecord.obj
 0001:00042cd0       ??_G?$ctype@D@std@@MAEPAXI@Z 00443cd0 f i ChatRecord.obj
 0001:00042cd0       ??_E?$ctype@D@std@@MAEPAXI@Z 00443cd0 f i ChatRecord.obj
 0001:00042d00       ??_G_Facet_base@std@@UAEPAXI@Z 00443d00 f i ChatRecord.obj
 0001:00042d00       ??_E_Facet_base@std@@UAEPAXI@Z 00443d00 f i ChatRecord.obj
 0001:00042d30       ??_G_Iostream_error_category@std@@UAEPAXI@Z 00443d30 f i ChatRecord.obj
 0001:00042d30       ??_E_Iostream_error_category@std@@UAEPAXI@Z 00443d30 f i ChatRecord.obj
 0001:00042d50       ??_E_System_error@std@@UAEPAXI@Z 00443d50 f i ChatRecord.obj
 0001:00042d50       ??_G_System_error@std@@UAEPAXI@Z 00443d50 f i ChatRecord.obj
 0001:00042dc0       ??_Ebad_cast@std@@UAEPAXI@Z 00443dc0 f i ChatRecord.obj
 0001:00042dc0       ??_Gbad_cast@std@@UAEPAXI@Z 00443dc0 f i ChatRecord.obj
 0001:00042e30       ??_Ecodecvt_base@std@@UAEPAXI@Z 00443e30 f i ChatRecord.obj
 0001:00042e30       ??_Gcodecvt_base@std@@UAEPAXI@Z 00443e30 f i ChatRecord.obj
 0001:00042ea0       ??_Gctype_base@std@@UAEPAXI@Z 00443ea0 f i ChatRecord.obj
 0001:00042ea0       ??_Ectype_base@std@@UAEPAXI@Z 00443ea0 f i ChatRecord.obj
 0001:00042f10       ??_Gexception@std@@UAEPAXI@Z 00443f10 f i ChatRecord.obj
 0001:00042f10       ??_Eexception@std@@UAEPAXI@Z 00443f10 f i ChatRecord.obj
 0001:00042f70       ??_Efacet@locale@std@@MAEPAXI@Z 00443f70 f i ChatRecord.obj
 0001:00042f70       ??_Gfacet@locale@std@@MAEPAXI@Z 00443f70 f i ChatRecord.obj
 0001:00042fe0       ??_Gfailure@ios_base@std@@UAEPAXI@Z 00443fe0 f i ChatRecord.obj
 0001:00042fe0       ??_Efailure@ios_base@std@@UAEPAXI@Z 00443fe0 f i ChatRecord.obj
 0001:00043050       ??_Eios_base@std@@UAEPAXI@Z 00444050 f i ChatRecord.obj
 0001:00043050       ??_Gios_base@std@@UAEPAXI@Z 00444050 f i ChatRecord.obj
 0001:000430b0       ??_Gruntime_error@std@@UAEPAXI@Z 004440b0 f i ChatRecord.obj
 0001:000430b0       ??_Eruntime_error@std@@UAEPAXI@Z 004440b0 f i ChatRecord.obj
 0001:00043120       ??_Gsystem_error@std@@UAEPAXI@Z 00444120 f i ChatRecord.obj
 0001:00043120       ??_Esystem_error@std@@UAEPAXI@Z 00444120 f i ChatRecord.obj
 0001:00043190       ?GetLastSavePath@CChatRecord@@SA?AV?$basic_string@DU?$char_traits@D@std@@V?$allocator@D@2@@std@@XZ 00444190 f   ChatRecord.obj
 0001:000431f0       ?Save@CChatRecord@@SA_NV?$basic_string@DU?$char_traits@D@std@@V?$allocator@D@2@@std@@K0@Z 004441f0 f   ChatRecord.obj
 0001:00043780       ?_Decref@facet@locale@std@@UAEPAV_Facet_base@3@XZ 00444780 f i ChatRecord.obj
 0001:000437a0       ?_Endwrite@?$basic_filebuf@DU?$char_traits@D@std@@@std@@IAE_NXZ 004447a0 f i ChatRecord.obj
 0001:00043860       ?_Gnavail@?$basic_streambuf@DU?$char_traits@D@std@@@std@@IBE_JXZ 00444860 f i ChatRecord.obj
 0001:00043880       ?_Incref@facet@locale@std@@UAEXXZ 00444880 f i ChatRecord.obj
 0001:00043890       ?_Init@?$basic_filebuf@DU?$char_traits@D@std@@@std@@IAEXPAU_iobuf@@W4_Initfl@12@@Z 00444890 f i ChatRecord.obj
 0001:00043970       ?_Init@?$basic_streambuf@DU?$char_traits@D@std@@@std@@IAEXXZ 00444970 f i ChatRecord.obj
 0001:000439d0       ?_Lock@?$basic_filebuf@DU?$char_traits@D@std@@@std@@UAEXXZ 004449d0 f i ChatRecord.obj
 0001:000439e0       ?_Lock@?$basic_streambuf@DU?$char_traits@D@std@@@std@@UAEXXZ 004449e0 f i ChatRecord.obj
 0001:000439f0       ?_Osfx@?$basic_ostream@DU?$char_traits@D@std@@@std@@QAEXXZ 004449f0 f i ChatRecord.obj
 0001:00043a80       ?_Pnavail@?$basic_streambuf@DU?$char_traits@D@std@@@std@@IBE_JXZ 00444a80 f i ChatRecord.obj
 0001:00043aa0       ?_Reset_back@?$basic_filebuf@DU?$char_traits@D@std@@@std@@AAEXXZ 00444aa0 f i ChatRecord.obj
 0001:00043ad0       ?_Unlock@?$basic_filebuf@DU?$char_traits@D@std@@@std@@UAEXXZ 00444ad0 f i ChatRecord.obj
 0001:00043ae0       ?_Unlock@?$basic_streambuf@DU?$char_traits@D@std@@@std@@UAEXXZ 00444ae0 f i ChatRecord.obj
 0001:00043af0       ?append@?$basic_string@DU?$char_traits@D@std@@V?$allocator@D@2@@std@@QAEAAV12@QBDI@Z 00444af0 f i ChatRecord.obj
 0001:00043c50       ?clear@ios_base@std@@QAEXH_N@Z 00444c50 f i ChatRecord.obj
 0001:00043cd0       ?close@?$basic_filebuf@DU?$char_traits@D@std@@@std@@QAEPAV12@XZ 00444cd0 f i ChatRecord.obj
 0001:00043d90       ?default_error_condition@error_category@std@@UBE?AVerror_condition@2@H@Z 00444d90 f i ChatRecord.obj
 0001:00043db0       ?do_always_noconv@?$codecvt@DDU_Mbstatet@@@std@@MBE_NXZ 00444db0 f i ChatRecord.obj
 0001:00043dc0       ?do_always_noconv@codecvt_base@std@@MBE_NXZ 00444dc0 f i ChatRecord.obj
 0001:00043dd0       ?do_encoding@codecvt_base@std@@MBEHXZ 00444dd0 f i ChatRecord.obj
 0001:00043de0       ?do_in@?$codecvt@DDU_Mbstatet@@@std@@MBEHAAU_Mbstatet@@PBD1AAPBDPAD3AAPAD@Z 00444de0 f i ChatRecord.obj
 0001:00043e00       ?do_length@?$codecvt@DDU_Mbstatet@@@std@@MBEHAAU_Mbstatet@@PBD1I@Z 00444e00 f i ChatRecord.obj
 0001:00043e20       ?do_max_length@codecvt_base@std@@MBEHXZ 00444e20 f i ChatRecord.obj
 0001:00043e30       ?do_narrow@?$ctype@D@std@@MBEDDD@Z 00444e30 f i ChatRecord.obj
 0001:00043e40       ?do_narrow@?$ctype@D@std@@MBEPBDPBD0DPAD@Z 00444e40 f i ChatRecord.obj
 0001:00043e60       ?do_out@?$codecvt@DDU_Mbstatet@@@std@@MBEHAAU_Mbstatet@@PBD1AAPBDPAD3AAPAD@Z 00444e60 f i ChatRecord.obj
 0001:00043e80       ?do_tolower@?$ctype@D@std@@MBEDD@Z 00444e80 f i ChatRecord.obj
 0001:00043ea0       ?do_tolower@?$ctype@D@std@@MBEPBDPADPBD@Z 00444ea0 f i ChatRecord.obj
 0001:00043ef0       ?do_toupper@?$ctype@D@std@@MBEDD@Z 00444ef0 f i ChatRecord.obj
 0001:00043f10       ?do_toupper@?$ctype@D@std@@MBEPBDPADPBD@Z 00444f10 f i ChatRecord.obj
 0001:00043f60       ?do_unshift@?$codecvt@DDU_Mbstatet@@@std@@MBEHAAU_Mbstatet@@PAD1AAPAD@Z 00444f60 f i ChatRecord.obj
 0001:00043f80       ?do_widen@?$ctype@D@std@@MBEDD@Z 00444f80 f i ChatRecord.obj
 0001:00043f90       ?do_widen@?$ctype@D@std@@MBEPBDPBD0PAD@Z 00444f90 f i ChatRecord.obj
 0001:00043fb0       ?equivalent@error_category@std@@UBE_NABVerror_code@2@H@Z 00444fb0 f i ChatRecord.obj
 0001:00043fe0       ?equivalent@error_category@std@@UBE_NHABVerror_condition@2@@Z 00444fe0 f i ChatRecord.obj
 0001:00044020       ?flush@?$basic_ostream@DU?$char_traits@D@std@@@std@@QAEAAV12@XZ 00445020 f i ChatRecord.obj
 0001:00044130       ?imbue@?$basic_filebuf@DU?$char_traits@D@std@@@std@@MAEXABVlocale@2@@Z 00445130 f i ChatRecord.obj
 0001:00044170       ?imbue@?$basic_streambuf@DU?$char_traits@D@std@@@std@@MAEXABVlocale@2@@Z 00445170 f i ChatRecord.obj
 0001:00044180       ?init@?$basic_ios@DU?$char_traits@D@std@@@std@@IAEXPAV?$basic_streambuf@DU?$char_traits@D@std@@@2@_N@Z 00445180 f i ChatRecord.obj
 0001:00044290       ?insert@?$basic_string@DU?$char_traits@D@std@@V?$allocator@D@2@@std@@QAEAAV12@IQBDI@Z 00445290 f i ChatRecord.obj
 0001:00044470       ?make_error_code@std@@YA?AVerror_code@1@W4io_errc@1@@Z 00445470 f i ChatRecord.obj
 0001:000444b0       ?message@_Iostream_error_category@std@@UBE?AV?$basic_string@DU?$char_traits@D@std@@V?$allocator@D@2@@2@H@Z 004454b0 f i ChatRecord.obj
 0001:00044580       ?name@_Iostream_error_category@std@@UBEPBDXZ 00445580 f i ChatRecord.obj
 0001:00044590       ?open@?$basic_filebuf@DU?$char_traits@D@std@@@std@@QAEPAV12@PBDHH@Z 00445590 f i ChatRecord.obj
 0001:000446a0       ?overflow@?$basic_filebuf@DU?$char_traits@D@std@@@std@@MAEHH@Z 004456a0 f i ChatRecord.obj
 0001:00044810       ?overflow@?$basic_streambuf@DU?$char_traits@D@std@@@std@@MAEHH@Z 00445810 f i ChatRecord.obj
 0001:00044820       ?pbackfail@?$basic_filebuf@DU?$char_traits@D@std@@@std@@MAEHH@Z 00445820 f i ChatRecord.obj
 0001:000448d0       ?pbackfail@?$basic_streambuf@DU?$char_traits@D@std@@@std@@MAEHH@Z 004458d0 f i ChatRecord.obj
 0001:000448e0       ?seekoff@?$basic_filebuf@DU?$char_traits@D@std@@@std@@MAE?AV?$fpos@U_Mbstatet@@@2@_JHH@Z 004458e0 f i ChatRecord.obj
 0001:000449c0       ?seekoff@?$basic_streambuf@DU?$char_traits@D@std@@@std@@MAE?AV?$fpos@U_Mbstatet@@@2@_JHH@Z 004459c0 f i ChatRecord.obj
 0001:000449f0       ?seekpos@?$basic_filebuf@DU?$char_traits@D@std@@@std@@MAE?AV?$fpos@U_Mbstatet@@@2@V32@H@Z 004459f0 f i ChatRecord.obj
 0001:00044ac0       ?seekpos@?$basic_streambuf@DU?$char_traits@D@std@@@std@@MAE?AV?$fpos@U_Mbstatet@@@2@V32@H@Z 00445ac0 f i ChatRecord.obj
 0001:00044af0       ?setbuf@?$basic_filebuf@DU?$char_traits@D@std@@@std@@MAEPAV?$basic_streambuf@DU?$char_traits@D@std@@@2@PAD_J@Z 00445af0 f i ChatRecord.obj
 0001:00044b40       ?setbuf@?$basic_streambuf@DU?$char_traits@D@std@@@std@@MAEPAV12@PAD_J@Z 00445b40 f i ChatRecord.obj
 0001:00044b50       ?setstate@?$basic_ios@DU?$char_traits@D@std@@@std@@QAEXH_N@Z 00445b50 f i ChatRecord.obj
 0001:00044b80       ?showmanyc@?$basic_streambuf@DU?$char_traits@D@std@@@std@@MAE_JXZ 00445b80 f i ChatRecord.obj
 0001:00044b90       ?sputc@?$basic_streambuf@DU?$char_traits@D@std@@@std@@QAEHD@Z 00445b90 f i ChatRecord.obj
 0001:00044bd0       ?sync@?$basic_filebuf@DU?$char_traits@D@std@@@std@@MAEHXZ 00445bd0 f i ChatRecord.obj
 0001:00044c00       ?sync@?$basic_streambuf@DU?$char_traits@D@std@@@std@@MAEHXZ 00445c00 f i ChatRecord.obj
 0001:00044c10       ?uflow@?$basic_filebuf@DU?$char_traits@D@std@@@std@@MAEHXZ 00445c10 f i ChatRecord.obj
 0001:00044f10       ?uflow@?$basic_streambuf@DU?$char_traits@D@std@@@std@@MAEHXZ 00445f10 f i ChatRecord.obj
 0001:00044f40       ?underflow@?$basic_filebuf@DU?$char_traits@D@std@@@std@@MAEHXZ 00445f40 f i ChatRecord.obj
 0001:00044f80       ?underflow@?$basic_streambuf@DU?$char_traits@D@std@@@std@@MAEHXZ 00445f80 f i ChatRecord.obj
 0001:00044f90       ?what@exception@std@@UBEPBDXZ 00445f90 f i ChatRecord.obj
 0001:00044fa0       ?widen@?$basic_ios@DU?$char_traits@D@std@@@std@@QBEDD@Z 00445fa0 f i ChatRecord.obj
 0001:00045050       ?xsgetn@?$basic_filebuf@DU?$char_traits@D@std@@@std@@MAE_JPAD_J@Z 00446050 f i ChatRecord.obj
 0001:00045140       ?xsgetn@?$basic_streambuf@DU?$char_traits@D@std@@@std@@MAE_JPAD_J@Z 00446140 f i ChatRecord.obj
 0001:00045210       ?xsputn@?$basic_filebuf@DU?$char_traits@D@std@@@std@@MAE_JPBD_J@Z 00446210 f i ChatRecord.obj
 0001:000452f0       ?xsputn@?$basic_streambuf@DU?$char_traits@D@std@@@std@@MAE_JPBD_J@Z 004462f0 f i ChatRecord.obj
 0001:000453b0       _sprintf_s                 004463b0 f i ChatRecord.obj
 0001:000453e0       ??1MutexArmor@dbc@@QAE@XZ  004463e0 f i Connection.obj
 0001:00045450       ?CHAPSTR@Connection@@QAEXXZ 00446450 f   Connection.obj
 0001:00045520       ?Connect@Connection@@QAE_NPBDGK@Z 00446520 f   Connection.obj
 0001:000455b0       ?Disconnect@Connection@@QAEXH@Z 004465b0 f   Connection.obj
 0001:000455d0       ?GetConnStat@Connection@@QAEHXZ 004465d0 f   Connection.obj
 0001:000456b0       ?OnDisconnect@Connection@@QAEXXZ 004466b0 f   Connection.obj
 0001:000456d0       ?Process@Connection@@UAEJXZ 004466d0 f   Connection.obj
 0001:000457e0       ??0CCircle3DCursor@@QAE@XZ 004467e0 f   CRCircle.obj
 0001:00045850       ??1CursorObj@@UAE@XZ       00446850 f i CRCircle.obj
 0001:00045860       ??_GCCircle3DCursor@@UAEPAXI@Z 00446860 f i CRCircle.obj
 0001:00045860       ??_ECCircle3DCursor@@UAEPAXI@Z 00446860 f i CRCircle.obj
 0001:000458d0       ??_GCursorObj@@UAEPAXI@Z   004468d0 f i CRCircle.obj
 0001:000458d0       ??_ECursorObj@@UAEPAXI@Z   004468d0 f i CRCircle.obj
 0001:00045900       ?Clear@CCircle3DCursor@@UAEXXZ 00446900 f   CRCircle.obj
 0001:00045940       ?Clear@CursorObj@@UAEXXZ   00446940 f i CRCircle.obj
 0001:00045950       ?FrameMove@CCircle3DCursor@@UAEXK@Z 00446950 f   CRCircle.obj
 0001:00045960       ?FrameMove@CursorObj@@UAEXK@Z 00446960 f i CRCircle.obj
 0001:00045970       ?Init@CCircle3DCursor@@UAEXPAVCGameScene@@@Z 00446970 f   CRCircle.obj
 0001:000459a0       ?Init@CursorObj@@UAEXPAVCGameScene@@@Z 004469a0 f i CRCircle.obj
 0001:000459b0       ?MouseDown@CCircle3DCursor@@UAEXH@Z 004469b0 f   CRCircle.obj
 0001:000459c0       ?MouseDown@CursorObj@@UAEXH@Z 004469c0 f i CRCircle.obj
 0001:000459d0       ?MouseUp@CCircle3DCursor@@UAEXH@Z 004469d0 f   CRCircle.obj
 0001:000459e0       ?MouseUp@CursorObj@@UAEXH@Z 004469e0 f i CRCircle.obj
 0001:000459f0       ?MoveTo@CCircle3DCursor@@UAEXAAUD3DXVECTOR3@@@Z 004469f0 f   CRCircle.obj
 0001:00045a10       ?MoveTo@CursorObj@@UAEXAAUD3DXVECTOR3@@@Z 00446a10 f i CRCircle.obj
 0001:00045a20       ?Render@CCircle3DCursor@@UAEXXZ 00446a20 f   CRCircle.obj
 0001:00045a30       ?Render@CursorObj@@UAEXXZ  00446a30 f i CRCircle.obj
 0001:00045a40       ?SetIsShow@CCircle3DCursor@@UAEX_N@Z 00446a40 f   CRCircle.obj
 0001:00045a60       ?SetIsShow@CursorObj@@UAEX_N@Z 00446a60 f i CRCircle.obj
 0001:00045a70       ?SetRadius@CCircle3DCursor@@UAEXI@Z 00446a70 f   CRCircle.obj
 0001:00045c10       ?SetRadius@CursorObj@@UAEXI@Z 00446c10 f i CRCircle.obj
 0001:00045c20       ??0CRCursor@@QAE@XZ        00446c20 f   CRCursor.obj
 0001:00045c80       ??_GCRCursor@@UAEPAXI@Z    00446c80 f i CRCursor.obj
 0001:00045c80       ??_ECRCursor@@UAEPAXI@Z    00446c80 f i CRCursor.obj
 0001:00045d00       ?Clear@CRCursor@@UAEXXZ    00446d00 f   CRCursor.obj
 0001:00045d20       ?FrameMove@CRCursor@@UAEXK@Z 00446d20 f   CRCursor.obj
 0001:00045d40       ?Init@CRCursor@@UAEXPAVCGameScene@@@Z 00446d40 f   CRCursor.obj
 0001:00045d50       ?MouseDown@CRCursor@@UAEXH@Z 00446d50 f   CRCursor.obj
 0001:00045db0       ?MouseUp@CRCursor@@UAEXH@Z 00446db0 f   CRCursor.obj
 0001:00045dc0       ?MoveTo@CRCursor@@UAEXAAUD3DXVECTOR3@@@Z 00446dc0 f   CRCursor.obj
 0001:00045de0       ?Render@CRCursor@@UAEXXZ   00446de0 f   CRCursor.obj
 0001:00045e00       ??0CursorMgr@@QAE@XZ       00446e00 f   CRCursorObj.obj
 0001:00045e20       ?ClearMemory@CursorMgr@@QAEXXZ 00446e20 f   CRCursorObj.obj
 0001:00045e60       ?InitMemory@CursorMgr@@QAEXXZ 00446e60 f   CRCursorObj.obj
 0001:00045f00       ?SceneClear@CursorMgr@@QAEXXZ 00446f00 f   CRCursorObj.obj
 0001:00045f30       ?SceneInit@CursorMgr@@QAEXPAVCGameScene@@@Z 00446f30 f   CRCursorObj.obj
 0001:00045f60       ?SetCursor@CursorMgr@@QAEXI@Z 00446f60 f   CRCursorObj.obj
 0001:00045fb0       ??$_Traits_equal@U?$char_traits@D@std@@@std@@YA_NQBDI0I@Z 00446fb0 f i CreateChaScene.obj
 0001:00046020       ??0CCreateChaScene@@QAE@AAUstSceneInitParam@@@Z 00447020 f   CreateChaScene.obj
 0001:00046140       ??0SItemGrid@@QAE@FF@Z     00447140 f i CreateChaScene.obj
 0001:00046190       ??1LoginScene_CreateCha@@QAE@XZ 00447190 f i CreateChaScene.obj
 0001:000461f0       ??_GCCreateChaScene@@UAEPAXI@Z 004471f0 f i CreateChaScene.obj
 0001:000461f0       ??_ECCreateChaScene@@UAEPAXI@Z 004471f0 f i CreateChaScene.obj
 0001:000462c0       ?ChangeFace@CCreateChaScene@@IAEXW4eDirectType@1@@Z 004472c0 f   CreateChaScene.obj
 0001:00046360       ?ChangeHair@CCreateChaScene@@IAEXW4eDirectType@1@@Z 00447360 f   CreateChaScene.obj
 0001:00046420       ?CreateNewCha@CCreateChaScene@@QAEXXZ 00447420 f   CreateChaScene.obj
 0001:00046610       ?DarkScene@CCreateChaScene@@IAEX_N@Z 00447610 f   CreateChaScene.obj
 0001:00046630       ?Error@@YA_NPBD00@Z        00447630 f i CreateChaScene.obj
 0001:00046650       ?FlashProc@CGameScene@@MAEHIIJ@Z 00447650 f i CreateChaScene.obj
 0001:00046660       ?GetCitiesDescripts@CCreateChaScene@@CAPBDH@Z 00447660 f   CreateChaScene.obj
 0001:000466d0       ?GetCityZone@CCreateChaScene@@AAEHHH@Z 004476d0 f   CreateChaScene.obj
 0001:00046720       ?GetCurrScene@CCreateChaScene@@SAAAV1@XZ 00447720 f   CreateChaScene.obj
 0001:00046740       ?InitChaFoundFrm@CCreateChaScene@@IAEXXZ 00447740 f   CreateChaScene.obj
 0001:00046910       ?IsValidCheckChaName@CCreateChaScene@@IAE_NPBD@Z 00447910 f   CreateChaScene.obj
 0001:00046b70       ?LoadArrowMark@LoginScene_CreateCha@@QAE_NPBDPBUD3DXVECTOR3@@@Z 00447b70 f   CreateChaScene.obj
 0001:00046d20       ?LoadModelLXO@LoginScene_CreateCha@@QAEHPBD@Z 00447d20 f   CreateChaScene.obj
 0001:000473a0       ?LoadingCall@CCreateChaScene@@UAEXXZ 004483a0 f   CreateChaScene.obj
 0001:000473b0       ?NewChaError@CCreateChaScene@@QAEXHPBD@Z 004483b0 f   CreateChaScene.obj
 0001:00047470       ?OnMouseMove@LoginScene_CreateCha@@QAEXHHH@Z 00448470 f   CreateChaScene.obj
 0001:00047650       ?SendChaToServ@CCreateChaScene@@IAEXXZ 00448650 f   CreateChaScene.obj
 0001:000477c0       ?SetInvisibleArray@LoginScene_CreateCha@@QAEH_NH@Z 004487c0 f   CreateChaScene.obj
 0001:000478b0       ?SetScreen@CGameScene@@UAEXHH_N@Z 004488b0 f i CreateChaScene.obj
 0001:000478c0       ?ShowAllRoleInfo@CCreateChaScene@@AAEXH@Z 004488c0 f   CreateChaScene.obj
 0001:00047c40       ?ShowChaFoundForm@CCreateChaScene@@IAEXXZ 00448c40 f   CreateChaScene.obj
 0001:00047cf0       ?_ChaCityFrmMouseEvent@CCreateChaScene@@KAXPAVCCompent@GUI@@HHHK@Z 00448cf0 f   CreateChaScene.obj
 0001:00047eb0       ?_ChaFoundFrmMouseEvent@CCreateChaScene@@KAXPAVCCompent@GUI@@HHHK@Z 00448eb0 f   CreateChaScene.obj
 0001:00048120       ?_Clear@CCreateChaScene@@MAE_NXZ 00449120 f   CreateChaScene.obj
 0001:00048170       ?_FrameMove@CCreateChaScene@@MAEXK@Z 00449170 f   CreateChaScene.obj
 0001:000483e0       ?_Init@CCreateChaScene@@MAE_NXZ 004493e0 f   CreateChaScene.obj
 0001:00048640       ?_InitChaObjSeq@LoginScene_CreateCha@@AAEHXZ 00449640 f   CreateChaScene.obj
 0001:000488e0       ?_InitUI@CCreateChaScene@@IAE_NXZ 004498e0 f   CreateChaScene.obj
 0001:00049220       ?_KeyDownEvent@CGameScene@@MAEXH@Z 0044a220 f i CreateChaScene.obj
 0001:00049230       ?_KeyUpEvent@CGameScene@@MAEXH@Z 0044a230 f i CreateChaScene.obj
 0001:00049240       ?_MouseButtonDB@CGameScene@@MAE_NH@Z 0044a240 f i CreateChaScene.obj
 0001:00049250       ?_MouseButtonDown@CCreateChaScene@@MAE_NH@Z 0044a250 f   CreateChaScene.obj
 0001:000494a0       ?_MouseButtonUp@CGameScene@@MAE_NH@Z 0044a4a0 f i CreateChaScene.obj
 0001:000494b0       ?_MouseMove@CCreateChaScene@@MAE_NHH@Z 0044a4b0 f   CreateChaScene.obj
 0001:000494f0       ?_MouseScroll@CGameScene@@MAE_NH@Z 0044a4f0 f i CreateChaScene.obj
 0001:00049500       ?_QuitFrmMouseEvent@CCreateChaScene@@KAXPAVCCompent@GUI@@HHHK@Z 0044a500 f   CreateChaScene.obj
 0001:00049620       ?_Render@CCreateChaScene@@MAEXXZ 0044a620 f   CreateChaScene.obj
 0001:00049730       ?_SelectCity@CCreateChaScene@@KAXPAVCCompent@GUI@@HHHK@Z 0044a730 f   CreateChaScene.obj
 0001:00049770       ?__cha_render_event@CCreateChaScene@@KAXPAVC3DCompent@GUI@@HH@Z 0044a770 f   CreateChaScene.obj
 0001:00049950       ?__gui_event_left_continue_rotate@CCreateChaScene@@KAXPAVCGuiData@GUI@@@Z 0044a950 f   CreateChaScene.obj
 0001:00049990       ?__gui_event_left_face@CCreateChaScene@@KAXPAVCGuiData@GUI@@HHK@Z 0044a990 f   CreateChaScene.obj
 0001:000499c0       ?__gui_event_left_hair@CCreateChaScene@@KAXPAVCGuiData@GUI@@HHK@Z 0044a9c0 f   CreateChaScene.obj
 0001:000499f0       ?__gui_event_left_rotate@CCreateChaScene@@KAXPAVCGuiData@GUI@@HHK@Z 0044a9f0 f   CreateChaScene.obj
 0001:00049a30       ?__gui_event_right_continue_rotate@CCreateChaScene@@KAXPAVCGuiData@GUI@@@Z 0044aa30 f   CreateChaScene.obj
 0001:00049a70       ?__gui_event_right_face@CCreateChaScene@@KAXPAVCGuiData@GUI@@HHK@Z 0044aa70 f   CreateChaScene.obj
 0001:00049aa0       ?__gui_event_right_hair@CCreateChaScene@@KAXPAVCGuiData@GUI@@HHK@Z 0044aaa0 f   CreateChaScene.obj
 0001:00049ad0       ?__gui_event_right_rotate@CCreateChaScene@@KAXPAVCGuiData@GUI@@HHK@Z 0044aad0 f   CreateChaScene.obj
 0001:00049b10       ?_evtAimiInfoFormMouseEvent@CCreateChaScene@@CAXPAVCCompent@GUI@@HHHK@Z 0044ab10 f   CreateChaScene.obj
 0001:0004a180       ?_evtCaxiusInfoFormMouseEvent@CCreateChaScene@@CAXPAVCCompent@GUI@@HHHK@Z 0044b180 f   CreateChaScene.obj
 0001:0004a550       ?_evtFelierInfoFormMouseEvent@CCreateChaScene@@CAXPAVCCompent@GUI@@HHHK@Z 0044b550 f   CreateChaScene.obj
 0001:0004ad80       ?_evtLanchInfoFormMouseEvent@CCreateChaScene@@CAXPAVCCompent@GUI@@HHHK@Z 0044bd80 f   CreateChaScene.obj
 0001:0004b230       ?_evtRoleAllInfoFormMouseEvent@CCreateChaScene@@CAXPAVCCompent@GUI@@HHHK@Z 0044c230 f   CreateChaScene.obj
 0001:0004b370       ?_evtRoleInfoFormMouseEvent@CCreateChaScene@@CAXPAVCCompent@GUI@@HHHK@Z 0044c370 f   CreateChaScene.obj
 0001:0004b4d0       ?g_GetServerError@@YAPBDH@Z 0044c4d0 f i CreateChaScene.obj
 0001:0004ba80       ?des@@YAXPAE0@Z            0044ca80 f   d3des.obj
 0001:0004c440       ?deskey@@YAXPAEF@Z         0044d440 f   d3des.obj
 0001:0004c6a0       ??0CDrawPointList@@QAE@XZ  0044d6a0 f   DrawPointList.obj
 0001:0004c710       ??1?$vector@UstPoint@CDrawPointList@@V?$allocator@UstPoint@CDrawPointList@@@std@@@std@@QAE@XZ 0044d710 f i DrawPointList.obj
 0001:0004c7a0       ??1CDrawPointList@@QAE@XZ  0044d7a0 f   DrawPointList.obj
 0001:0004c7f0       ?Create@CEffectBox@@QAEXPAUIDirect3DDevice8@@M@Z 0044d7f0 f i DrawPointList.obj
 0001:0004cb00       ?OnLostDevice@CDrawPointList@@QAEXXZ 0044db00 f   DrawPointList.obj
 0001:0004cb50       ?OnResetDevice@CDrawPointList@@QAEXXZ 0044db50 f   DrawPointList.obj
 0001:0004cbc0       ?Reader@CDrawPointList@@QAEXXZ 0044dbc0 f   DrawPointList.obj
 0001:0004cd40       ??0DSoundInstance@@QAE@PAVDSoundManager@@PAUIDirectSoundBuffer@@@Z 0044dd40 f   DSoundInstance.obj
 0001:0004cec0       ??1SoundInstance@@UAE@XZ   0044dec0 f i DSoundInstance.obj
 0001:0004ced0       ??_EDSoundInstance@@UAEPAXI@Z 0044ded0 f i DSoundInstance.obj
 0001:0004ced0       ??_GDSoundInstance@@UAEPAXI@Z 0044ded0 f i DSoundInstance.obj
 0001:0004cf50       ??_ESoundInstance@@UAEPAXI@Z 0044df50 f i DSoundInstance.obj
 0001:0004cf50       ??_GSoundInstance@@UAEPAXI@Z 0044df50 f i DSoundInstance.obj
 0001:0004cf80       ?AdjustPitch@DSoundInstance@@UAEXN@Z 0044df80 f   DSoundInstance.obj
 0001:0004cff0       ?GetVolume@DSoundInstance@@UAENXZ 0044dff0 f   DSoundInstance.obj
 0001:0004d000       ?IsPlaying@DSoundInstance@@UAE_NXZ 0044e000 f   DSoundInstance.obj
 0001:0004d030       ?IsReleased@DSoundInstance@@UAE_NXZ 0044e030 f   DSoundInstance.obj
 0001:0004d060       ?Play@DSoundInstance@@UAE_N_N0@Z 0044e060 f   DSoundInstance.obj
 0001:0004d0c0       ?RehupVolume@DSoundInstance@@IAEXXZ 0044e0c0 f   DSoundInstance.obj
 0001:0004d110       ?Release@DSoundInstance@@UAEXXZ 0044e110 f   DSoundInstance.obj
 0001:0004d120       ?SetBasePan@DSoundInstance@@UAEXH@Z 0044e120 f   DSoundInstance.obj
 0001:0004d150       ?SetBaseVolume@DSoundInstance@@UAEXN@Z 0044e150 f   DSoundInstance.obj
 0001:0004d1b0       ?SetPan@DSoundInstance@@UAEXH@Z 0044e1b0 f   DSoundInstance.obj
 0001:0004d1e0       ?SetVolume@DSoundInstance@@UAEXN@Z 0044e1e0 f   DSoundInstance.obj
 0001:0004d240       ?Stop@DSoundInstance@@UAEXXZ 0044e240 f   DSoundInstance.obj
 0001:0004d270       ??$?HDU?$char_traits@D@std@@V?$allocator@D@1@@std@@YA?AV?$basic_string@DU?$char_traits@D@std@@V?$allocator@D@2@@0@ABV10@QBD@Z 0044e270 f i DSoundManager.obj
 0001:0004d330       ??0DSoundManager@@QAE@PAUHWND__@@@Z 0044e330 f   DSoundManager.obj
 0001:0004d540       ??1SoundManager@@UAE@XZ    0044e540 f i DSoundManager.obj
 0001:0004d550       ??4?$basic_string@DU?$char_traits@D@std@@V?$allocator@D@2@@std@@QAEAAV01@$$QAV01@@Z 0044e550 f i DSoundManager.obj
 0001:0004d5c0       ??_GDSoundManager@@UAEPAXI@Z 0044e5c0 f i DSoundManager.obj
 0001:0004d5c0       ??_EDSoundManager@@UAEPAXI@Z 0044e5c0 f i DSoundManager.obj
 0001:0004d6c0       ??_ESoundManager@@UAEPAXI@Z 0044e6c0 f i DSoundManager.obj
 0001:0004d6c0       ??_GSoundManager@@UAEPAXI@Z 0044e6c0 f i DSoundManager.obj
 0001:0004d6f0       ?FadeByWindow@DSoundManager@@UAEXM@Z 0044e6f0 f   DSoundManager.obj
 0001:0004d780       ?Flush@DSoundManager@@UAEXXZ 0044e780 f   DSoundManager.obj
 0001:0004d790       ?GetMasterVolume@DSoundManager@@UAENXZ 0044e790 f   DSoundManager.obj
 0001:0004d8e0       ?GetSoundInstance@DSoundManager@@UAEPAVSoundInstance@@I@Z 0044e8e0 f   DSoundManager.obj
 0001:0004dab0       ?GetTheFileTime@DSoundManager@@IAE_NABV?$basic_string@DU?$char_traits@D@std@@V?$allocator@D@2@@std@@PAU_FILETIME@@@Z 0044eab0 f   DSoundManager.obj
 0001:0004db10       ?Initialized@DSoundManager@@UAE_NXZ 0044eb10 f   DSoundManager.obj
 0001:0004db20       ?LoadAUSound@DSoundManager@@IAE_NIABV?$basic_string@DU?$char_traits@D@std@@V?$allocator@D@2@@std@@@Z 0044eb20 f   DSoundManager.obj
 0001:0004df60       ?LoadSound@DSoundManager@@UAEHABV?$basic_string@DU?$char_traits@D@std@@V?$allocator@D@2@@std@@@Z 0044ef60 f   DSoundManager.obj
 0001:0004e000       ?LoadSound@DSoundManager@@UAE_NHABV?$basic_string@DU?$char_traits@D@std@@V?$allocator@D@2@@std@@@Z 0044f000 f   DSoundManager.obj
 0001:0004e3d0       ?LoadWAVSound@DSoundManager@@IAE_NIABV?$basic_string@DU?$char_traits@D@std@@V?$allocator@D@2@@std@@@Z 0044f3d0 f   DSoundManager.obj
 0001:0004e990       ?ReleaseChannels@DSoundManager@@UAEXXZ 0044f990 f   DSoundManager.obj
 0001:0004e9c0       ?ReleaseSound@DSoundManager@@UAEXI@Z 0044f9c0 f   DSoundManager.obj
 0001:0004ea00       ?ReleaseSounds@DSoundManager@@UAEXXZ 0044fa00 f   DSoundManager.obj
 0001:0004ea30       ?SetBasePan@DSoundManager@@UAE_NIH@Z 0044fa30 f   DSoundManager.obj
 0001:0004ea60       ?SetBaseVolume@DSoundManager@@UAE_NIN@Z 0044fa60 f   DSoundManager.obj
 0001:0004ea90       ?SetCooperativeWindow@DSoundManager@@UAEXPAUHWND__@@_N@Z 0044fa90 f   DSoundManager.obj
 0001:0004eab0       ?SetMasterVolume@DSoundManager@@UAEXN@Z 0044fab0 f   DSoundManager.obj
 0001:0004ebf0       ?SetVolume@DSoundManager@@UAEXN@Z 0044fbf0 f   DSoundManager.obj
 0001:0004ec30       ?StopAllSounds@DSoundManager@@UAEXXZ 0044fc30 f   DSoundManager.obj
 0001:0004ec60       ?VolumeToDB@DSoundManager@@IAEHN@Z 0044fc60 f   DSoundManager.obj
 0001:0004ecb0       ?WriteWAV@DSoundManager@@IAE_NIABV?$basic_string@DU?$char_traits@D@std@@V?$allocator@D@2@@std@@0@Z 0044fcb0 f   DSoundManager.obj
 0001:0004ef70       ?_Become_small@?$basic_string@DU?$char_traits@D@std@@V?$allocator@D@2@@std@@QAEXXZ 0044ff70 f i DSoundManager.obj
 0001:0004efc0       ?reserve@?$basic_string@DU?$char_traits@D@std@@V?$allocator@D@2@@std@@QAEXI@Z 0044ffc0 f i DSoundManager.obj
 0001:0004f0e0       ??0CEffDelay@@QAE@PAVCEffectObj@@@Z 004500e0 f   EffDelay.obj
 0001:0004f120       ??1CEffDelay@@QAE@XZ       00450120 f   EffDelay.obj
 0001:0004f130       ?Exec@CEffDelay@@QAEXXZ    00450130 f   EffDelay.obj
 0001:0004f1c0       ?Exec@CHitRepresent@@AAEXPAVCServerHarm@@@Z 004501c0 f   EffDelay.obj
 0001:0004f360       ?Part_trace@@YAXPAVCMagicCtrl@@PAX@Z 00450360 f i EffectObj.obj
 0001:0004f6a0       ?Part_drop@@YAXPAVCMagicCtrl@@PAX@Z 004506a0 f i EffectObj.obj
 0001:0004f790       ?Part_fly@@YAXPAVCMagicCtrl@@PAX@Z 00450790 f i EffectObj.obj
 0001:0004f840       ?Part_fshade@@YAXPAVCMagicCtrl@@PAX@Z 00450840 f i EffectObj.obj
 0001:0004fb30       ?Part_arc@@YAXPAVCMagicCtrl@@PAX@Z 00450b30 f i EffectObj.obj
 0001:0004fcf0       ?Part_dirlight@@YAXPAVCMagicCtrl@@PAX@Z 00450cf0 f i EffectObj.obj
 0001:0004fd80       ?Part_dist@@YAXPAVCMagicCtrl@@PAX@Z 00450d80 f i EffectObj.obj
 0001:0004fe20       ?Part_bind@@YAXPAVCEffectObj@@@Z 00450e20 f i EffectObj.obj
 0001:0004ff90       ?Part_follow@@YAXPAVCEffectObj@@@Z 00450f90 f i EffectObj.obj
 0001:00050110       ?Part_foldir@@YAXPAVCEffectObj@@@Z 00451110 f i EffectObj.obj
 0001:000501a0       ?Part_fan@@YAXPAVCEffectObj@@PAUD3DXVECTOR3@@1@Z 004511a0 f i EffectObj.obj
 0001:000503e0       ?Part_sequence@@YAXPAVCEffectObj@@PAUD3DXVECTOR3@@1@Z 004513e0 f i EffectObj.obj
 0001:000504b0       ??$_Resize@V<lambda_2b6654e67a91186cf2b3ea8c5d1f7ef3>@@@?$vector@GV?$allocator@G@std@@@std@@AAEXIV<lambda_2b6654e67a91186cf2b3ea8c5d1f7ef3>@@@Z 004514b0 f i EffectObj.obj
 0001:00050670       ??$_Resize@V<lambda_6f1519677aa80d9f3f10e6421d029c52>@@@?$vector@PAVCPug@@V?$allocator@PAVCPug@@@std@@@std@@AAEXIV<lambda_6f1519677aa80d9f3f10e6421d029c52>@@@Z 00451670 f i EffectObj.obj
 0001:00050840       ??$_Resize@V<lambda_9ec7e46413a5edd1236c68c902c1662f>@@@?$vector@PAVCMagicCtrl@@V?$allocator@PAVCMagicCtrl@@@std@@@std@@AAEXIV<lambda_9ec7e46413a5edd1236c68c902c1662f>@@@Z 00451840 f i EffectObj.obj
 0001:00050a10       ??0?$basic_string@DU?$char_traits@D@std@@V?$allocator@D@2@@std@@QAE@QBD@Z 00451a10 f i EffectObj.obj
 0001:00050a50       ??0CEffectObj@@QAE@XZ      00451a50 f   EffectObj.obj
 0001:00050ce0       ??0CPugMgr@@QAE@XZ         00451ce0 f   EffectObj.obj
 0001:00050d80       ??0CShadeEff@@QAE@XZ       00451d80 f   EffectObj.obj
 0001:00050e30       ??0SkillCtrl@@QAE@XZ       00451e30 f i EffectObj.obj
 0001:00050e60       ??1?$S_FVector@G@@QAE@XZ   00451e60 f i EffectObj.obj
 0001:00050eb0       ??1?$vector@GV?$allocator@G@std@@@std@@QAE@XZ 00451eb0 f i EffectObj.obj
 0001:00050f40       ??1?$vector@PAVCMagicCtrl@@V?$allocator@PAVCMagicCtrl@@@std@@@std@@QAE@XZ 00451f40 f i EffectObj.obj
 0001:00050fd0       ??1?$vector@PAVCPug@@V?$allocator@PAVCPug@@@std@@@std@@QAE@XZ 00451fd0 f i EffectObj.obj
 0001:00051060       ??1CEffectObj@@UAE@XZ      00452060 f   EffectObj.obj
 0001:00051170       ??1CPugMgr@@QAE@XZ         00452170 f   EffectObj.obj
 0001:00051240       ??1CShadeEff@@UAE@XZ       00452240 f   EffectObj.obj
 0001:000512c0       ??1Eff_Property@@QAE@XZ    004522c0 f i EffectObj.obj
 0001:00051310       ?BindingBone@CEffectObj@@QAEXPAUD3DXMATRIX@@@Z 00452310 f   EffectObj.obj
 0001:00051350       ?Clear@CEffectObj@@QAEXXZ  00452350 f   EffectObj.obj
 0001:00051580       ?Create@CEffectObj@@QAEHH@Z 00452580 f   EffectObj.obj
 0001:00051b60       ?Create@CShadeEff@@QAE_NH@Z 00452b60 f   EffectObj.obj
 0001:00051be0       ?Create@CShadeEff@@QAE_NPAVCShadeInfo@@@Z 00452be0 f   EffectObj.obj
 0001:00051de0       ?CreateGroupMagic@CEffectObj@@QAEHH@Z 00452de0 f   EffectObj.obj
 0001:00052080       ?Emission@CEffectObj@@QAEXHPAUD3DXVECTOR3@@0H@Z 00453080 f   EffectObj.obj
 0001:000522b0       ?Emission@CShadeEff@@QAEXGPAUD3DXVECTOR3@@0@Z 004532b0 f   EffectObj.obj
 0001:00052330       ?End@CEffectObj@@QAEXXZ    00453330 f   EffectObj.obj
 0001:00052350       ?FrameMove@CEffectObj@@UAEXK@Z 00453350 f   EffectObj.obj
 0001:00052510       ?FrameMove@CPugMgr@@QAEXK@Z 00453510 f   EffectObj.obj
 0001:00052620       ?FrameMove@CShadeEff@@UAEXK@Z 00453620 f   EffectObj.obj
 0001:00052640       ?HitTestMap@CEffectObj@@QAEHPAUD3DXVECTOR3@@@Z 00453640 f   EffectObj.obj
 0001:000526a0       ?InitMemory@CPugMgr@@QAEXPAVLEMap@@@Z 004536a0 f   EffectObj.obj
 0001:00052730       ?MoveTo@CEffectObj@@QAEXPAUD3DXVECTOR3@@@Z 00453730 f   EffectObj.obj
 0001:00052890       ?MoveTo@CShadeEff@@QAEXPAUD3DXVECTOR3@@@Z 00453890 f   EffectObj.obj
 0001:000528e0       ?NewPug@CPugMgr@@QAEXPAUD3DXVECTOR3@@M@Z 004538e0 f   EffectObj.obj
 0001:00052c10       ?Render@CEffectObj@@UAEXXZ 00453c10 f   EffectObj.obj
 0001:00052f10       ?Render@CNavigationBar@@QAEXXZ 00453f10 f   EffectObj.obj
 0001:000532b0       ?Render@CPugMgr@@QAEXXZ    004542b0 f   EffectObj.obj
 0001:000532f0       ?Render@CShadeEff@@UAEXXZ  004542f0 f   EffectObj.obj
 0001:000534f0       ?SetEffectDir@CEffectObj@@QAEXH@Z 004544f0 f   EffectObj.obj
 0001:00053580       ?SetInvalidByTime@CEffectObj@@QAEXK@Z 00454580 f   EffectObj.obj
 0001:000535d0       ?SetScene@CEffectObj@@UAEXPAVCGameScene@@@Z 004545d0 f   EffectObj.obj
 0001:000535f0       ?SetScene@CShadeEff@@UAEXPAVCGameScene@@@Z 004545f0 f   EffectObj.obj
 0001:00053610       ?SetSkillCtrl@CEffectObj@@QAEXPAUSkillCtrl@@@Z 00454610 f i EffectObj.obj
 0001:00053690       ?SetTarget@CNavigationBar@@QAEXPADAAUD3DXVECTOR3@@@Z 00454690 f   EffectObj.obj
 0001:00053b50       ?_Create@CEffectObj@@EAEHHH@Z 00454b50 f i EffectObj.obj
 0001:00053b60       ?_Create@CShadeEff@@EAEHHH@Z 00454b60 f i EffectObj.obj
 0001:00053b70       ?_Getal@?$_Vector_alloc@U?$_Vec_base_types@GV?$allocator@G@std@@@std@@@std@@QAEAAV?$allocator@G@2@XZ 00454b70 f i EffectObj.obj
 0001:00053b80       ?_Getal@?$_Vector_alloc@U?$_Vec_base_types@PAVCMagicCtrl@@V?$allocator@PAVCMagicCtrl@@@std@@@std@@@std@@QAEAAV?$allocator@PAVCMagicCtrl@@@2@XZ 00454b80 f i EffectObj.obj
 0001:00053b90       ?_Getal@?$_Vector_alloc@U?$_Vec_base_types@PAVCPug@@V?$allocator@PAVCPug@@@std@@@std@@@std@@QAEAAV?$allocator@PAVCPug@@@2@XZ 00454b90 f i EffectObj.obj
 0001:00053ba0       ?_UpdateHeight@CEffectObj@@MAEXXZ 00454ba0 f   EffectObj.obj
 0001:00053c10       ?_UpdateHeight@CShadeEff@@MAEXXZ 00454c10 f i EffectObj.obj
 0001:00053c20       ?_UpdatePitch@CEffectObj@@MAEXXZ 00454c20 f   EffectObj.obj
 0001:00053c50       ?_UpdatePitch@CShadeEff@@MAEXXZ 00454c50 f i EffectObj.obj
 0001:00053c60       ?_UpdatePos@CEffectObj@@MAEXXZ 00454c60 f   EffectObj.obj
 0001:00053ce0       ?_UpdatePos@CShadeEff@@MAEXXZ 00454ce0 f i EffectObj.obj
 0001:00053cf0       ?_UpdateRoll@CEffectObj@@MAEXXZ 00454cf0 f   EffectObj.obj
 0001:00053d20       ?_UpdateRoll@CShadeEff@@MAEXXZ 00454d20 f i EffectObj.obj
 0001:00053d30       ?_UpdateScale@CEffectObj@@MAEXMMM@Z 00454d30 f   EffectObj.obj
 0001:00053d70       ?_UpdateValid@CEffectObj@@MAEXH@Z 00454d70 f   EffectObj.obj
 0001:00053e20       ?_UpdateYaw@CEffectObj@@MAEXXZ 00454e20 f   EffectObj.obj
 0001:00053e50       ?_UpdateYaw@CShadeEff@@MAEXXZ 00454e50 f i EffectObj.obj
 0001:00053e60       ?_Xlength@?$vector@GV?$allocator@G@std@@@std@@CAXXZ 00454e60 f i EffectObj.obj
 0001:00053e70       ?_Xlength@?$vector@PAVCMagicCtrl@@V?$allocator@PAVCMagicCtrl@@@std@@@std@@CAXXZ 00454e70 f i EffectObj.obj
 0001:00053e80       ?_Xlength@?$vector@PAVCPug@@V?$allocator@PAVCPug@@@std@@@std@@CAXXZ 00454e80 f i EffectObj.obj
 0001:00053e90       ?deallocate@?$allocator@G@std@@QAEXQAGI@Z 00454e90 f i EffectObj.obj
 0001:00053ed0       ?deallocate@?$allocator@PAVCMagicCtrl@@@std@@QAEXQAPAVCMagicCtrl@@I@Z 00454ed0 f i EffectObj.obj
 0001:00053f10       ?deallocate@?$allocator@PAVCPug@@@std@@QAEXQAPAVCPug@@I@Z 00454f10 f i EffectObj.obj
 0001:00053f50       ?setFollowObj@CEffectObj@@QAEXPAVCSceneNode@@W4NODE_TYPE@@HH@Z 00454f50 f   EffectObj.obj
 0001:00054110       ??$_Emplace_reallocate@ABQAVCEvent@@@?$vector@PAVCEvent@@V?$allocator@PAVCEvent@@@std@@@std@@QAEPAPAVCEvent@@QAPAV2@ABQAV2@@Z 00455110 f i Event.obj
 0001:000542d0       ??0CEventMgr@@QAE@PAVCGameScene@@@Z 004552d0 f   Event.obj
 0001:00054330       ??1?$vector@PAVCEvent@@V?$allocator@PAVCEvent@@@std@@@std@@QAE@XZ 00455330 f i Event.obj
 0001:000543c0       ??1CEventMgr@@QAE@XZ       004553c0 f   Event.obj
 0001:00054450       ?Clear@CEventMgr@@QAEXXZ   00455450 f   Event.obj
 0001:000544d0       ?CreateEventA@CEventMgr@@QAEPAVCEvent@@K@Z 004554d0 f   Event.obj
 0001:000546a0       ?DistanceTrigger@CEventMgr@@QAEXPAVCCharacter@@@Z 004556a0 f   Event.obj
 0001:000548e0       ?ExecEvent@CEvent@@QAEXPAVCCharacter@@@Z 004558e0 f   Event.obj
 0001:00054a20       ?Render@CEventMgr@@QAEXXZ  00455a20 f   Event.obj
 0001:00054ac0       ?Search@CEventMgr@@QAEPAVCEvent@@J@Z 00455ac0 f   Event.obj
 0001:00054b00       ?_Xlength@?$vector@PAVCEvent@@V?$allocator@PAVCEvent@@@std@@@std@@CAXXZ 00455b00 f i Event.obj
 0001:00054b10       ?deallocate@?$allocator@PAVCEvent@@@std@@QAEXQAPAVCEvent@@I@Z 00455b10 f i Event.obj
 0001:00054b50       ??$_Resize@V<lambda_1c24340e0c23a1361b49dbc3231bff51>@@@?$vector@EV?$allocator@E@std@@@std@@AAEXIV<lambda_1c24340e0c23a1361b49dbc3231bff51>@@@Z 00455b50 f i FindPath.obj
 0001:00054d10       ??$_Resize@V<lambda_c8025fdda5881910c4835e840fd1f2b9>@@@?$vector@UD3DXVECTOR3@@V?$allocator@UD3DXVECTOR3@@@std@@@std@@AAEXIV<lambda_c8025fdda5881910c4835e840fd1f2b9>@@@Z 00455d10 f i FindPath.obj
 0001:00054f10       ??0CFindPath@@QAE@JH@Z     00455f10 f   FindPath.obj
 0001:000550b0       ??0CFindPathEx@@QAE@XZ     004560b0 f   FindPath.obj
 0001:000551a0       ??1?$S_BVECTOR@E@@QAE@XZ   004561a0 f i FindPath.obj
 0001:000551f0       ??1?$S_BVECTOR@UD3DXVECTOR3@@@@QAE@XZ 004561f0 f i FindPath.obj
 0001:00055240       ??1?$_Deque_alloc@U?$_Deque_base_types@UD3DXVECTOR2@@V?$allocator@UD3DXVECTOR2@@@std@@@std@@@std@@QAE@XZ 00456240 f i FindPath.obj
 0001:00055290       ??1?$deque@UD3DXVECTOR2@@V?$allocator@UD3DXVECTOR2@@@std@@@std@@QAE@XZ 00456290 f i FindPath.obj
 0001:00055370       ??1?$stack@UD3DXVECTOR2@@V?$deque@UD3DXVECTOR2@@V?$allocator@UD3DXVECTOR2@@@std@@@std@@@std@@QAE@XZ 00456370 f i FindPath.obj
 0001:000553c0       ??1?$vector@EV?$allocator@E@std@@@std@@QAE@XZ 004563c0 f i FindPath.obj
 0001:00055440       ??1?$vector@UD3DXVECTOR3@@V?$allocator@UD3DXVECTOR3@@@std@@@std@@QAE@XZ 00456440 f i FindPath.obj
 0001:000554e0       ??1CFindPath@@QAE@XZ       004564e0 f   FindPath.obj
 0001:00055580       ??A?$S_BVECTOR@E@@QAEPAEH@Z 00456580 f i FindPath.obj
 0001:000555b0       ?CalculateGuideStraight@CFindPathEx@@AAEXXZ 004565b0 f   FindPath.obj
 0001:00056ac0       ?ClearDestDirection@CFindPathEx@@QAEXXZ 00457ac0 f   FindPath.obj
 0001:00056ad0       ?Find@CFindPath@@QAE_NPAVCGameScene@@PAVCCharacter@@HHHHAA_NH@Z 00457ad0 f   FindPath.obj
 0001:00056f70       ?FindPath@CFindPath@@IAEHPAVCGameScene@@PAVCCharacter@@HHHHAA_NH@Z 00457f70 f   FindPath.obj
 0001:000577b0       ?GetTempTerrain@CFindPath@@IAEPAEPAVCGameScene@@PAVCCharacter@@HH@Z 004587b0 f   FindPath.obj
 0001:00057ac0       ?GetTileRegionAttr@ZRBlock@@QAEFHH@Z 00458ac0 f i FindPath.obj
 0001:00057b20       ?HaveTarget@CFindPathEx@@QAE_NXZ 00458b20 f   FindPath.obj
 0001:00057b40       ?IsCross@CFindPath@@IAEHHHHH@Z 00458b40 f   FindPath.obj
 0001:00057e00       ?IsGridBlock@ZRBlock@@QAEEHH@Z 00458e00 f i FindPath.obj
 0001:00057e40       ?Move@CFindPathEx@@QAEXXZ  00458e40 f   FindPath.obj
 0001:000583a0       ?PointPointRange@@YA_NHHHHH@Z 004593a0 f   FindPath.obj
 0001:000583d0       ?RenderPath@CFindPath@@QAEXPAVLEMap@@@Z 004593d0 f   FindPath.obj
 0001:000585f0       ?Reset@CFindPathEx@@QAEXXZ 004595f0 f   FindPath.obj
 0001:00058910       ?SetDestDirection@CFindPathEx@@QAEXHHHH@Z 00459910 f   FindPath.obj
 0001:00058960       ?SetShortPathFinding@CFindPath@@QAEXJH@Z 00459960 f   FindPath.obj
 0001:00058aa0       ?SetTarget@CFindPathEx@@QAEXHHHH@Z 00459aa0 f   FindPath.obj
 0001:00058b30       ?SetTargetPos@CFindPath@@IAEXHHAAH0_N@Z 00459b30 f   FindPath.obj
 0001:00058d00       ?_Getal@?$_Vector_alloc@U?$_Vec_base_types@EV?$allocator@E@std@@@std@@@std@@QAEAAV?$allocator@E@2@XZ 00459d00 f i FindPath.obj
 0001:00058d10       ?_Getal@?$_Vector_alloc@U?$_Vec_base_types@UD3DXVECTOR3@@V?$allocator@UD3DXVECTOR3@@@std@@@std@@@std@@QAEAAV?$allocator@UD3DXVECTOR3@@@2@XZ 00459d10 f i FindPath.obj
 0001:00058d20       ?_Growmap@?$deque@UD3DXVECTOR2@@V?$allocator@UD3DXVECTOR2@@@std@@@std@@IAEXI@Z 00459d20 f i FindPath.obj
 0001:00058ec0       ?_Umove_if_noexcept@?$vector@UD3DXVECTOR3@@V?$allocator@UD3DXVECTOR3@@@std@@@std@@AAEXPAUD3DXVECTOR3@@00@Z 00459ec0 f i FindPath.obj
 0001:00058ef0       ?_Xlen@?$deque@UD3DXVECTOR2@@V?$allocator@UD3DXVECTOR2@@@std@@@std@@IBEXXZ 00459ef0 f i FindPath.obj
 0001:00058f00       ?_Xlength@?$vector@EV?$allocator@E@std@@@std@@CAXXZ 00459f00 f i FindPath.obj
 0001:00058f10       ?_Xlength@?$vector@UD3DXVECTOR3@@V?$allocator@UD3DXVECTOR3@@@std@@@std@@CAXXZ 00459f10 f i FindPath.obj
 0001:00058f20       ?deallocate@?$allocator@E@std@@QAEXQAEI@Z 00459f20 f i FindPath.obj
 0001:00058f60       ?deallocate@?$allocator@UD3DXVECTOR3@@@std@@QAEXQAUD3DXVECTOR3@@I@Z 00459f60 f i FindPath.obj
 0001:00058fa0       ?g_IsMoveAble@@YA_NDDG@Z   00459fa0 f i FindPath.obj
 0001:00059010       ?push@?$stack@UD3DXVECTOR2@@V?$deque@UD3DXVECTOR2@@V?$allocator@UD3DXVECTOR2@@@std@@@std@@@std@@QAEX$$QAUD3DXVECTOR2@@@Z 0045a010 f i FindPath.obj
 0001:000590a0       ?push_back@?$S_BVECTOR@UD3DXVECTOR3@@@@QAEXAAUD3DXVECTOR3@@@Z 0045a0a0 f i FindPath.obj
 0001:000590d0       ?top@?$stack@UD3DXVECTOR2@@V?$deque@UD3DXVECTOR2@@V?$allocator@UD3DXVECTOR2@@@std@@@std@@@std@@QAEAAUD3DXVECTOR2@@XZ 0045a0d0 f i FindPath.obj
 0001:00059120       ??$_Emplace_reallocate@ABQAU_sFormNode@CFrndInviteFormMgr@@@?$vector@PAU_sFormNode@CFrndInviteFormMgr@@V?$allocator@PAU_sFormNode@CFrndInviteFormMgr@@@std@@@std@@QAEPAPAU_sFormNode@CFrndInviteFormMgr@@QAPAU23@ABQAU23@@Z 0045a120 f i FrndInviteFormMgr.obj
 0001:000592e0       ?AddInviteForm@CFrndInviteFormMgr@@SA_NKV?$basic_string@DU?$char_traits@D@std@@V?$allocator@D@2@@std@@@Z 0045a2e0 f   FrndInviteFormMgr.obj
 0001:000595f0       ?RemoveInviteForm@CFrndInviteFormMgr@@SA_NK@Z 0045a5f0 f   FrndInviteFormMgr.obj
 0001:000596c0       ?_MainMousePlayerFrndEvent@CFrndInviteFormMgr@@CAXPAVCCompent@GUI@@HHHK@Z 0045a6c0 f   FrndInviteFormMgr.obj
 0001:00059880       ?_Xlength@?$vector@PAU_sFormNode@CFrndInviteFormMgr@@V?$allocator@PAU_sFormNode@CFrndInviteFormMgr@@@std@@@std@@CAXXZ 0045a880 f i FrndInviteFormMgr.obj
 0001:00059890       ?deallocate@?$allocator@PAU_sFormNode@CFrndInviteFormMgr@@@std@@QAEXQAPAU_sFormNode@CFrndInviteFormMgr@@I@Z 0045a890 f i FrndInviteFormMgr.obj
 0001:000598d0       ?DynamicRelease@CRawDataSet@@QAEXH@Z 0045a8d0 f i GameAppFrameMove.obj
 0001:00059a30       ?_FrameMove@CGameApp@@MAEXK_N@Z 0045aa30 f   GameAppFrameMove.obj
 0001:00059da0       ?_PreMouseRun@CGameApp@@MAEXK@Z 0045ada0 f   GameAppFrameMove.obj
 0001:00059e60       ??0CGameApp@@QAE@XZ        0045ae60 f   GameAppInit.obj
 0001:0005a170       ??1?$_List_alloc@U?$_List_base_types@PAUSAddSceneObj@@V?$allocator@PAUSAddSceneObj@@@std@@@std@@@std@@QAE@XZ 0045b170 f i GameAppInit.obj
 0001:0005a1b0       ??1?$_List_alloc@U?$_List_base_types@PAUSTipText@@V?$allocator@PAUSTipText@@@std@@@std@@@std@@QAE@XZ 0045b1b0 f i GameAppInit.obj
 0001:0005a1f0       ??1?$_List_alloc@U?$_List_base_types@USTrackPoint@CPointTrack@@V?$allocator@USTrackPoint@CPointTrack@@@std@@@std@@@std@@QAE@XZ 0045b1f0 f i GameAppInit.obj
 0001:0005a230       ??1?$_List_buy@PAUSAddSceneObj@@V?$allocator@PAUSAddSceneObj@@@std@@@std@@QAE@XZ 0045b230 f i GameAppInit.obj
 0001:0005a280       ??1?$_List_buy@PAUSTipText@@V?$allocator@PAUSTipText@@@std@@@std@@QAE@XZ 0045b280 f i GameAppInit.obj
 0001:0005a2d0       ??1?$_List_buy@USTrackPoint@CPointTrack@@V?$allocator@USTrackPoint@CPointTrack@@@std@@@std@@QAE@XZ 0045b2d0 f i GameAppInit.obj
 0001:0005a320       ??1?$list@PAUSAddSceneObj@@V?$allocator@PAUSAddSceneObj@@@std@@@std@@QAE@XZ 0045b320 f i GameAppInit.obj
 0001:0005a3a0       ??1?$list@PAUSTipText@@V?$allocator@PAUSTipText@@@std@@@std@@QAE@XZ 0045b3a0 f i GameAppInit.obj
 0001:0005a420       ??1?$list@USTrackPoint@CPointTrack@@V?$allocator@USTrackPoint@CPointTrack@@@std@@@std@@QAE@XZ 0045b420 f i GameAppInit.obj
 0001:0005a4a0       ??1CGameApp@@QAE@XZ        0045b4a0 f   GameAppInit.obj
 0001:0005a6c0       ?End@CGameApp@@UAEXXZ      0045b6c0 f   GameAppInit.obj
 0001:0005a900       ?GetTextureID@@YAHPBD@Z    0045b900 f i GameAppInit.obj
 0001:0005a930       ?GetValue@?$LinearController@UD3DXVECTOR3@@@Ninja@@UAE?AUD3DXVECTOR3@@U3@0M@Z 0045b930 f i GameAppInit.obj
 0001:0005a990       ?GetValue@?$LinearController@USphereCoord@Ninja@@@Ninja@@UAE?AUSphereCoord@2@U32@0M@Z 0045b990 f i GameAppInit.obj
 0001:0005a9f0       ?OnLostDevice@CGameApp@@QAEXXZ 0045b9f0 f   GameAppInit.obj
 0001:0005aa00       ?OnResetDevice@CGameApp@@QAEXXZ 0045ba00 f   GameAppInit.obj
 0001:0005aa10       ?PlayMusic@CGameApp@@QAEXV?$basic_string@DU?$char_traits@D@std@@V?$allocator@D@2@@std@@@Z 0045ba10 f   GameAppInit.obj
 0001:0005aad0       ?PlaySample@CGameApp@@QAEXV?$basic_string@DU?$char_traits@D@std@@V?$allocator@D@2@@std@@NH@Z 0045bad0 f   GameAppInit.obj
 0001:0005ab70       ?_Buynode0@?$_List_alloc@U?$_List_base_types@PAUSAddSceneObj@@V?$allocator@PAUSAddSceneObj@@@std@@@std@@@std@@QAEPAU?$_List_node@PAUSAddSceneObj@@PAX@2@PAU32@0@Z 0045bb70 f i GameAppInit.obj
 0001:0005ac00       ?_Buynode0@?$_List_alloc@U?$_List_base_types@PAUSTipText@@V?$allocator@PAUSTipText@@@std@@@std@@@std@@QAEPAU?$_List_node@PAUSTipText@@PAX@2@PAU32@0@Z 0045bc00 f i GameAppInit.obj
 0001:0005ac90       ?_Buynode0@?$_List_alloc@U?$_List_base_types@USTrackPoint@CPointTrack@@V?$allocator@USTrackPoint@CPointTrack@@@std@@@std@@@std@@QAEPAU?$_List_node@USTrackPoint@CPointTrack@@PAX@2@PAU32@0@Z 0045bc90 f i GameAppInit.obj
 0001:0005ad20       ?_End@CGameApp@@MAEXXZ     0045bd20 f   GameAppInit.obj
 0001:0005ad90       ?_Init@CGameApp@@MAEHXZ    0045bd90 f   GameAppInit.obj
 0001:0005b370       ?deallocate@?$allocator@U?$_List_node@PAUSAddSceneObj@@PAX@std@@@std@@QAEXQAU?$_List_node@PAUSAddSceneObj@@PAX@2@I@Z 0045c370 f i GameAppInit.obj
 0001:0005b3b0       ?deallocate@?$allocator@U?$_List_node@PAUSTipText@@PAX@std@@@std@@QAEXQAU?$_List_node@PAUSTipText@@PAX@2@I@Z 0045c3b0 f i GameAppInit.obj
 0001:0005b3f0       ?deallocate@?$allocator@U?$_List_node@USTrackPoint@CPointTrack@@PAX@std@@@std@@QAEXQAU?$_List_node@USTrackPoint@CPointTrack@@PAX@2@I@Z 0045c3f0 f i GameAppInit.obj
 0001:0005b430       ??$_Buynode@ABQAUSTipText@@@?$_List_buy@PAUSTipText@@V?$allocator@PAUSTipText@@@std@@@std@@QAEPAU?$_List_node@PAUSTipText@@PAX@1@PAU21@0ABQAUSTipText@@@Z 0045c430 f i GameAppInterface.obj
 0001:0005b4b0       ??$_Buynode@U?$pair@$$CBHV?$vector@V?$basic_string@DU?$char_traits@D@std@@V?$allocator@D@2@@std@@V?$allocator@V?$basic_string@DU?$char_traits@D@std@@V?$allocator@D@2@@std@@@2@@std@@@std@@@?$_Tree_comp_alloc@V?$_Tmap_traits@HV?$vector@V?$basic_string@DU?$char_traits@D@std@@V?$allocator@D@2@@std@@V?$allocator@V?$basic_string@DU?$char_traits@D@std@@V?$allocator@D@2@@std@@@2@@std@@U?$less@H@2@V?$allocator@U?$pair@$$CBHV?$vector@V?$basic_string@DU?$char_traits@D@std@@V?$allocator@D@2@@std@@V?$allocator@V?$basic_string@DU?$char_traits@D@std@@V?$allocator@D@2@@std@@@2@@std@@@std@@@2@$0A@@std@@@std@@QAEPAU?$_Tree_node@U?$pair@$$CBHV?$vector@V?$basic_string@DU?$char_traits@D@std@@V?$allocator@D@2@@std@@V?$allocator@V?$basic_string@DU?$char_traits@D@std@@V?$allocator@D@2@@std@@@2@@std@@@std@@PAX@1@$$QAU?$pair@$$CBHV?$vector@V?$basic_string@DU?$char_traits@D@std@@V?$allocator@D@2@@std@@V?$allocator@V?$basic_string@DU?$char_traits@D@std@@V?$allocator@D@2@@std@@@2@@std@@@1@@Z 0045c4b0 f i GameAppInterface.obj
 0001:0005b540       ??$_Emplace_reallocate@ABV?$basic_string@DU?$char_traits@D@std@@V?$allocator@D@2@@std@@@?$vector@V?$basic_string@DU?$char_traits@D@std@@V?$allocator@D@2@@std@@V?$allocator@V?$basic_string@DU?$char_traits@D@std@@V?$allocator@D@2@@std@@@2@@std@@QAEPAV?$basic_string@DU?$char_traits@D@std@@V?$allocator@D@2@@1@QAV21@ABV21@@Z 0045c540 f i GameAppInterface.obj
 0001:0005b6c0       ??$_Emplace_reallocate@PAUstHint@CTextScrollHint@GUI@@@?$vector@PAUstHint@CTextScrollHint@GUI@@V?$allocator@PAUstHint@CTextScrollHint@GUI@@@std@@@std@@QAEPAPAUstHint@CTextScrollHint@GUI@@QAPAU234@$$QAPAU234@@Z 0045c6c0 f i GameAppInterface.obj
 0001:0005b880       ??$_Emplace_reallocate@V?$basic_string@DU?$char_traits@D@std@@V?$allocator@D@2@@std@@@?$vector@V?$basic_string@DU?$char_traits@D@std@@V?$allocator@D@2@@std@@V?$allocator@V?$basic_string@DU?$char_traits@D@std@@V?$allocator@D@2@@std@@@2@@std@@QAEPAV?$basic_string@DU?$char_traits@D@std@@V?$allocator@D@2@@1@QAV21@$$QAV21@@Z 0045c880 f i GameAppInterface.obj
 0001:0005ba00       ??$_Insert_at@U?$pair@$$CBHV?$vector@V?$basic_string@DU?$char_traits@D@std@@V?$allocator@D@2@@std@@V?$allocator@V?$basic_string@DU?$char_traits@D@std@@V?$allocator@D@2@@std@@@2@@std@@@std@@U_Not_a_node_tag@2@@?$_Tree@V?$_Tmap_traits@HV?$vector@V?$basic_string@DU?$char_traits@D@std@@V?$allocator@D@2@@std@@V?$allocator@V?$basic_string@DU?$char_traits@D@std@@V?$allocator@D@2@@std@@@2@@std@@U?$less@H@2@V?$allocator@U?$pair@$$CBHV?$vector@V?$basic_string@DU?$char_traits@D@std@@V?$allocator@D@2@@std@@V?$allocator@V?$basic_string@DU?$char_traits@D@std@@V?$allocator@D@2@@std@@@2@@std@@@std@@@2@$0A@@std@@@std@@IAE?AV?$_Tree_iterator@V?$_Tree_val@U?$_Tree_simple_types@U?$pair@$$CBHV?$vector@V?$basic_string@DU?$char_traits@D@std@@V?$allocator@D@2@@std@@V?$allocator@V?$basic_string@DU?$char_traits@D@std@@V?$allocator@D@2@@std@@@2@@std@@@std@@@std@@@std@@@1@_NPAU?$_Tree_node@U?$pair@$$CBHV?$vector@V?$basic_string@DU?$char_traits@D@std@@V?$allocator@D@2@@std@@V?$allocator@V?$basic_string@DU?$char_traits@D@std@@V?$allocator@D@2@@std@@@2@@std@@@std@@PAX@1@$$QAU?$pair@$$CBHV?$vector@V?$basic_string@DU?$char_traits@D@std@@V?$allocator@D@2@@std@@V?$allocator@V?$basic_string@DU?$char_traits@D@std@@V?$allocator@D@2@@std@@@2@@std@@@1@U_Not_a_node_tag@1@@Z 0045ca00 f i GameAppInterface.obj
 0001:0005bb60       ??$_Insert_nohint@U?$pair@$$CBHV?$vector@V?$basic_string@DU?$char_traits@D@std@@V?$allocator@D@2@@std@@V?$allocator@V?$basic_string@DU?$char_traits@D@std@@V?$allocator@D@2@@std@@@2@@std@@@std@@U_Not_a_node_tag@2@@?$_Tree@V?$_Tmap_traits@HV?$vector@V?$basic_string@DU?$char_traits@D@std@@V?$allocator@D@2@@std@@V?$allocator@V?$basic_string@DU?$char_traits@D@std@@V?$allocator@D@2@@std@@@2@@std@@U?$less@H@2@V?$allocator@U?$pair@$$CBHV?$vector@V?$basic_string@DU?$char_traits@D@std@@V?$allocator@D@2@@std@@V?$allocator@V?$basic_string@DU?$char_traits@D@std@@V?$allocator@D@2@@std@@@2@@std@@@std@@@2@$0A@@std@@@std@@IAE?AU?$pair@V?$_Tree_iterator@V?$_Tree_val@U?$_Tree_simple_types@U?$pair@$$CBHV?$vector@V?$basic_string@DU?$char_traits@D@std@@V?$allocator@D@2@@std@@V?$allocator@V?$basic_string@DU?$char_traits@D@std@@V?$allocator@D@2@@std@@@2@@std@@@std@@@std@@@std@@@std@@_N@1@_N$$QAU?$pair@$$CBHV?$vector@V?$basic_string@DU?$char_traits@D@std@@V?$allocator@D@2@@std@@V?$allocator@V?$basic_string@DU?$char_traits@D@std@@V?$allocator@D@2@@std@@@2@@std@@@1@U_Not_a_node_tag@1@@Z 0045cb60 f i GameAppInterface.obj
 0001:0005bc70       ??$_Ucopy@PAV?$basic_string@DU?$char_traits@D@std@@V?$allocator@D@2@@std@@@?$vector@V?$basic_string@DU?$char_traits@D@std@@V?$allocator@D@2@@std@@V?$allocator@V?$basic_string@DU?$char_traits@D@std@@V?$allocator@D@2@@std@@@2@@std@@AAEPAV?$basic_string@DU?$char_traits@D@std@@V?$allocator@D@2@@1@PAV21@00@Z 0045cc70 f i GameAppInterface.obj
 0001:0005bcf0       ??$_Uninitialized_move@PAV?$basic_string@DU?$char_traits@D@std@@V?$allocator@D@2@@std@@PAV12@V?$allocator@V?$basic_string@DU?$char_traits@D@std@@V?$allocator@D@2@@std@@@2@@std@@YAPAV?$basic_string@DU?$char_traits@D@std@@V?$allocator@D@2@@0@QAV10@0PAV10@AAV?$allocator@V?$basic_string@DU?$char_traits@D@std@@V?$allocator@D@2@@std@@@0@@Z 0045ccf0 f i GameAppInterface.obj
 0001:0005bda0       ??$construct@U?$pair@$$CBHV?$vector@V?$basic_string@DU?$char_traits@D@std@@V?$allocator@D@2@@std@@V?$allocator@V?$basic_string@DU?$char_traits@D@std@@V?$allocator@D@2@@std@@@2@@std@@@std@@U12@@?$_Default_allocator_traits@V?$allocator@U?$_Tree_node@U?$pair@$$CBHV?$vector@V?$basic_string@DU?$char_traits@D@std@@V?$allocator@D@2@@std@@V?$allocator@V?$basic_string@DU?$char_traits@D@std@@V?$allocator@D@2@@std@@@2@@std@@@std@@PAX@std@@@std@@@std@@SAXAAV?$allocator@U?$_Tree_node@U?$pair@$$CBHV?$vector@V?$basic_string@DU?$char_traits@D@std@@V?$allocator@D@2@@std@@V?$allocator@V?$basic_string@DU?$char_traits@D@std@@V?$allocator@D@2@@std@@@2@@std@@@std@@PAX@std@@@1@QAU?$pair@$$CBHV?$vector@V?$basic_string@DU?$char_traits@D@std@@V?$allocator@D@2@@std@@V?$allocator@V?$basic_string@DU?$char_traits@D@std@@V?$allocator@D@2@@std@@@2@@std@@@1@$$QAU31@@Z 0045cda0 f i GameAppInterface.obj
 0001:0005be30       ??$construct@V?$basic_string@DU?$char_traits@D@std@@V?$allocator@D@2@@std@@V12@@?$_Default_allocator_traits@V?$allocator@V?$basic_string@DU?$char_traits@D@std@@V?$allocator@D@2@@std@@@std@@@std@@SAXAAV?$allocator@V?$basic_string@DU?$char_traits@D@std@@V?$allocator@D@2@@std@@@1@QAV?$basic_string@DU?$char_traits@D@std@@V?$allocator@D@2@@1@$$QAV31@@Z 0045ce30 f i GameAppInterface.obj
 0001:0005be70       ??0?$basic_ifstream@DU?$char_traits@D@std@@@std@@QAE@PBDHH@Z 0045ce70 f i GameAppInterface.obj
 0001:0005c060       ??0?$vector@V?$basic_string@DU?$char_traits@D@std@@V?$allocator@D@2@@std@@V?$allocator@V?$basic_string@DU?$char_traits@D@std@@V?$allocator@D@2@@std@@@2@@std@@QAE@ABV01@@Z 0045d060 f i GameAppInterface.obj
 0001:0005c130       ??0CRawDataSet@@IAE@HHH@Z  0045d130 f i GameAppInterface.obj
 0001:0005c230       ??0CServerSet@@QAE@HH@Z    0045d230 f i GameAppInterface.obj
 0001:0005c8e0       ??1?$_List_alloc@U?$_List_base_types@HV?$allocator@H@std@@@std@@@std@@QAE@XZ 0045d8e0 f i GameAppInterface.obj
 0001:0005c920       ??1?$_List_buy@HV?$allocator@H@std@@@std@@QAE@XZ 0045d920 f i GameAppInterface.obj
 0001:0005c970       ??1?$_Tree@V?$_Tmap_traits@HV?$vector@V?$basic_string@DU?$char_traits@D@std@@V?$allocator@D@2@@std@@V?$allocator@V?$basic_string@DU?$char_traits@D@std@@V?$allocator@D@2@@std@@@2@@std@@U?$less@H@2@V?$allocator@U?$pair@$$CBHV?$vector@V?$basic_string@DU?$char_traits@D@std@@V?$allocator@D@2@@std@@V?$allocator@V?$basic_string@DU?$char_traits@D@std@@V?$allocator@D@2@@std@@@2@@std@@@std@@@2@$0A@@std@@@std@@QAE@XZ 0045d970 f i GameAppInterface.obj
 0001:0005c9f0       ??1?$_Tree@V?$_Tmap_traits@V?$basic_string@DU?$char_traits@D@std@@V?$allocator@D@2@@std@@PAVCRawDataInfo@@U?$less@V?$basic_string@DU?$char_traits@D@std@@V?$allocator@D@2@@std@@@2@V?$allocator@U?$pair@$$CBV?$basic_string@DU?$char_traits@D@std@@V?$allocator@D@2@@std@@PAVCRawDataInfo@@@std@@@2@$0A@@std@@@std@@QAE@XZ 0045d9f0 f i GameAppInterface.obj
 0001:0005ca70       ??1?$_Tree_comp_alloc@V?$_Tmap_traits@HV?$vector@V?$basic_string@DU?$char_traits@D@std@@V?$allocator@D@2@@std@@V?$allocator@V?$basic_string@DU?$char_traits@D@std@@V?$allocator@D@2@@std@@@2@@std@@U?$less@H@2@V?$allocator@U?$pair@$$CBHV?$vector@V?$basic_string@DU?$char_traits@D@std@@V?$allocator@D@2@@std@@V?$allocator@V?$basic_string@DU?$char_traits@D@std@@V?$allocator@D@2@@std@@@2@@std@@@std@@@2@$0A@@std@@@std@@QAE@XZ 0045da70 f i GameAppInterface.obj
 0001:0005cab0       ??1?$_Tree_comp_alloc@V?$_Tmap_traits@V?$basic_string@DU?$char_traits@D@std@@V?$allocator@D@2@@std@@PAVCRawDataInfo@@U?$less@V?$basic_string@DU?$char_traits@D@std@@V?$allocator@D@2@@std@@@2@V?$allocator@U?$pair@$$CBV?$basic_string@DU?$char_traits@D@std@@V?$allocator@D@2@@std@@PAVCRawDataInfo@@@std@@@2@$0A@@std@@@std@@QAE@XZ 0045dab0 f i GameAppInterface.obj
 0001:0005caf0       ??1?$_Uninitialized_backout_al@PAV?$basic_string@DU?$char_traits@D@std@@V?$allocator@D@2@@std@@V?$allocator@V?$basic_string@DU?$char_traits@D@std@@V?$allocator@D@2@@std@@@2@@std@@QAE@XZ 0045daf0 f i GameAppInterface.obj
 0001:0005cb20       ??1?$basic_istream@DU?$char_traits@D@std@@@std@@UAE@XZ 0045db20 f i GameAppInterface.obj
 0001:0005cb40       ??1?$list@HV?$allocator@H@std@@@std@@QAE@XZ 0045db40 f i GameAppInterface.obj
 0001:0005cbc0       ??1?$map@HV?$vector@V?$basic_string@DU?$char_traits@D@std@@V?$allocator@D@2@@std@@V?$allocator@V?$basic_string@DU?$char_traits@D@std@@V?$allocator@D@2@@std@@@2@@std@@U?$less@H@2@V?$allocator@U?$pair@$$CBHV?$vector@V?$basic_string@DU?$char_traits@D@std@@V?$allocator@D@2@@std@@V?$allocator@V?$basic_string@DU?$char_traits@D@std@@V?$allocator@D@2@@std@@@2@@std@@@std@@@2@@std@@QAE@XZ 0045dbc0 f i GameAppInterface.obj
 0001:0005cc40       ??1?$map@V?$basic_string@DU?$char_traits@D@std@@V?$allocator@D@2@@std@@PAVCRawDataInfo@@U?$less@V?$basic_string@DU?$char_traits@D@std@@V?$allocator@D@2@@std@@@2@V?$allocator@U?$pair@$$CBV?$basic_string@DU?$char_traits@D@std@@V?$allocator@D@2@@std@@PAVCRawDataInfo@@@std@@@2@@std@@QAE@XZ 0045dc40 f i GameAppInterface.obj
 0001:0005ccc0       ??1?$pair@$$CBHV?$vector@V?$basic_string@DU?$char_traits@D@std@@V?$allocator@D@2@@std@@V?$allocator@V?$basic_string@DU?$char_traits@D@std@@V?$allocator@D@2@@std@@@2@@std@@@std@@QAE@XZ 0045dcc0 f i GameAppInterface.obj
 0001:0005cd10       ??1?$vector@V?$basic_string@DU?$char_traits@D@std@@V?$allocator@D@2@@std@@V?$allocator@V?$basic_string@DU?$char_traits@D@std@@V?$allocator@D@2@@std@@@2@@std@@QAE@XZ 0045dd10 f i GameAppInterface.obj
 0001:0005cd50       ??1CRawDataSet@@QAE@XZ     0045dd50 f i GameAppInterface.obj
 0001:0005cdf0       ??1_Sentry_base@?$basic_istream@DU?$char_traits@D@std@@@std@@QAE@XZ 0045ddf0 f i GameAppInterface.obj
 0001:0005ce40       ??1sentry@?$basic_istream@DU?$char_traits@D@std@@@std@@QAE@XZ 0045de40 f i GameAppInterface.obj
 0001:0005ce90       ??1stSceneInitParam@@QAE@XZ 0045de90 f i GameAppInterface.obj
 0001:0005cef0       ??F?$_Tree_iterator@V?$_Tree_val@U?$_Tree_simple_types@U?$pair@$$CBHV?$vector@V?$basic_string@DU?$char_traits@D@std@@V?$allocator@D@2@@std@@V?$allocator@V?$basic_string@DU?$char_traits@D@std@@V?$allocator@D@2@@std@@@2@@std@@@std@@@std@@@std@@@std@@QAEAAV01@XZ 0045def0 f i GameAppInterface.obj
 0001:0005cf80       ??_D?$basic_ifstream@DU?$char_traits@D@std@@@std@@QAEXXZ 0045df80 f i GameAppInterface.obj
 0001:0005d025       ??_E?$basic_ifstream@DU?$char_traits@D@std@@@std@@$4PPPPPPPM@A@AEPAXI@Z 0045e025 f i GameAppInterface.obj
 0001:0005d02d       ??_E?$basic_istream@DU?$char_traits@D@std@@@std@@$4PPPPPPPM@A@AEPAXI@Z 0045e02d f i GameAppInterface.obj
 0001:0005d040       ??_G?$basic_ifstream@DU?$char_traits@D@std@@@std@@UAEPAXI@Z 0045e040 f i GameAppInterface.obj
 0001:0005d040       ??_E?$basic_ifstream@DU?$char_traits@D@std@@@std@@UAEPAXI@Z 0045e040 f i GameAppInterface.obj
 0001:0005d070       ??_E?$basic_istream@DU?$char_traits@D@std@@@std@@UAEPAXI@Z 0045e070 f i GameAppInterface.obj
 0001:0005d070       ??_G?$basic_istream@DU?$char_traits@D@std@@@std@@UAEPAXI@Z 0045e070 f i GameAppInterface.obj
 0001:0005d100       ?AddTipText@CGameApp@@QAAXPBDZZ 0045e100 f   GameAppInterface.obj
 0001:0005d1c0       ?CreateCharImg@CGameApp@@QAEXXZ 0045e1c0 f   GameAppInterface.obj
 0001:0005d5c0       ?CreateScene@CGameApp@@QAEPAVCGameScene@@PAUstSceneInitParam@@@Z 0045e5c0 f   GameAppInterface.obj
 0001:0005d700       ?GetMusicInfo@@YAPAVCMusicInfo@@H@Z 0045e700 f i GameAppInterface.obj
 0001:0005d750       ?GotoScene@CGameApp@@QAEXPAVCGameScene@@_N1@Z 0045e750 f   GameAppInterface.obj
 0001:0005d900       ?InitAllTable@CGameApp@@QAEXXZ 0045e900 f   GameAppInterface.obj
 0001:0005e520       ?LG_Config@CGameApp@@UAEXABULGInfo@@@Z 0045f520 f   GameAppInterface.obj
 0001:0005e5c0       ?LimitCurrentProc@@YAXXZ   0045f5c0 f   GameAppInterface.obj
 0001:0005e630       ?LoadRawDataInfo@CRawDataSet@@QAEHPBDH@Z 0045f630 f i GameAppInterface.obj
 0001:0005e7f0       ?LoadResModelBuf@@YAXPAVdrIResourceMgr@LightEngine@@@Z 0045f7f0 f   GameAppInterface.obj
 0001:0005e8f0       ?Loading@CGameApp@@QAEXH@Z 0045f8f0 f   GameAppInterface.obj
 0001:0005ebf0       ?MsgBox@CGameApp@@SAXPBDZZ 0045fbf0 f   GameAppInterface.obj
 0001:0005ec30       ?PlayMusic@CGameApp@@QAEXH@Z 0045fc30 f   GameAppInterface.obj
 0001:0005eda0       ?PlaySoundA@CGameApp@@QAEXH@Z 0045fda0 f   GameAppInterface.obj
 0001:0005ee30       ?PushHint@CTextScrollHint@GUI@@QAEXPBDKHH@Z 0045fe30 f i GameAppInterface.obj
 0001:0005ef30       ?Release@CRawDataSet@@QAEXXZ 0045ff30 f i GameAppInterface.obj
 0001:0005efe0       ?ReleaseAllTable@CGameApp@@QAEXXZ 0045ffe0 f   GameAppInterface.obj
 0001:0005f610       ?ResetCamera@CGameApp@@QAEXXZ 00460610 f   GameAppInterface.obj
 0001:0005f630       ?ResetCaption@CGameApp@@QAEXXZ 00460630 f   GameAppInterface.obj
 0001:0005f6f0       ?Run@CGameApp@@QAEHXZ      004606f0 f   GameAppInterface.obj
 0001:0005fa30       ?SetCameraPos@CGameApp@@QAEXAAUD3DXVECTOR3@@_N@Z 00460a30 f   GameAppInterface.obj
 0001:0005fb10       ?SetMusicSize@CGameApp@@SAXM@Z 00460b10 f   GameAppInterface.obj
 0001:0005fb60       ?ShowBigText@CGameApp@@QAAXPBDZZ 00460b60 f   GameAppInterface.obj
 0001:0005fba0       ?ShowMidText@CGameApp@@QAAXPBDZZ 00460ba0 f   GameAppInterface.obj
 0001:0005fc80       ?ShowNotify1@CGameApp@@QAEXPBDHK@Z 00460c80 f   GameAppInterface.obj
 0001:0005fcf0       ?ShowNotify@CGameApp@@QAEXPBDK@Z 00460cf0 f   GameAppInterface.obj
 0001:0005ff20       ?Str2Float@@YAMV?$basic_string@DU?$char_traits@D@std@@V?$allocator@D@2@@std@@@Z 00460f20 f i GameAppInterface.obj
 0001:0005ff90       ?Str2Int@@YAHV?$basic_string@DU?$char_traits@D@std@@V?$allocator@D@2@@std@@@Z 00460f90 f i GameAppInterface.obj
 0001:00060000       ?SysInfo@CGameApp@@QAAXPBDZZ 00461000 f   GameAppInterface.obj
 0001:00060120       ?Waiting@CGameApp@@SAX_N@Z 00461120 f   GameAppInterface.obj
 0001:00060190       ?_AfterLoad@CRawDataSet@@MAEXXZ 00461190 f i GameAppInterface.obj
 0001:000601a0       ?_Buyheadnode@?$_Tree_comp_alloc@V?$_Tmap_traits@HV?$vector@V?$basic_string@DU?$char_traits@D@std@@V?$allocator@D@2@@std@@V?$allocator@V?$basic_string@DU?$char_traits@D@std@@V?$allocator@D@2@@std@@@2@@std@@U?$less@H@2@V?$allocator@U?$pair@$$CBHV?$vector@V?$basic_string@DU?$char_traits@D@std@@V?$allocator@D@2@@std@@V?$allocator@V?$basic_string@DU?$char_traits@D@std@@V?$allocator@D@2@@std@@@2@@std@@@std@@@2@$0A@@std@@@std@@QAEPAU?$_Tree_node@U?$pair@$$CBHV?$vector@V?$basic_string@DU?$char_traits@D@std@@V?$allocator@D@2@@std@@V?$allocator@V?$basic_string@DU?$char_traits@D@std@@V?$allocator@D@2@@std@@@2@@std@@@std@@PAX@2@XZ 004611a0 f i GameAppInterface.obj
 0001:00060220       ?_Buyheadnode@?$_Tree_comp_alloc@V?$_Tmap_traits@V?$basic_string@DU?$char_traits@D@std@@V?$allocator@D@2@@std@@PAVCRawDataInfo@@U?$less@V?$basic_string@DU?$char_traits@D@std@@V?$allocator@D@2@@std@@@2@V?$allocator@U?$pair@$$CBV?$basic_string@DU?$char_traits@D@std@@V?$allocator@D@2@@std@@PAVCRawDataInfo@@@std@@@2@$0A@@std@@@std@@QAEPAU?$_Tree_node@U?$pair@$$CBV?$basic_string@DU?$char_traits@D@std@@V?$allocator@D@2@@std@@PAVCRawDataInfo@@@std@@PAX@2@XZ 00461220 f i GameAppInterface.obj
 0001:000602a0       ?_Buynode0@?$_List_alloc@U?$_List_base_types@HV?$allocator@H@std@@@std@@@std@@QAEPAU?$_List_node@HPAX@2@PAU32@0@Z 004612a0 f i GameAppInterface.obj
 0001:00060330       ?_Buynode0@?$_Tree_comp_alloc@V?$_Tmap_traits@HV?$vector@V?$basic_string@DU?$char_traits@D@std@@V?$allocator@D@2@@std@@V?$allocator@V?$basic_string@DU?$char_traits@D@std@@V?$allocator@D@2@@std@@@2@@std@@U?$less@H@2@V?$allocator@U?$pair@$$CBHV?$vector@V?$basic_string@DU?$char_traits@D@std@@V?$allocator@D@2@@std@@V?$allocator@V?$basic_string@DU?$char_traits@D@std@@V?$allocator@D@2@@std@@@2@@std@@@std@@@2@$0A@@std@@@std@@QAEPAU?$_Tree_node@U?$pair@$$CBHV?$vector@V?$basic_string@DU?$char_traits@D@std@@V?$allocator@D@2@@std@@V?$allocator@V?$basic_string@DU?$char_traits@D@std@@V?$allocator@D@2@@std@@@2@@std@@@std@@PAX@2@XZ 00461330 f i GameAppInterface.obj
 0001:000603c0       ?_Change_array@?$vector@V?$basic_string@DU?$char_traits@D@std@@V?$allocator@D@2@@std@@V?$allocator@V?$basic_string@DU?$char_traits@D@std@@V?$allocator@D@2@@std@@@2@@std@@AAEXQAV?$basic_string@DU?$char_traits@D@std@@V?$allocator@D@2@@2@II@Z 004613c0 f i GameAppInterface.obj
 0001:00060450       ?_CreateAviScreen@CGameApp@@IAEHXZ 00461450 f   GameAppInterface.obj
 0001:00060460       ?_CreateNewRawData@CAreaSet@@MAEPAXPAVCRawDataInfo@@@Z 00461460 f i GameAppInterface.obj
 0001:00060470       ?_CreateNewRawData@CChaCreateSet@@MAEPAXPAVCRawDataInfo@@@Z 00461470 f i GameAppInterface.obj
 0001:00060480       ?_CreateNewRawData@CChaRecordSet@@MAEPAXPAVCRawDataInfo@@@Z 00461480 f i GameAppInterface.obj
 0001:00060490       ?_CreateNewRawData@CChatIconSet@@MAEPAXPAVCRawDataInfo@@@Z 00461490 f i GameAppInterface.obj
 0001:000604a0       ?_CreateNewRawData@CElfSkillSet@@MAEPAXPAVCRawDataInfo@@@Z 004614a0 f i GameAppInterface.obj
 0001:000604b0       ?_CreateNewRawData@CEventRecordSet@@MAEPAXPAVCRawDataInfo@@@Z 004614b0 f i GameAppInterface.obj
 0001:000604c0       ?_CreateNewRawData@CEventSoundSet@@MAEPAXPAVCRawDataInfo@@@Z 004614c0 f i GameAppInterface.obj
 0001:000604d0       ?_CreateNewRawData@CForgeRecordSet@@MAEPAXPAVCRawDataInfo@@@Z 004614d0 f i GameAppInterface.obj
 0001:000604e0       ?_CreateNewRawData@CHairRecordSet@@MAEPAXPAVCRawDataInfo@@@Z 004614e0 f i GameAppInterface.obj
 0001:000604f0       ?_CreateNewRawData@CItemPreSet@@MAEPAXPAVCRawDataInfo@@@Z 004614f0 f i GameAppInterface.obj
 0001:00060500       ?_CreateNewRawData@CItemRecordSet@@MAEPAXPAVCRawDataInfo@@@Z 00461500 f i GameAppInterface.obj
 0001:00060510       ?_CreateNewRawData@CItemRefineEffectSet@@MAEPAXPAVCRawDataInfo@@@Z 00461510 f i GameAppInterface.obj
 0001:00060520       ?_CreateNewRawData@CItemRefineSet@@MAEPAXPAVCRawDataInfo@@@Z 00461520 f i GameAppInterface.obj
 0001:00060530       ?_CreateNewRawData@CItemTypeSet@@MAEPAXPAVCRawDataInfo@@@Z 00461530 f i GameAppInterface.obj
 0001:00060540       ?_CreateNewRawData@CMagicSet@@MAEPAXPAVCRawDataInfo@@@Z 00461540 f i GameAppInterface.obj
 0001:00060550       ?_CreateNewRawData@CMapSet@@MAEPAXPAVCRawDataInfo@@@Z 00461550 f i GameAppInterface.obj
 0001:00060560       ?_CreateNewRawData@CMonsterSet@@MAEPAXPAVCRawDataInfo@@@Z 00461560 f i GameAppInterface.obj
 0001:00060570       ?_CreateNewRawData@CMusicSet@@MAEPAXPAVCRawDataInfo@@@Z 00461570 f i GameAppInterface.obj
 0001:00060580       ?_CreateNewRawData@CNotifySet@@MAEPAXPAVCRawDataInfo@@@Z 00461580 f i GameAppInterface.obj
 0001:00060590       ?_CreateNewRawData@CPoseSet@@MAEPAXPAVCRawDataInfo@@@Z 00461590 f i GameAppInterface.obj
 0001:000605a0       ?_CreateNewRawData@CSceneObjSet@@MAEPAXPAVCRawDataInfo@@@Z 004615a0 f i GameAppInterface.obj
 0001:000605b0       ?_CreateNewRawData@CServerSet@@MAEPAXPAVCRawDataInfo@@@Z 004615b0 f i GameAppInterface.obj
 0001:000605c0       ?_CreateNewRawData@CShadeSet@@MAEPAXPAVCRawDataInfo@@@Z 004615c0 f i GameAppInterface.obj
 0001:000605d0       ?_CreateNewRawData@CSkillRecordSet@@MAEPAXPAVCRawDataInfo@@@Z 004615d0 f i GameAppInterface.obj
 0001:000605e0       ?_CreateNewRawData@CSkillStateRecordSet@@MAEPAXPAVCRawDataInfo@@@Z 004615e0 f i GameAppInterface.obj
 0001:000605f0       ?_CreateNewRawData@CStoneSet@@MAEPAXPAVCRawDataInfo@@@Z 004615f0 f i GameAppInterface.obj
 0001:00060600       ?_CreateNewRawData@NPCHelper@@MAEPAXPAVCRawDataInfo@@@Z 00461600 f i GameAppInterface.obj
 0001:00060610       ?_CreateNewRawData@xShipPartSet@@MAEPAXPAVCRawDataInfo@@@Z 00461610 f i GameAppInterface.obj
 0001:00060620       ?_CreateNewRawData@xShipSet@@MAEPAXPAVCRawDataInfo@@@Z 00461620 f i GameAppInterface.obj
 0001:00060630       ?_CreateRawDataArray@CAreaSet@@MAEPAVCRawDataInfo@@H@Z 00461630 f i GameAppInterface.obj
 0001:00060730       ?_CreateRawDataArray@CChaCreateSet@@MAEPAVCRawDataInfo@@H@Z 00461730 f i GameAppInterface.obj
 0001:00060830       ?_CreateRawDataArray@CChaRecordSet@@MAEPAVCRawDataInfo@@H@Z 00461830 f i GameAppInterface.obj
 0001:00060930       ?_CreateRawDataArray@CChatIconSet@@MAEPAVCRawDataInfo@@H@Z 00461930 f i GameAppInterface.obj
 0001:00060a50       ?_CreateRawDataArray@CElfSkillSet@@MAEPAVCRawDataInfo@@H@Z 00461a50 f i GameAppInterface.obj
 0001:00060b40       ?_CreateRawDataArray@CEventRecordSet@@MAEPAVCRawDataInfo@@H@Z 00461b40 f i GameAppInterface.obj
 0001:00060c40       ?_CreateRawDataArray@CEventSoundSet@@MAEPAVCRawDataInfo@@H@Z 00461c40 f i GameAppInterface.obj
 0001:00060d30       ?_CreateRawDataArray@CForgeRecordSet@@MAEPAVCRawDataInfo@@H@Z 00461d30 f i GameAppInterface.obj
 0001:00060e20       ?_CreateRawDataArray@CHairRecordSet@@MAEPAVCRawDataInfo@@H@Z 00461e20 f i GameAppInterface.obj
 0001:00060ed0       ?_CreateRawDataArray@CItemPreSet@@MAEPAVCRawDataInfo@@H@Z 00461ed0 f i GameAppInterface.obj
 0001:00060fb0       ?_CreateRawDataArray@CItemRecordSet@@MAEPAVCRawDataInfo@@H@Z 00461fb0 f i GameAppInterface.obj
 0001:00061060       ?_CreateRawDataArray@CItemRefineEffectSet@@MAEPAVCRawDataInfo@@H@Z 00462060 f i GameAppInterface.obj
 0001:00061170       ?_CreateRawDataArray@CItemRefineSet@@MAEPAVCRawDataInfo@@H@Z 00462170 f i GameAppInterface.obj
 0001:00061280       ?_CreateRawDataArray@CItemTypeSet@@MAEPAVCRawDataInfo@@H@Z 00462280 f i GameAppInterface.obj
 0001:00061360       ?_CreateRawDataArray@CMagicSet@@MAEPAVCRawDataInfo@@H@Z 00462360 f i GameAppInterface.obj
 0001:00061500       ?_CreateRawDataArray@CMapSet@@MAEPAVCRawDataInfo@@H@Z 00462500 f i GameAppInterface.obj
 0001:00061640       ?_CreateRawDataArray@CMonsterSet@@MAEPAVCRawDataInfo@@H@Z 00462640 f i GameAppInterface.obj
 0001:00061770       ?_CreateRawDataArray@CMusicSet@@MAEPAVCRawDataInfo@@H@Z 00462770 f i GameAppInterface.obj
 0001:00061850       ?_CreateRawDataArray@CNotifySet@@MAEPAVCRawDataInfo@@H@Z 00462850 f i GameAppInterface.obj
 0001:00061950       ?_CreateRawDataArray@CPoseSet@@MAEPAVCRawDataInfo@@H@Z 00462950 f i GameAppInterface.obj
 0001:00061a50       ?_CreateRawDataArray@CSceneObjSet@@MAEPAVCRawDataInfo@@H@Z 00462a50 f i GameAppInterface.obj
 0001:00061bc0       ?_CreateRawDataArray@CServerSet@@MAEPAVCRawDataInfo@@H@Z 00462bc0 f i GameAppInterface.obj
 0001:00061cc0       ?_CreateRawDataArray@CShadeSet@@MAEPAVCRawDataInfo@@H@Z 00462cc0 f i GameAppInterface.obj
 0001:00061e30       ?_CreateRawDataArray@CSkillRecordSet@@MAEPAVCRawDataInfo@@H@Z 00462e30 f i GameAppInterface.obj
 0001:00061ee0       ?_CreateRawDataArray@CSkillStateRecordSet@@MAEPAVCRawDataInfo@@H@Z 00462ee0 f i GameAppInterface.obj
 0001:00061fe0       ?_CreateRawDataArray@CStoneSet@@MAEPAVCRawDataInfo@@H@Z 00462fe0 f i GameAppInterface.obj
 0001:000620f0       ?_CreateRawDataArray@NPCHelper@@MAEPAVCRawDataInfo@@H@Z 004630f0 f i GameAppInterface.obj
 0001:000621f0       ?_CreateRawDataArray@xShipPartSet@@MAEPAVCRawDataInfo@@H@Z 004631f0 f i GameAppInterface.obj
 0001:00062340       ?_CreateRawDataArray@xShipSet@@MAEPAVCRawDataInfo@@H@Z 00463340 f i GameAppInterface.obj
 0001:00062510       ?_CreateSmMap@CGameApp@@IAEHPAVLEMap@@@Z 00463510 f   GameAppInterface.obj
 0001:00062a70       ?_DeleteRawData@CAreaSet@@MAEXPAVCRawDataInfo@@@Z 00463a70 f i GameAppInterface.obj
 0001:00062aa0       ?_DeleteRawData@CChaCreateSet@@MAEXPAVCRawDataInfo@@@Z 00463aa0 f i GameAppInterface.obj
 0001:00062ad0       ?_DeleteRawData@CChaRecordSet@@MAEXPAVCRawDataInfo@@@Z 00463ad0 f i GameAppInterface.obj
 0001:00062b00       ?_DeleteRawData@CChatIconSet@@MAEXPAVCRawDataInfo@@@Z 00463b00 f i GameAppInterface.obj
 0001:00062b30       ?_DeleteRawData@CElfSkillSet@@MAEXPAVCRawDataInfo@@@Z 00463b30 f i GameAppInterface.obj
 0001:00062b60       ?_DeleteRawData@CEventRecordSet@@MAEXPAVCRawDataInfo@@@Z 00463b60 f i GameAppInterface.obj
 0001:00062b90       ?_DeleteRawData@CEventSoundSet@@MAEXPAVCRawDataInfo@@@Z 00463b90 f i GameAppInterface.obj
 0001:00062bc0       ?_DeleteRawData@CForgeRecordSet@@MAEXPAVCRawDataInfo@@@Z 00463bc0 f i GameAppInterface.obj
 0001:00062bf0       ?_DeleteRawData@CHairRecordSet@@MAEXPAVCRawDataInfo@@@Z 00463bf0 f i GameAppInterface.obj
 0001:00062c20       ?_DeleteRawData@CItemPreSet@@MAEXPAVCRawDataInfo@@@Z 00463c20 f i GameAppInterface.obj
 0001:00062c50       ?_DeleteRawData@CItemRecordSet@@MAEXPAVCRawDataInfo@@@Z 00463c50 f i GameAppInterface.obj
 0001:00062c80       ?_DeleteRawData@CItemRefineEffectSet@@MAEXPAVCRawDataInfo@@@Z 00463c80 f i GameAppInterface.obj
 0001:00062cb0       ?_DeleteRawData@CItemRefineSet@@MAEXPAVCRawDataInfo@@@Z 00463cb0 f i GameAppInterface.obj
 0001:00062ce0       ?_DeleteRawData@CItemTypeSet@@MAEXPAVCRawDataInfo@@@Z 00463ce0 f i GameAppInterface.obj
 0001:00062d10       ?_DeleteRawData@CMagicSet@@MAEXPAVCRawDataInfo@@@Z 00463d10 f i GameAppInterface.obj
 0001:00062d40       ?_DeleteRawData@CMapSet@@MAEXPAVCRawDataInfo@@@Z 00463d40 f i GameAppInterface.obj
 0001:00062d70       ?_DeleteRawData@CMonsterSet@@MAEXPAVCRawDataInfo@@@Z 00463d70 f i GameAppInterface.obj
 0001:00062da0       ?_DeleteRawData@CMusicSet@@MAEXPAVCRawDataInfo@@@Z 00463da0 f i GameAppInterface.obj
 0001:00062dd0       ?_DeleteRawData@CNotifySet@@MAEXPAVCRawDataInfo@@@Z 00463dd0 f i GameAppInterface.obj
 0001:00062e00       ?_DeleteRawData@CPoseSet@@MAEXPAVCRawDataInfo@@@Z 00463e00 f i GameAppInterface.obj
 0001:00062e30       ?_DeleteRawData@CSceneObjSet@@MAEXPAVCRawDataInfo@@@Z 00463e30 f i GameAppInterface.obj
 0001:00062e60       ?_DeleteRawData@CServerSet@@MAEXPAVCRawDataInfo@@@Z 00463e60 f i GameAppInterface.obj
 0001:00062e90       ?_DeleteRawData@CShadeSet@@MAEXPAVCRawDataInfo@@@Z 00463e90 f i GameAppInterface.obj
 0001:00062ec0       ?_DeleteRawData@CSkillRecordSet@@MAEXPAVCRawDataInfo@@@Z 00463ec0 f i GameAppInterface.obj
 0001:00062ef0       ?_DeleteRawData@CSkillStateRecordSet@@MAEXPAVCRawDataInfo@@@Z 00463ef0 f i GameAppInterface.obj
 0001:00062f20       ?_DeleteRawData@CStoneSet@@MAEXPAVCRawDataInfo@@@Z 00463f20 f i GameAppInterface.obj
 0001:00062f50       ?_DeleteRawData@NPCHelper@@MAEXPAVCRawDataInfo@@@Z 00463f50 f i GameAppInterface.obj
 0001:00062f80       ?_DeleteRawData@xShipPartSet@@MAEXPAVCRawDataInfo@@@Z 00463f80 f i GameAppInterface.obj
 0001:00062fb0       ?_DeleteRawData@xShipSet@@MAEXPAVCRawDataInfo@@@Z 00463fb0 f i GameAppInterface.obj
 0001:00062fe0       ?_DeleteRawDataArray@CAreaSet@@MAEXXZ 00463fe0 f i GameAppInterface.obj
 0001:00062ff0       ?_DeleteRawDataArray@CChaCreateSet@@MAEXXZ 00463ff0 f i GameAppInterface.obj
 0001:00063000       ?_DeleteRawDataArray@CChaRecordSet@@MAEXXZ 00464000 f i GameAppInterface.obj
 0001:00063010       ?_DeleteRawDataArray@CChatIconSet@@MAEXXZ 00464010 f i GameAppInterface.obj
 0001:00063020       ?_DeleteRawDataArray@CElfSkillSet@@MAEXXZ 00464020 f i GameAppInterface.obj
 0001:00063030       ?_DeleteRawDataArray@CEventRecordSet@@MAEXXZ 00464030 f i GameAppInterface.obj
 0001:00063040       ?_DeleteRawDataArray@CEventSoundSet@@MAEXXZ 00464040 f i GameAppInterface.obj
 0001:00063050       ?_DeleteRawDataArray@CForgeRecordSet@@MAEXXZ 00464050 f i GameAppInterface.obj
 0001:00063060       ?_DeleteRawDataArray@CHairRecordSet@@MAEXXZ 00464060 f i GameAppInterface.obj
 0001:00063070       ?_DeleteRawDataArray@CItemPreSet@@MAEXXZ 00464070 f i GameAppInterface.obj
 0001:00063080       ?_DeleteRawDataArray@CItemRecordSet@@MAEXXZ 00464080 f i GameAppInterface.obj
 0001:00063090       ?_DeleteRawDataArray@CItemRefineEffectSet@@MAEXXZ 00464090 f i GameAppInterface.obj
 0001:000630a0       ?_DeleteRawDataArray@CItemRefineSet@@MAEXXZ 004640a0 f i GameAppInterface.obj
 0001:000630b0       ?_DeleteRawDataArray@CItemTypeSet@@MAEXXZ 004640b0 f i GameAppInterface.obj
 0001:000630c0       ?_DeleteRawDataArray@CMagicSet@@MAEXXZ 004640c0 f i GameAppInterface.obj
 0001:000630d0       ?_DeleteRawDataArray@CMapSet@@MAEXXZ 004640d0 f i GameAppInterface.obj
 0001:000630e0       ?_DeleteRawDataArray@CMonsterSet@@MAEXXZ 004640e0 f i GameAppInterface.obj
 0001:000630f0       ?_DeleteRawDataArray@CMusicSet@@MAEXXZ 004640f0 f i GameAppInterface.obj
 0001:00063100       ?_DeleteRawDataArray@CNotifySet@@MAEXXZ 00464100 f i GameAppInterface.obj
 0001:00063110       ?_DeleteRawDataArray@CPoseSet@@MAEXXZ 00464110 f i GameAppInterface.obj
 0001:00063120       ?_DeleteRawDataArray@CSceneObjSet@@MAEXXZ 00464120 f i GameAppInterface.obj
 0001:00063130       ?_DeleteRawDataArray@CServerSet@@MAEXXZ 00464130 f i GameAppInterface.obj
 0001:00063140       ?_DeleteRawDataArray@CShadeSet@@MAEXXZ 00464140 f i GameAppInterface.obj
 0001:00063150       ?_DeleteRawDataArray@CSkillRecordSet@@MAEXXZ 00464150 f i GameAppInterface.obj
 0001:00063160       ?_DeleteRawDataArray@CSkillStateRecordSet@@MAEXXZ 00464160 f i GameAppInterface.obj
 0001:00063170       ?_DeleteRawDataArray@CStoneSet@@MAEXXZ 00464170 f i GameAppInterface.obj
 0001:00063180       ?_DeleteRawDataArray@NPCHelper@@MAEXXZ 00464180 f i GameAppInterface.obj
 0001:00063190       ?_DeleteRawDataArray@xShipPartSet@@MAEXXZ 00464190 f i GameAppInterface.obj
 0001:000631a0       ?_DeleteRawDataArray@xShipSet@@MAEXXZ 004641a0 f i GameAppInterface.obj
 0001:000631b0       ?_Destroy@?$vector@V?$basic_string@DU?$char_traits@D@std@@V?$allocator@D@2@@std@@V?$allocator@V?$basic_string@DU?$char_traits@D@std@@V?$allocator@D@2@@std@@@2@@std@@AAEXPAV?$basic_string@DU?$char_traits@D@std@@V?$allocator@D@2@@2@0@Z 004641b0 f i GameAppInterface.obj
 0001:000631e0       ?_Erase@?$_Tree@V?$_Tmap_traits@HV?$vector@V?$basic_string@DU?$char_traits@D@std@@V?$allocator@D@2@@std@@V?$allocator@V?$basic_string@DU?$char_traits@D@std@@V?$allocator@D@2@@std@@@2@@std@@U?$less@H@2@V?$allocator@U?$pair@$$CBHV?$vector@V?$basic_string@DU?$char_traits@D@std@@V?$allocator@D@2@@std@@V?$allocator@V?$basic_string@DU?$char_traits@D@std@@V?$allocator@D@2@@std@@@2@@std@@@std@@@2@$0A@@std@@@std@@IAEXPAU?$_Tree_node@U?$pair@$$CBHV?$vector@V?$basic_string@DU?$char_traits@D@std@@V?$allocator@D@2@@std@@V?$allocator@V?$basic_string@DU?$char_traits@D@std@@V?$allocator@D@2@@std@@@2@@std@@@std@@PAX@2@@Z 004641e0 f i GameAppInterface.obj
 0001:00063260       ?_Erase@?$_Tree@V?$_Tmap_traits@V?$basic_string@DU?$char_traits@D@std@@V?$allocator@D@2@@std@@PAVCRawDataInfo@@U?$less@V?$basic_string@DU?$char_traits@D@std@@V?$allocator@D@2@@std@@@2@V?$allocator@U?$pair@$$CBV?$basic_string@DU?$char_traits@D@std@@V?$allocator@D@2@@std@@PAVCRawDataInfo@@@std@@@2@$0A@@std@@@std@@IAEXPAU?$_Tree_node@U?$pair@$$CBV?$basic_string@DU?$char_traits@D@std@@V?$allocator@D@2@@std@@PAVCRawDataInfo@@@std@@PAX@2@@Z 00464260 f i GameAppInterface.obj
 0001:000632e0       ?_Freenode0@?$_Tree_comp_alloc@V?$_Tmap_traits@HV?$vector@V?$basic_string@DU?$char_traits@D@std@@V?$allocator@D@2@@std@@V?$allocator@V?$basic_string@DU?$char_traits@D@std@@V?$allocator@D@2@@std@@@2@@std@@U?$less@H@2@V?$allocator@U?$pair@$$CBHV?$vector@V?$basic_string@DU?$char_traits@D@std@@V?$allocator@D@2@@std@@V?$allocator@V?$basic_string@DU?$char_traits@D@std@@V?$allocator@D@2@@std@@@2@@std@@@std@@@2@$0A@@std@@@std@@QAEXPAU?$_Tree_node@U?$pair@$$CBHV?$vector@V?$basic_string@DU?$char_traits@D@std@@V?$allocator@D@2@@std@@V?$allocator@V?$basic_string@DU?$char_traits@D@std@@V?$allocator@D@2@@std@@@2@@std@@@std@@PAX@2@@Z 004642e0 f i GameAppInterface.obj
 0001:00063300       ?_GetRawDataInfoSize@CAreaSet@@MAEHXZ 00464300 f i GameAppInterface.obj
 0001:00063310       ?_GetRawDataInfoSize@CChaCreateSet@@MAEHXZ 00464310 f i GameAppInterface.obj
 0001:00063320       ?_GetRawDataInfoSize@CChaRecordSet@@MAEHXZ 00464320 f i GameAppInterface.obj
 0001:00063330       ?_GetRawDataInfoSize@CChatIconSet@@MAEHXZ 00464330 f i GameAppInterface.obj
 0001:00063340       ?_GetRawDataInfoSize@CElfSkillSet@@MAEHXZ 00464340 f i GameAppInterface.obj
 0001:00063350       ?_GetRawDataInfoSize@CEventRecordSet@@MAEHXZ 00464350 f i GameAppInterface.obj
 0001:00063360       ?_GetRawDataInfoSize@CEventSoundSet@@MAEHXZ 00464360 f i GameAppInterface.obj
 0001:00063370       ?_GetRawDataInfoSize@CForgeRecordSet@@MAEHXZ 00464370 f i GameAppInterface.obj
 0001:00063380       ?_GetRawDataInfoSize@CHairRecordSet@@MAEHXZ 00464380 f i GameAppInterface.obj
 0001:00063390       ?_GetRawDataInfoSize@CItemPreSet@@MAEHXZ 00464390 f i GameAppInterface.obj
 0001:000633a0       ?_GetRawDataInfoSize@CItemRecordSet@@MAEHXZ 004643a0 f i GameAppInterface.obj
 0001:000633b0       ?_GetRawDataInfoSize@CItemRefineEffectSet@@MAEHXZ 004643b0 f i GameAppInterface.obj
 0001:000633c0       ?_GetRawDataInfoSize@CItemRefineSet@@MAEHXZ 004643c0 f i GameAppInterface.obj
 0001:000633d0       ?_GetRawDataInfoSize@CItemTypeSet@@MAEHXZ 004643d0 f i GameAppInterface.obj
 0001:000633e0       ?_GetRawDataInfoSize@CMagicSet@@MAEHXZ 004643e0 f i GameAppInterface.obj
 0001:000633f0       ?_GetRawDataInfoSize@CMapSet@@MAEHXZ 004643f0 f i GameAppInterface.obj
 0001:00063400       ?_GetRawDataInfoSize@CMonsterSet@@MAEHXZ 00464400 f i GameAppInterface.obj
 0001:00063410       ?_GetRawDataInfoSize@CMusicSet@@MAEHXZ 00464410 f i GameAppInterface.obj
 0001:00063420       ?_GetRawDataInfoSize@CNotifySet@@MAEHXZ 00464420 f i GameAppInterface.obj
 0001:00063430       ?_GetRawDataInfoSize@CPoseSet@@MAEHXZ 00464430 f i GameAppInterface.obj
 0001:00063440       ?_GetRawDataInfoSize@CSceneObjSet@@MAEHXZ 00464440 f i GameAppInterface.obj
 0001:00063450       ?_GetRawDataInfoSize@CServerSet@@MAEHXZ 00464450 f i GameAppInterface.obj
 0001:00063460       ?_GetRawDataInfoSize@CShadeSet@@MAEHXZ 00464460 f i GameAppInterface.obj
 0001:00063470       ?_GetRawDataInfoSize@CSkillRecordSet@@MAEHXZ 00464470 f i GameAppInterface.obj
 0001:00063480       ?_GetRawDataInfoSize@CSkillStateRecordSet@@MAEHXZ 00464480 f i GameAppInterface.obj
 0001:00063490       ?_GetRawDataInfoSize@CStoneSet@@MAEHXZ 00464490 f i GameAppInterface.obj
 0001:000634a0       ?_GetRawDataInfoSize@NPCHelper@@MAEHXZ 004644a0 f i GameAppInterface.obj
 0001:000634b0       ?_GetRawDataInfoSize@xShipPartSet@@MAEHXZ 004644b0 f i GameAppInterface.obj
 0001:000634c0       ?_GetRawDataInfoSize@xShipSet@@MAEHXZ 004644c0 f i GameAppInterface.obj
 0001:000634d0       ?_Init@CRawDataSet@@IAEXXZ 004644d0 f i GameAppInterface.obj
 0001:00063520       ?_Ipfx@?$basic_istream@DU?$char_traits@D@std@@@std@@QAE_N_N@Z 00464520 f i GameAppInterface.obj
 0001:00063710       ?_IsFull@CRawDataSet@@MAEHXZ 00464710 f i GameAppInterface.obj
 0001:00063720       ?_LoadRawDataInfo_Bin@CRawDataSet@@IAEHPBD@Z 00464720 f i GameAppInterface.obj
 0001:00063930       ?_LoadRawDataInfo_Txt@CRawDataSet@@IAEHPBDH@Z 00464930 f i GameAppInterface.obj
 0001:00064400       ?_Lrotate@?$_Tree_val@U?$_Tree_simple_types@U?$pair@$$CBHV?$vector@V?$basic_string@DU?$char_traits@D@std@@V?$allocator@D@2@@std@@V?$allocator@V?$basic_string@DU?$char_traits@D@std@@V?$allocator@D@2@@std@@@2@@std@@@std@@@std@@@std@@QAEXPAU?$_Tree_node@U?$pair@$$CBHV?$vector@V?$basic_string@DU?$char_traits@D@std@@V?$allocator@D@2@@std@@V?$allocator@V?$basic_string@DU?$char_traits@D@std@@V?$allocator@D@2@@std@@@2@@std@@@std@@PAX@2@@Z 00465400 f i GameAppInterface.obj
 0001:00064460       ?_ProcessRawDataInfo@CMagicSet@@MAEXPAVCRawDataInfo@@@Z 00465460 f i GameAppInterface.obj
 0001:000644e0       ?_ProcessRawDataInfo@CRawDataSet@@MAEXPAVCRawDataInfo@@@Z 004654e0 f i GameAppInterface.obj
 0001:000644f0       ?_ProcessRawDataInfo@CSceneObjSet@@MAEXPAVCRawDataInfo@@@Z 004654f0 f i GameAppInterface.obj
 0001:00064570       ?_ProcessRawDataInfo@CServerSet@@MAEXPAVCRawDataInfo@@@Z 00465570 f i GameAppInterface.obj
 0001:00064630       ?_ReadRawDataInfo@CAreaSet@@MAEHPAVCRawDataInfo@@AAV?$vector@V?$basic_string@DU?$char_traits@D@std@@V?$allocator@D@2@@std@@V?$allocator@V?$basic_string@DU?$char_traits@D@std@@V?$allocator@D@2@@std@@@2@@std@@@Z 00465630 f i GameAppInterface.obj
 0001:00064a20       ?_ReadRawDataInfo@CChaCreateSet@@MAEHPAVCRawDataInfo@@AAV?$vector@V?$basic_string@DU?$char_traits@D@std@@V?$allocator@D@2@@std@@V?$allocator@V?$basic_string@DU?$char_traits@D@std@@V?$allocator@D@2@@std@@@2@@std@@@Z 00465a20 f i GameAppInterface.obj
 0001:00064d50       ?_ReadRawDataInfo@CChatIconSet@@MAEHPAVCRawDataInfo@@AAV?$vector@V?$basic_string@DU?$char_traits@D@std@@V?$allocator@D@2@@std@@V?$allocator@V?$basic_string@DU?$char_traits@D@std@@V?$allocator@D@2@@std@@@2@@std@@@Z 00465d50 f i GameAppInterface.obj
 0001:00064fb0       ?_ReadRawDataInfo@CElfSkillSet@@MAEHPAVCRawDataInfo@@AAV?$vector@V?$basic_string@DU?$char_traits@D@std@@V?$allocator@D@2@@std@@V?$allocator@V?$basic_string@DU?$char_traits@D@std@@V?$allocator@D@2@@std@@@2@@std@@@Z 00465fb0 f i GameAppInterface.obj
 0001:00065070       ?_ReadRawDataInfo@CEventSoundSet@@MAEHPAVCRawDataInfo@@AAV?$vector@V?$basic_string@DU?$char_traits@D@std@@V?$allocator@D@2@@std@@V?$allocator@V?$basic_string@DU?$char_traits@D@std@@V?$allocator@D@2@@std@@@2@@std@@@Z 00466070 f i GameAppInterface.obj
 0001:000650f0       ?_ReadRawDataInfo@CItemPreSet@@MAEHPAVCRawDataInfo@@AAV?$vector@V?$basic_string@DU?$char_traits@D@std@@V?$allocator@D@2@@std@@V?$allocator@V?$basic_string@DU?$char_traits@D@std@@V?$allocator@D@2@@std@@@2@@std@@@Z 004660f0 f i GameAppInterface.obj
 0001:00065100       ?_ReadRawDataInfo@CItemRefineEffectSet@@MAEHPAVCRawDataInfo@@AAV?$vector@V?$basic_string@DU?$char_traits@D@std@@V?$allocator@D@2@@std@@V?$allocator@V?$basic_string@DU?$char_traits@D@std@@V?$allocator@D@2@@std@@@2@@std@@@Z 00466100 f i GameAppInterface.obj
 0001:000653e0       ?_ReadRawDataInfo@CItemRefineSet@@MAEHPAVCRawDataInfo@@AAV?$vector@V?$basic_string@DU?$char_traits@D@std@@V?$allocator@D@2@@std@@V?$allocator@V?$basic_string@DU?$char_traits@D@std@@V?$allocator@D@2@@std@@@2@@std@@@Z 004663e0 f i GameAppInterface.obj
 0001:00065640       ?_ReadRawDataInfo@CItemTypeSet@@MAEHPAVCRawDataInfo@@AAV?$vector@V?$basic_string@DU?$char_traits@D@std@@V?$allocator@D@2@@std@@V?$allocator@V?$basic_string@DU?$char_traits@D@std@@V?$allocator@D@2@@std@@@2@@std@@@Z 00466640 f i GameAppInterface.obj
 0001:00065650       ?_ReadRawDataInfo@CMagicSet@@MAEHPAVCRawDataInfo@@AAV?$vector@V?$basic_string@DU?$char_traits@D@std@@V?$allocator@D@2@@std@@V?$allocator@V?$basic_string@DU?$char_traits@D@std@@V?$allocator@D@2@@std@@@2@@std@@@Z 00466650 f i GameAppInterface.obj
 0001:00065c80       ?_ReadRawDataInfo@CMapSet@@MAEHPAVCRawDataInfo@@AAV?$vector@V?$basic_string@DU?$char_traits@D@std@@V?$allocator@D@2@@std@@V?$allocator@V?$basic_string@DU?$char_traits@D@std@@V?$allocator@D@2@@std@@@2@@std@@@Z 00466c80 f i GameAppInterface.obj
 0001:00065e10       ?_ReadRawDataInfo@CMonsterSet@@MAEHPAVCRawDataInfo@@AAV?$vector@V?$basic_string@DU?$char_traits@D@std@@V?$allocator@D@2@@std@@V?$allocator@V?$basic_string@DU?$char_traits@D@std@@V?$allocator@D@2@@std@@@2@@std@@@Z 00466e10 f i GameAppInterface.obj
 0001:00066240       ?_ReadRawDataInfo@CMusicSet@@MAEHPAVCRawDataInfo@@AAV?$vector@V?$basic_string@DU?$char_traits@D@std@@V?$allocator@D@2@@std@@V?$allocator@V?$basic_string@DU?$char_traits@D@std@@V?$allocator@D@2@@std@@@2@@std@@@Z 00467240 f i GameAppInterface.obj
 0001:000662c0       ?_ReadRawDataInfo@CNotifySet@@MAEHPAVCRawDataInfo@@AAV?$vector@V?$basic_string@DU?$char_traits@D@std@@V?$allocator@D@2@@std@@V?$allocator@V?$basic_string@DU?$char_traits@D@std@@V?$allocator@D@2@@std@@@2@@std@@@Z 004672c0 f i GameAppInterface.obj
 0001:00066370       ?_ReadRawDataInfo@CPoseSet@@MAEHPAVCRawDataInfo@@AAV?$vector@V?$basic_string@DU?$char_traits@D@std@@V?$allocator@D@2@@std@@V?$allocator@V?$basic_string@DU?$char_traits@D@std@@V?$allocator@D@2@@std@@@2@@std@@@Z 00467370 f i GameAppInterface.obj
 0001:000665a0       ?_ReadRawDataInfo@CSceneObjSet@@MAEHPAVCRawDataInfo@@AAV?$vector@V?$basic_string@DU?$char_traits@D@std@@V?$allocator@D@2@@std@@V?$allocator@V?$basic_string@DU?$char_traits@D@std@@V?$allocator@D@2@@std@@@2@@std@@@Z 004675a0 f i GameAppInterface.obj
 0001:00066cb0       ?_ReadRawDataInfo@CServerSet@@MAEHPAVCRawDataInfo@@AAV?$vector@V?$basic_string@DU?$char_traits@D@std@@V?$allocator@D@2@@std@@V?$allocator@V?$basic_string@DU?$char_traits@D@std@@V?$allocator@D@2@@std@@@2@@std@@@Z 00467cb0 f i GameAppInterface.obj
 0001:00066da0       ?_ReadRawDataInfo@CShadeSet@@MAEHPAVCRawDataInfo@@AAV?$vector@V?$basic_string@DU?$char_traits@D@std@@V?$allocator@D@2@@std@@V?$allocator@V?$basic_string@DU?$char_traits@D@std@@V?$allocator@D@2@@std@@@2@@std@@@Z 00467da0 f i GameAppInterface.obj
 0001:00067390       ?_ReadRawDataInfo@CStoneSet@@MAEHPAVCRawDataInfo@@AAV?$vector@V?$basic_string@DU?$char_traits@D@std@@V?$allocator@D@2@@std@@V?$allocator@V?$basic_string@DU?$char_traits@D@std@@V?$allocator@D@2@@std@@@2@@std@@@Z 00468390 f i GameAppInterface.obj
 0001:00067740       ?_RenderTipText@CGameApp@@IAEXXZ 00468740 f   GameAppInterface.obj
 0001:000678d0       ?_Rrotate@?$_Tree_val@U?$_Tree_simple_types@U?$pair@$$CBHV?$vector@V?$basic_string@DU?$char_traits@D@std@@V?$allocator@D@2@@std@@V?$allocator@V?$basic_string@DU?$char_traits@D@std@@V?$allocator@D@2@@std@@@2@@std@@@std@@@std@@@std@@QAEXPAU?$_Tree_node@U?$pair@$$CBHV?$vector@V?$basic_string@DU?$char_traits@D@std@@V?$allocator@D@2@@std@@V?$allocator@V?$basic_string@DU?$char_traits@D@std@@V?$allocator@D@2@@std@@@2@@std@@@std@@PAX@2@@Z 004688d0 f i GameAppInterface.obj
 0001:00067930       ?_SceneError@CGameApp@@IAEXPBDPAVCGameScene@@@Z 00468930 f   GameAppInterface.obj
 0001:000679a0       ?_ShowLoading@CGameApp@@IAEXXZ 004689a0 f   GameAppInterface.obj
 0001:00067d10       ?_Tidy@?$vector@V?$basic_string@DU?$char_traits@D@std@@V?$allocator@D@2@@std@@V?$allocator@V?$basic_string@DU?$char_traits@D@std@@V?$allocator@D@2@@std@@@2@@std@@AAEXXZ 00468d10 f i GameAppInterface.obj
 0001:00067d90       ?_Xlength@?$vector@PAUstHint@CTextScrollHint@GUI@@V?$allocator@PAUstHint@CTextScrollHint@GUI@@@std@@@std@@CAXXZ 00468d90 f i GameAppInterface.obj
 0001:00067da0       ?_Xlength@?$vector@V?$basic_string@DU?$char_traits@D@std@@V?$allocator@D@2@@std@@V?$allocator@V?$basic_string@DU?$char_traits@D@std@@V?$allocator@D@2@@std@@@2@@std@@CAXXZ 00468da0 f i GameAppInterface.obj
 0001:00067db0       ?allocate@?$allocator@V?$basic_string@DU?$char_traits@D@std@@V?$allocator@D@2@@std@@@std@@QAEPAV?$basic_string@DU?$char_traits@D@std@@V?$allocator@D@2@@2@I@Z 00468db0 f i GameAppInterface.obj
 0001:00067e20       ?close@?$basic_ifstream@DU?$char_traits@D@std@@@std@@QAEXXZ 00468e20 f i GameAppInterface.obj
 0001:00067eb0       ?deallocate@?$allocator@PAUstHint@CTextScrollHint@GUI@@@std@@QAEXQAPAUstHint@CTextScrollHint@GUI@@I@Z 00468eb0 f i GameAppInterface.obj
 0001:00067ef0       ?deallocate@?$allocator@U?$_List_node@HPAX@std@@@std@@QAEXQAU?$_List_node@HPAX@2@I@Z 00468ef0 f i GameAppInterface.obj
 0001:00067f30       ?deallocate@?$allocator@U?$_Tree_node@U?$pair@$$CBHV?$vector@V?$basic_string@DU?$char_traits@D@std@@V?$allocator@D@2@@std@@V?$allocator@V?$basic_string@DU?$char_traits@D@std@@V?$allocator@D@2@@std@@@2@@std@@@std@@PAX@std@@@std@@QAEXQAU?$_Tree_node@U?$pair@$$CBHV?$vector@V?$basic_string@DU?$char_traits@D@std@@V?$allocator@D@2@@std@@V?$allocator@V?$basic_string@DU?$char_traits@D@std@@V?$allocator@D@2@@std@@@2@@std@@@std@@PAX@2@I@Z 00468f30 f i GameAppInterface.obj
 0001:00067f70       ?deallocate@?$allocator@V?$basic_string@DU?$char_traits@D@std@@V?$allocator@D@2@@std@@@std@@QAEXQAV?$basic_string@DU?$char_traits@D@std@@V?$allocator@D@2@@2@I@Z 00468f70 f i GameAppInterface.obj
 0001:00067fb0       ?getline@?$basic_istream@DU?$char_traits@D@std@@@std@@QAEAAV12@PAD_JD@Z 00468fb0 f i GameAppInterface.obj
 0001:000681b0       ?sbumpc@?$basic_streambuf@DU?$char_traits@D@std@@@std@@QAEHXZ 004691b0 f i GameAppInterface.obj
 0001:000681e0       ?sgetc@?$basic_streambuf@DU?$char_traits@D@std@@@std@@QAEHXZ 004691e0 f i GameAppInterface.obj
 0001:00068200       ?snextc@?$basic_streambuf@DU?$char_traits@D@std@@@std@@QAEHXZ 00469200 f i GameAppInterface.obj
 0001:00068270       ??$?8DU?$char_traits@D@std@@V?$allocator@D@1@@std@@YA_NABV?$basic_string@DU?$char_traits@D@std@@V?$allocator@D@2@@0@QBD@Z 00469270 f i GameAppMsg.obj
 0001:000682b0       ??$?HDU?$char_traits@D@std@@V?$allocator@D@1@@std@@YA?AV?$basic_string@DU?$char_traits@D@std@@V?$allocator@D@2@@0@QBDABV10@@Z 004692b0 f i GameAppMsg.obj
 0001:00068370       ??4?$basic_string@DU?$char_traits@D@std@@V?$allocator@D@2@@std@@QAEAAV01@QBD@Z 00469370 f i GameAppMsg.obj
 0001:000683a0       ?ChangeVideoStyle@CGameApp@@QAEXHHW4_D3DFORMAT@@_N@Z 004693a0 f   GameAppMsg.obj
 0001:00068450       ?ConsoleCallback@@YAPBDPBD@Z 00469450 f   GameAppMsg.obj
 0001:00068460       ?HandleContinueSuperKey@CGameApp@@QAEXXZ 00469460 f   GameAppMsg.obj
 0001:00068a00       ?HandleKeyContinue@CGameApp@@QAEXXZ 00469a00 f   GameAppMsg.obj
 0001:00068a20       ?HandleKeyDown@CGameApp@@UAEXK@Z 00469a20 f   GameAppMsg.obj
 0001:00068ce0       ?HandleSuperKey@CGameApp@@QAEXXZ 00469ce0 f   GameAppMsg.obj
 0001:00068f10       ?HandleWindowMsg@CGameApp@@QAE_NKKK@Z 00469f10 f   GameAppMsg.obj
 0001:00069170       ?IsEnableSuperKey@CGameApp@@QAEHXZ 0046a170 f   GameAppMsg.obj
 0001:00069180       ?MouseButtonDB@CGameApp@@UAEXH@Z 0046a180 f   GameAppMsg.obj
 0001:000691d0       ?MouseButtonDown@CGameApp@@UAEXH@Z 0046a1d0 f   GameAppMsg.obj
 0001:00069240       ?MouseButtonUp@CGameApp@@UAEXH@Z 0046a240 f   GameAppMsg.obj
 0001:00069290       ?MouseContinue@CGameApp@@UAEXH@Z 0046a290 f   GameAppMsg.obj
 0001:000692e0       ?MouseMove@CGameApp@@UAEXHH@Z 0046a2e0 f   GameAppMsg.obj
 0001:00069440       ?MouseScroll@CGameApp@@UAEXH@Z 0046a440 f   GameAppMsg.obj
 0001:000694c0       ?TerrainNotice@@YGJHHHKPAVLEMap@@@Z 0046a4c0 f   GameAppMsg.obj
 0001:00069d40       ?push_back@?$basic_string@DU?$char_traits@D@std@@V?$allocator@D@2@@std@@QAEXD@Z 0046ad40 f i GameAppMsg.obj
 0001:00069eb0       ?_HandleMsg@CGameApp@@IAEXKKK@Z 0046aeb0 f   GameAppNet.obj
 0001:0006a290       ?RenderHintFrame@@YAHPBUtagRECT@@K@Z 0046b290 f   GameAppRender.obj
 0001:0006a500       ?_Render@CGameApp@@MAEXXZ  0046b500 f   GameAppRender.obj
 0001:0006a870       ?Load@CGameConfig@@QAEXPAD@Z 0046b870 f   GameConfig.obj
 0001:0006c710       ?SetMoveClient@CGameConfig@@QAEX_N@Z 0046d710 f   GameConfig.obj
 0001:0006c720       ?CheckDxVersion@@YAHAAK@Z  0046d720 f   GameErrorReport.obj
 0001:0006c780       ?GameErrorClear@@YAXXZ     0046d780 f   GameErrorReport.obj
 0001:0006c790       ?GameErrorLog@@YAXPBDZZ    0046d790 f   GameErrorReport.obj
 0001:0006c950       ?GameErrorReport@@YAXPBDZZ 0046d950 f   GameErrorReport.obj
 0001:0006d010       ??_GGameLoading@@UAEPAXI@Z 0046e010 f i GameLoading.obj
 0001:0006d010       ??_EGameLoading@@UAEPAXI@Z 0046e010 f i GameLoading.obj
 0001:0006d040       ?Active@GameLoading@@QAE_NXZ 0046e040 f   GameLoading.obj
 0001:0006d0f0       ?Close@GameLoading@@UAEXXZ 0046e0f0 f   GameLoading.obj
 0001:0006d1f0       ?Create@GameLoading@@UAEXXZ 0046e1f0 f   GameLoading.obj
 0001:0006d220       ?Destory@GameLoading@@SAXXZ 0046e220 f   GameLoading.obj
 0001:0006d240       ?Init@GameLoading@@SAPAV1@V?$basic_string@DU?$char_traits@D@std@@V?$allocator@D@2@@std@@@Z 0046e240 f   GameLoading.obj
 0001:0006d330       ?LoadingProc@@YGJPAUHWND__@@IIJ@Z 0046e330 f   GameLoading.obj
 0001:0006d690       ?LoadingThread@@YGIPAX@Z   0046e690 f   GameLoading.obj
 0001:0006d9e0       ??0CGameMovie@@QAE@XZ      0046e9e0 f   GameMovie.obj
 0001:0006da30       ??1CGameMovie@@UAE@XZ      0046ea30 f   GameMovie.obj
 0001:0006da80       ??_GCGameMovie@@UAEPAXI@Z  0046ea80 f i GameMovie.obj
 0001:0006da80       ??_ECGameMovie@@UAEPAXI@Z  0046ea80 f i GameMovie.obj
 0001:0006dae0       ?Cleanup@CGameMovie@@QAEXXZ 0046eae0 f   GameMovie.obj
 0001:0006db60       ?HandleGraphEvent@CGameMovie@@QAEXXZ 0046eb60 f   GameMovie.obj
 0001:0006dbf0       ?IsPlaying@CGameMovie@@QAE_NXZ 0046ebf0 f   GameMovie.obj
 0001:0006dca0       ?Play@CGameMovie@@QAE_NPAUHWND__@@PAD@Z 0046eca0 f   GameMovie.obj
 0001:0006dec0       ??$_Buynode@ABV?$basic_string@DU?$char_traits@D@std@@V?$allocator@D@2@@std@@@?$_List_buy@V?$basic_string@DU?$char_traits@D@std@@V?$allocator@D@2@@std@@V?$allocator@V?$basic_string@DU?$char_traits@D@std@@V?$allocator@D@2@@std@@@2@@std@@QAEPAU?$_List_node@V?$basic_string@DU?$char_traits@D@std@@V?$allocator@D@2@@std@@PAX@1@PAU21@0ABV?$basic_string@DU?$char_traits@D@std@@V?$allocator@D@2@@1@@Z 0046eec0 f i GameWG.obj
 0001:0006df50       ??0CGameWG@@QAE@XZ         0046ef50 f   GameWG.obj
 0001:0006dfc0       ??1?$_List_alloc@U?$_List_base_types@V?$basic_string@DU?$char_traits@D@std@@V?$allocator@D@2@@std@@V?$allocator@V?$basic_string@DU?$char_traits@D@std@@V?$allocator@D@2@@std@@@2@@std@@@std@@QAE@XZ 0046efc0 f i GameWG.obj
 0001:0006e000       ??1?$_List_buy@V?$basic_string@DU?$char_traits@D@std@@V?$allocator@D@2@@std@@V?$allocator@V?$basic_string@DU?$char_traits@D@std@@V?$allocator@D@2@@std@@@2@@std@@QAE@XZ 0046f000 f i GameWG.obj
 0001:0006e050       ??1?$list@V?$basic_string@DU?$char_traits@D@std@@V?$allocator@D@2@@std@@V?$allocator@V?$basic_string@DU?$char_traits@D@std@@V?$allocator@D@2@@std@@@2@@std@@QAE@XZ 0046f050 f i GameWG.obj
 0001:0006e0b0       ??1CGameWG@@QAE@XZ         0046f0b0 f   GameWG.obj
 0001:0006e150       ?BeginThread@CGameWG@@QAEXXZ 0046f150 f   GameWG.obj
 0001:0006e170       ?RefreshModule@CGameWG@@QAE_NXZ 0046f170 f   GameWG.obj
 0001:0006e2d0       ?Run@CGameWG@@CGIPAX@Z     0046f2d0 f   GameWG.obj
 0001:0006e3e0       ?SafeTerminateThread@CGameWG@@QAEXXZ 0046f3e0 f   GameWG.obj
 0001:0006e410       ?_Buynode0@?$_List_alloc@U?$_List_base_types@V?$basic_string@DU?$char_traits@D@std@@V?$allocator@D@2@@std@@V?$allocator@V?$basic_string@DU?$char_traits@D@std@@V?$allocator@D@2@@std@@@2@@std@@@std@@QAEPAU?$_List_node@V?$basic_string@DU?$char_traits@D@std@@V?$allocator@D@2@@std@@PAX@2@PAU32@0@Z 0046f410 f i GameWG.obj
 0001:0006e4a0       ?clear@?$list@V?$basic_string@DU?$char_traits@D@std@@V?$allocator@D@2@@std@@V?$allocator@V?$basic_string@DU?$char_traits@D@std@@V?$allocator@D@2@@std@@@2@@std@@QAEXXZ 0046f4a0 f i GameWG.obj
 0001:0006e510       ?deallocate@?$allocator@U?$_List_node@V?$basic_string@DU?$char_traits@D@std@@V?$allocator@D@2@@std@@PAX@std@@@std@@QAEXQAU?$_List_node@V?$basic_string@DU?$char_traits@D@std@@V?$allocator@D@2@@std@@PAX@2@I@Z 0046f510 f i GameWG.obj
 0001:0006e550       ?push_back@?$list@V?$basic_string@DU?$char_traits@D@std@@V?$allocator@D@2@@std@@V?$allocator@V?$basic_string@DU?$char_traits@D@std@@V?$allocator@D@2@@std@@@2@@std@@QAEXABV?$basic_string@DU?$char_traits@D@std@@V?$allocator@D@2@@2@@Z 0046f550 f i GameWG.obj
 0001:0006e5a0       ??1sGuildData@CGuildData@@QAE@XZ 0046f5a0 f i GuildData.obj
 0001:0006e610       ?LoadData@CGuildData@@SAXUsGuildData@1@@Z 0046f610 f   GuildData.obj
 0001:0006e730       ?Reset@CGuildData@@SAXXZ   0046f730 f   GuildData.obj
 0001:0006e7d0       ??$_Emplace_reallocate@ABQAU_sFormNode@CGuildInviteFormMgr@@@?$vector@PAU_sFormNode@CGuildInviteFormMgr@@V?$allocator@PAU_sFormNode@CGuildInviteFormMgr@@@std@@@std@@QAEPAPAU_sFormNode@CGuildInviteFormMgr@@QAPAU23@ABQAU23@@Z 0046f7d0 f i GuildInviteFormMgr.obj
 0001:0006e990       ?AddInviteForm@CGuildInviteFormMgr@@SA_NKV?$basic_string@DU?$char_traits@D@std@@V?$allocator@D@2@@std@@@Z 0046f990 f   GuildInviteFormMgr.obj
 0001:0006eca0       ?RemoveInviteForm@CGuildInviteFormMgr@@SA_NK@Z 0046fca0 f   GuildInviteFormMgr.obj
 0001:0006ed70       ?_MainMousePlayerGuildEvent@CGuildInviteFormMgr@@CAXPAVCCompent@GUI@@HHHK@Z 0046fd70 f   GuildInviteFormMgr.obj
 0001:0006ef40       ?_Xlength@?$vector@PAU_sFormNode@CGuildInviteFormMgr@@V?$allocator@PAU_sFormNode@CGuildInviteFormMgr@@@std@@@std@@CAXXZ 0046ff40 f i GuildInviteFormMgr.obj
 0001:0006ef50       ?deallocate@?$allocator@PAU_sFormNode@CGuildInviteFormMgr@@@std@@QAEXQAPAU_sFormNode@CGuildInviteFormMgr@@I@Z 0046ff50 f i GuildInviteFormMgr.obj
 0001:0006ef90       ??0CGuildListData@@QAE@KV?$basic_string@DU?$char_traits@D@std@@V?$allocator@D@2@@std@@00K_J@Z 0046ff90 f   GuildListData.obj
 0001:0006f110       ??1CGuildListData@@QAE@XZ  00470110 f   GuildListData.obj
 0001:0006f180       ??$_Emplace_reallocate@ABQAVCGuildListData@@@?$vector@PAVCGuildListData@@V?$allocator@PAVCGuildListData@@@std@@@std@@QAEPAPAVCGuildListData@@QAPAV2@ABQAV2@@Z 00470180 f i GuildListMgr.obj
 0001:0006f340       ?AddGuild@CGuildListMgr@@SAXPAVCGuildListData@@@Z 00470340 f   GuildListMgr.obj
 0001:0006f380       ?FindGuildByIndex@CGuildListMgr@@SAPAVCGuildListData@@K@Z 00470380 f   GuildListMgr.obj
 0001:0006f3b0       ?GetGuildName@CGuildListData@@QAE?AV?$basic_string@DU?$char_traits@D@std@@V?$allocator@D@2@@std@@XZ 004703b0 f i GuildListMgr.obj
 0001:0006f410       ?GetTotalGuilds@CGuildListMgr@@SAKXZ 00470410 f   GuildListMgr.obj
 0001:0006f420       ?GetType@CGuildListMgr@@SA?AW4eType@CGuildData@@XZ 00470420 f   GuildListMgr.obj
 0001:0006f430       ?ResetAll@CGuildListMgr@@SAXXZ 00470430 f   GuildListMgr.obj
 0001:0006f4b0       ?SetType@CGuildListMgr@@SAXW4eType@CGuildData@@@Z 004704b0 f   GuildListMgr.obj
 0001:0006f4c0       ?SortGuildsByExperience@CGuildListMgr@@SAX_N@Z 004704c0 f   GuildListMgr.obj
 0001:0006f5b0       ?SortGuildsByMemberCount@CGuildListMgr@@SAX_N@Z 004705b0 f   GuildListMgr.obj
 0001:0006f680       ?SortGuildsByName@CGuildListMgr@@SAX_N@Z 00470680 f   GuildListMgr.obj
 0001:0006fa30       ?_Xlength@?$vector@PAVCGuildListData@@V?$allocator@PAVCGuildListData@@@std@@@std@@CAXXZ 00470a30 f i GuildListMgr.obj
 0001:0006fa40       ?deallocate@?$allocator@PAVCGuildListData@@@std@@QAEXQAPAVCGuildListData@@I@Z 00470a40 f i GuildListMgr.obj
 0001:0006fa80       ??0CGuildMemberData@@QAE@XZ 00470a80 f   GuildMemberData.obj
 0001:0006fb60       ??1CGuildMemberData@@QAE@XZ 00470b60 f   GuildMemberData.obj
 0001:0006fbd0       ??$_Emplace_reallocate@ABQAVCGuildMemberData@@@?$vector@PAVCGuildMemberData@@V?$allocator@PAVCGuildMemberData@@@std@@@std@@QAEPAPAVCGuildMemberData@@QAPAV2@ABQAV2@@Z 00470bd0 f i GuildMembersMgr.obj
 0001:0006fd90       ?AddGuildMember@CGuildMembersMgr@@SAXPAVCGuildMemberData@@@Z 00470d90 f   GuildMembersMgr.obj
 0001:0006fdc0       ?DelGuildMemberByID@CGuildMembersMgr@@SA_NK@Z 00470dc0 f   GuildMembersMgr.obj
 0001:0006fe30       ?FindGuildMemberByID@CGuildMembersMgr@@SAPAVCGuildMemberData@@K@Z 00470e30 f   GuildMembersMgr.obj
 0001:0006fe60       ?FindGuildMemberByIndex@CGuildMembersMgr@@SAPAVCGuildMemberData@@K@Z 00470e60 f   GuildMembersMgr.obj
 0001:0006fe90       ?GetSelfData@CGuildMembersMgr@@SAPAVCGuildMemberData@@XZ 00470e90 f   GuildMembersMgr.obj
 0001:0006fed0       ?GetTotalGuildMembers@CGuildMembersMgr@@SAKXZ 00470ed0 f   GuildMembersMgr.obj
 0001:0006fee0       ?ResetAll@CGuildMembersMgr@@SAXXZ 00470ee0 f   GuildMembersMgr.obj
 0001:0006ff60       ?_Xlength@?$vector@PAVCGuildMemberData@@V?$allocator@PAVCGuildMemberData@@@std@@@std@@CAXXZ 00470f60 f i GuildMembersMgr.obj
 0001:0006ff70       ?deallocate@?$allocator@PAVCGuildMemberData@@@std@@QAEXQAPAVCGuildMemberData@@I@Z 00470f70 f i GuildMembersMgr.obj
 0001:0006ffb0       ??$_Emplace_reallocate@ABQAVCHairRecord@@@?$vector@PAVCHairRecord@@V?$allocator@PAVCHairRecord@@@std@@@std@@QAEPAPAVCHairRecord@@QAPAV2@ABQAV2@@Z 00470fb0 f i HairTool.obj
 0001:00070170       ??$_Emplace_reallocate@PAVCHairName@@@?$vector@PAVCHairName@@V?$allocator@PAVCHairName@@@std@@@std@@QAEPAPAVCHairName@@QAPAV2@$$QAPAV2@@Z 00471170 f i HairTool.obj
 0001:00070330       ??1?$vector@PAVCHairName@@V?$allocator@PAVCHairName@@@std@@@std@@QAE@XZ 00471330 f i HairTool.obj
 0001:000703c0       ??1?$vector@PAVCHairRecord@@V?$allocator@PAVCHairRecord@@@std@@@std@@QAE@XZ 004713c0 f i HairTool.obj
 0001:00070450       ??1CHairTools@@QAE@XZ      00471450 f   HairTool.obj
 0001:000704f0       ?RefreshCha@CHairTools@@QAE_NK@Z 004714f0 f   HairTool.obj
 0001:000706f0       ?_Clear@CHairTools@@AAEXXZ 004716f0 f   HairTool.obj
 0001:00070780       ?_Xlength@?$vector@PAVCHairName@@V?$allocator@PAVCHairName@@@std@@@std@@CAXXZ 00471780 f i HairTool.obj
 0001:00070790       ?_Xlength@?$vector@PAVCHairRecord@@V?$allocator@PAVCHairRecord@@@std@@@std@@CAXXZ 00471790 f i HairTool.obj
 0001:000707a0       ?deallocate@?$allocator@PAVCHairName@@@std@@QAEXQAPAVCHairName@@I@Z 004717a0 f i HairTool.obj
 0001:000707e0       ?deallocate@?$allocator@PAVCHairRecord@@@std@@QAEXQAPAVCHairRecord@@I@Z 004717e0 f i HairTool.obj
 0001:00070820       ??0CAttackEffect@@QAE@XZ   00471820 f   HMAttack.obj
 0001:000708c0       ??0CAttackRepSynchro@@QAE@XZ 004718c0 f   HMAttack.obj
 0001:00070960       ??0CAttribSynchro@@QAE@XZ  00471960 f   HMAttack.obj
 0001:000709e0       ??0CSkillStateSynchro@@QAE@XZ 004719e0 f   HMAttack.obj
 0001:00070a50       ??0stEffect@@QAE@XZ        00471a50 f i HMAttack.obj
 0001:00070a70       ??1?$CSizeArray@UstEffect@@@@QAE@XZ 00471a70 f i HMAttack.obj
 0001:00070a80       ??1?$CSizeArray@UstSkillState@@@@QAE@XZ 00471a80 f i HMAttack.obj
 0001:00070a90       ??_GCAttackEffect@@UAEPAXI@Z 00471a90 f i HMAttack.obj
 0001:00070a90       ??_ECAttackEffect@@UAEPAXI@Z 00471a90 f i HMAttack.obj
 0001:00070bc0       ??_ECAttackRepSynchro@@UAEPAXI@Z 00471bc0 f i HMAttack.obj
 0001:00070bc0       ??_GCAttackRepSynchro@@UAEPAXI@Z 00471bc0 f i HMAttack.obj
 0001:00070c60       ??_ECAttribSynchro@@UAEPAXI@Z 00471c60 f i HMAttack.obj
 0001:00070c60       ??_GCAttribSynchro@@UAEPAXI@Z 00471c60 f i HMAttack.obj
 0001:00070ce0       ??_ECSkillStateSynchro@@UAEPAXI@Z 00471ce0 f i HMAttack.obj
 0001:00070ce0       ??_GCSkillStateSynchro@@UAEPAXI@Z 00471ce0 f i HMAttack.obj
 0001:00070d60       ?ChaDied@CAttackEffect@@SAXPAVCCharacter@@0@Z 00471d60 f   HMAttack.obj
 0001:00070e10       ?CreateEffect@CAttackEffect@@SAXHPBDAAUD3DXVECTOR3@@11_NAAK@Z 00471e10 f   HMAttack.obj
 0001:00071020       ?ExecHarm@CAttackEffect@@SAXAAV?$CSizeArray@UstEffect@@@@PAVCCharacter@@1@Z 00472020 f   HMAttack.obj
 0001:000715d0       ?GetClassNameA@CAttackEffect@@UAEPBDXZ 004725d0 f i HMAttack.obj
 0001:000715e0       ?GetClassNameA@CAttackRepSynchro@@UAEPBDXZ 004725e0 f i HMAttack.obj
 0001:000715f0       ?GetClassNameA@CAttribSynchro@@UAEPBDXZ 004725f0 f i HMAttack.obj
 0001:00071600       ?GetClassNameA@CSkillStateSynchro@@UAEPBDXZ 00472600 f i HMAttack.obj
 0001:00071610       ?GetHarmCha@CAttackEffect@@UAEPAVCCharacter@@XZ 00472610 f i HMAttack.obj
 0001:00071620       ?GetHarmCha@CAttackRepSynchro@@UAEPAVCCharacter@@XZ 00472620 f i HMAttack.obj
 0001:00071630       ?GetHarmCha@CAttribSynchro@@UAEPAVCCharacter@@XZ 00472630 f i HMAttack.obj
 0001:00071640       ?GetHarmCha@CSkillStateSynchro@@UAEPAVCCharacter@@XZ 00472640 f i HMAttack.obj
 0001:00071650       ?Gouge@CAttackEffect@@UAEPAVCStateSynchro@@M@Z 00472650 f   HMAttack.obj
 0001:00071810       ?Gouge@CStateSynchro@@UAEPAV1@M@Z 00472810 f i HMAttack.obj
 0001:00071820       ?IsHarmMain@@YA_NPAVCCharacter@@0@Z 00472820 f i HMAttack.obj
 0001:00071850       ?Start@CAttribSynchro@@QAEXXZ 00472850 f   HMAttack.obj
 0001:00071860       ?_Create@?$CSizeArray@UstEffect@@@@AAEXI@Z 00472860 f i HMAttack.obj
 0001:000719a0       ?_Exec@CAttackEffect@@MAEXXZ 004729a0 f   HMAttack.obj
 0001:00071bb0       ?_Exec@CAttackRepSynchro@@MAEXXZ 00472bb0 f   HMAttack.obj
 0001:00071c00       ?_Exec@CAttribSynchro@@MAEXXZ 00472c00 f   HMAttack.obj
 0001:00072190       ?_Exec@CSkillStateSynchro@@MAEXXZ 00473190 f   HMAttack.obj
 0001:000721b0       ?push_back@?$vector@V?$basic_string@DU?$char_traits@D@std@@V?$allocator@D@2@@std@@V?$allocator@V?$basic_string@DU?$char_traits@D@std@@V?$allocator@D@2@@std@@@2@@std@@QAEX$$QAV?$basic_string@DU?$char_traits@D@std@@V?$allocator@D@2@@2@@Z 004731b0 f i HMAttack.obj
 0001:00072210       ?resize@?$basic_string@DU?$char_traits@D@std@@V?$allocator@D@2@@std@@QAEXID@Z 00473210 f i HMAttack.obj
 0001:00072380       ??$_Buynode@ABQAVCAttackEffect@@@?$_List_buy@PAVCAttackEffect@@V?$allocator@PAVCAttackEffect@@@std@@@std@@QAEPAU?$_List_node@PAVCAttackEffect@@PAX@1@PAU21@0ABQAVCAttackEffect@@@Z 00473380 f i HMManage.obj
 0001:00072400       ??0CServerHarm@@QAE@PAVCActor@@@Z 00473400 f   HMManage.obj
 0001:000724c0       ??1?$_List_alloc@U?$_List_base_types@PAVCAttackEffect@@V?$allocator@PAVCAttackEffect@@@std@@@std@@@std@@QAE@XZ 004734c0 f i HMManage.obj
 0001:00072500       ??1?$_List_buy@PAVCAttackEffect@@V?$allocator@PAVCAttackEffect@@@std@@@std@@QAE@XZ 00473500 f i HMManage.obj
 0001:00072550       ??1?$list@PAVCAttackEffect@@V?$allocator@PAVCAttackEffect@@@std@@@std@@QAE@XZ 00473550 f i HMManage.obj
 0001:000725d0       ?AddHarm@CServerHarm@@QAE_NPAVCAttackEffect@@PAVCSkillRecord@@@Z 004735d0 f   HMManage.obj
 0001:00072660       ?Exec@CServerHarm@@QAEXXZ  00473660 f   HMManage.obj
 0001:000726f0       ?ExecAll@CServerHarm@@QAEXXZ 004736f0 f   HMManage.obj
 0001:00072740       ?HitRepresent@CServerHarm@@QAEXPAVCSkillRecord@@H@Z 00473740 f   HMManage.obj
 0001:000727d0       ?InitMemory@CServerHarm@@QAEXXZ 004737d0 f   HMManage.obj
 0001:000727f0       ?IsAllowStateOver@CServerHarm@@QAE_NXZ 004737f0 f   HMManage.obj
 0001:00072810       ?SetIsOuter@CServerHarm@@QAEX_N@Z 00473810 f   HMManage.obj
 0001:000728c0       ?_Buynode0@?$_List_alloc@U?$_List_base_types@PAVCAttackEffect@@V?$allocator@PAVCAttackEffect@@@std@@@std@@@std@@QAEPAU?$_List_node@PAVCAttackEffect@@PAX@2@PAU32@0@Z 004738c0 f i HMManage.obj
 0001:00072950       ?deallocate@?$allocator@U?$_List_node@PAVCAttackEffect@@PAX@std@@@std@@QAEXQAU?$_List_node@PAVCAttackEffect@@PAX@2@I@Z 00473950 f i HMManage.obj
 0001:00072990       ??$_Emplace_reallocate@ABQAVCCharacter@@@?$vector@PAVCCharacter@@V?$allocator@PAVCCharacter@@@std@@@std@@QAEPAPAVCCharacter@@QAPAV2@ABQAV2@@Z 00473990 f i HMSynchroObj.obj
 0001:00072b50       ??0CStateSynchro@@QAE@XZ   00473b50 f   HMSynchroObj.obj
 0001:00072c30       ??1CStateSynchro@@UAE@XZ   00473c30 f   HMSynchroObj.obj
 0001:00072c40       ??_GCStateSynchro@@UAEPAXI@Z 00473c40 f i HMSynchroObj.obj
 0001:00072c40       ??_ECStateSynchro@@UAEPAXI@Z 00473c40 f i HMSynchroObj.obj
 0001:00072c70       ?FrameMove@CSynchroManage@@QAEXK@Z 00473c70 f   HMSynchroObj.obj
 0001:00072ea0       ?GetClassNameA@CStateSynchro@@UAEPBDXZ 00473ea0 f i HMSynchroObj.obj
 0001:00072eb0       ?Reset@CSynchroManage@@QAEXXZ 00473eb0 f   HMSynchroObj.obj
 0001:00072f00       ?_CollectEmpty@CSynchroManage@@AAEXXZ 00473f00 f   HMSynchroObj.obj
 0001:00072fb0       ?_Exec@CStateSynchro@@MAEXXZ 00473fb0 f i HMSynchroObj.obj
 0001:00072fc0       ?_Xlength@?$vector@PAVCCharacter@@V?$allocator@PAVCCharacter@@@std@@@std@@CAXXZ 00473fc0 f i HMSynchroObj.obj
 0001:00072fd0       ?deallocate@?$allocator@PAVCCharacter@@@std@@QAEXQAPAVCCharacter@@I@Z 00473fd0 f i HMSynchroObj.obj
 0001:00073010       ?GetError@CIsSkillUse@@QAEPBDXZ 00474010 f   IsSkillUse.obj
 0001:000731d0       ?IsAttack@CIsSkillUse@@QAE_NPAVCSkillRecord@@PAVCCharacter@@1@Z 004741d0 f   IsSkillUse.obj
 0001:00073410       ?IsUse@CIsSkillUse@@QAE_NPAVCSkillRecord@@PAVCCharacter@@1@Z 00474410 f   IsSkillUse.obj
 0001:00073790       ?IsValid@CIsSkillUse@@QAE_NPAVCSkillRecord@@PAVCCharacter@@@Z 00474790 f   IsSkillUse.obj
 0001:000738a0       ??$_Emplace_reallocate@ABQAUlwItemLitInfo@@@?$vector@PAUlwItemLitInfo@@V?$allocator@PAUlwItemLitInfo@@@std@@@std@@QAEPAPAUlwItemLitInfo@@QAPAU2@ABQAU2@@Z 004748a0 f i ItemLit.obj
 0001:000739d0       ??$_Emplace_reallocate@ABQAUlwLitInfo@@@?$vector@PAUlwLitInfo@@V?$allocator@PAUlwLitInfo@@@std@@@std@@QAEPAPAUlwLitInfo@@QAPAU2@ABQAU2@@Z 004749d0 f i ItemLit.obj
 0001:00073b00       ??0lwItemLit@@QAE@XZ       00474b00 f   ItemLit.obj
 0001:00073b60       ??0lwItemLitInfo@@QAE@XZ   00474b60 f i ItemLit.obj
 0001:00073be0       ??1?$vector@PAUlwItemLitInfo@@V?$allocator@PAUlwItemLitInfo@@@std@@@std@@QAE@XZ 00474be0 f i ItemLit.obj
 0001:00073c70       ??1?$vector@PAUlwLitInfo@@V?$allocator@PAUlwLitInfo@@@std@@@std@@QAE@XZ 00474c70 f i ItemLit.obj
 0001:00073d00       ??1lwItemLit@@QAE@XZ       00474d00 f   ItemLit.obj
 0001:00073e00       ??_GlwItemLitInfo@@QAEPAXI@Z 00474e00 f i ItemLit.obj
 0001:00073ed0       ?Clear@lwItemLit@@QAEJXZ   00474ed0 f   ItemLit.obj
 0001:00073fd0       ?FindItem@lwItemLit@@QAEJKPAPAUlwItemLitInfo@@@Z 00474fd0 f   ItemLit.obj
 0001:00074010       ?Load@lwItemLit@@QAEJPBD@Z 00475010 f   ItemLit.obj
 0001:000742b0       ?_Change_array@?$vector@PAUlwItemLitInfo@@V?$allocator@PAUlwItemLitInfo@@@std@@@std@@AAEXQAPAUlwItemLitInfo@@II@Z 004752b0 f i ItemLit.obj
 0001:00074310       ?_Change_array@?$vector@PAUlwLitInfo@@V?$allocator@PAUlwLitInfo@@@std@@@std@@AAEXQAPAUlwLitInfo@@II@Z 00475310 f i ItemLit.obj
 0001:00074370       ?_Getal@?$_Vector_alloc@U?$_Vec_base_types@PAUlwItemLitInfo@@V?$allocator@PAUlwItemLitInfo@@@std@@@std@@@std@@QAEAAV?$allocator@PAUlwItemLitInfo@@@2@XZ 00475370 f i ItemLit.obj
 0001:00074380       ?_Getal@?$_Vector_alloc@U?$_Vec_base_types@PAUlwLitInfo@@V?$allocator@PAUlwLitInfo@@@std@@@std@@@std@@QAEAAV?$allocator@PAUlwLitInfo@@@2@XZ 00475380 f i ItemLit.obj
 0001:00074390       ?_Reallocate_exactly@?$vector@PAUlwItemLitInfo@@V?$allocator@PAUlwItemLitInfo@@@std@@@std@@AAEXI@Z 00475390 f i ItemLit.obj
 0001:00074470       ?_Reallocate_exactly@?$vector@PAUlwLitInfo@@V?$allocator@PAUlwLitInfo@@@std@@@std@@AAEXI@Z 00475470 f i ItemLit.obj
 0001:00074550       ?_Xlength@?$vector@PAUlwItemLitInfo@@V?$allocator@PAUlwItemLitInfo@@@std@@@std@@CAXXZ 00475550 f i ItemLit.obj
 0001:00074560       ?_Xlength@?$vector@PAUlwLitInfo@@V?$allocator@PAUlwLitInfo@@@std@@@std@@CAXXZ 00475560 f i ItemLit.obj
 0001:00074570       ?allocate@?$allocator@PAUlwItemLitInfo@@@std@@QAEPAPAUlwItemLitInfo@@I@Z 00475570 f i ItemLit.obj
 0001:000745e0       ?allocate@?$allocator@PAUlwLitInfo@@@std@@QAEPAPAUlwLitInfo@@I@Z 004755e0 f i ItemLit.obj
 0001:00074650       ?deallocate@?$allocator@PAUlwItemLitInfo@@@std@@QAEXQAPAUlwItemLitInfo@@I@Z 00475650 f i ItemLit.obj
 0001:00074690       ?deallocate@?$allocator@PAUlwLitInfo@@@std@@QAEXQAPAUlwLitInfo@@I@Z 00475690 f i ItemLit.obj
 0001:000746d0       ?push_back@?$vector@PAUlwItemLitInfo@@V?$allocator@PAUlwItemLitInfo@@@std@@@std@@QAEXABQAUlwItemLitInfo@@@Z 004756d0 f i ItemLit.obj
 0001:00074700       ?lwLitAnimTexCoord0@@YAJPAVdrIAnimKeySetPRS@LightEngine@@@Z 00475700 f   ItemLitAnim.obj
 0001:000747c0       ?lwLitAnimTexCoord1@@YAJPAVdrIAnimKeySetPRS@LightEngine@@@Z 004757c0 f   ItemLitAnim.obj
 0001:00074850       ?lwLitAnimTexCoord2@@YAJPAVdrIAnimKeySetPRS@LightEngine@@@Z 00475850 f   ItemLitAnim.obj
 0001:000748e0       ?lwLitAnimTexCoord360posv@@YAJPAVdrIAnimKeySetPRS@LightEngine@@@Z 004758e0 f   ItemLitAnim.obj
 0001:00074970       ?lwLitAnimTexCoord360posuv@@YAJPAVdrIAnimKeySetPRS@LightEngine@@@Z 00475970 f   ItemLitAnim.obj
 0001:00074a00       ?lwLitAnimTexCoord3@@YAJPAVdrIAnimKeySetPRS@LightEngine@@@Z 00475a00 f   ItemLitAnim.obj
 0001:00074b20       ?lwLitAnimTexCoord_360_pos_rot_neg@@YAJPAVdrIAnimKeySetPRS@LightEngine@@@Z 00475b20 f   ItemLitAnim.obj
 0001:00074c40       ?lwLitAnimTexCoord4@@YAJPAVdrIAnimKeySetPRS@LightEngine@@@Z 00475c40 f   ItemLitAnim.obj
 0001:00074d00       ?Lit@LitMgr@@QAEPAULitInfo@@KKPBD@Z 00475d00 f   LitLoad.obj
 0001:00074d60       ?Load@LitMgr@@QAEHPBD@Z    00475d60 f   LitLoad.obj
 0001:00074fa0       ___local_stdio_scanf_options 00475fa0 f i LitLoad.obj
 0001:00074fb0       _fscanf_s                  00475fb0 f i LitLoad.obj
 0001:00074fe0       ??$?0PBD@Controller@XmlStream@@QAE@W4what_type@01@ABQBD@Z 00475fe0 f i LoginScene.obj
 0001:00075060       ??$?6DU?$char_traits@D@std@@V?$allocator@D@1@@std@@YAAAV?$basic_ostream@DU?$char_traits@D@std@@@0@AAV10@ABV?$basic_string@DU?$char_traits@D@std@@V?$allocator@D@2@@0@@Z 00476060 f i LoginScene.obj
 0001:00075080       ??$?6U?$char_traits@D@std@@@std@@YAAAV?$basic_ostream@DU?$char_traits@D@std@@@0@AAV10@D@Z 00476080 f i LoginScene.obj
 0001:000752b0       ??$?6V?$basic_string@DU?$char_traits@D@std@@V?$allocator@D@2@@std@@@XmlStream@@QAEAAV0@ABV?$basic_string@DU?$char_traits@D@std@@V?$allocator@D@2@@std@@@Z 004762b0 f i LoginScene.obj
 0001:00075300       ??$_Insert_string@DU?$char_traits@D@std@@I@std@@YAAAV?$basic_ostream@DU?$char_traits@D@std@@@0@AAV10@QBDI@Z 00476300 f i LoginScene.obj
 0001:00075510       ??$_Maklocstr@D@std@@YAPADPBDPADABU_Cvtvec@@@Z 00476510 f i LoginScene.obj
 0001:00075560       ??$count@V?$istreambuf_iterator@DU?$char_traits@D@std@@@std@@D@std@@YA_JV?$istreambuf_iterator@DU?$char_traits@D@std@@@0@0ABD@Z 00476560 f i LoginScene.obj
 0001:000756b0       ??$getline@DU?$char_traits@D@std@@V?$allocator@D@2@@std@@YAAAV?$basic_istream@DU?$char_traits@D@std@@@0@$$QAV10@AAV?$basic_string@DU?$char_traits@D@std@@V?$allocator@D@2@@0@D@Z 004766b0 f i LoginScene.obj
 0001:000758a0       ??$use_facet@V?$num_put@DV?$ostreambuf_iterator@DU?$char_traits@D@std@@@std@@@std@@@std@@YAABV?$num_put@DV?$ostreambuf_iterator@DU?$char_traits@D@std@@@std@@@0@ABVlocale@0@@Z 004768a0 f i LoginScene.obj
 0001:00075a50       ??$use_facet@V?$numpunct@D@std@@@std@@YAABV?$numpunct@D@0@ABVlocale@0@@Z 00476a50 f i LoginScene.obj
 0001:00075c00       ??0?$basic_ofstream@DU?$char_traits@D@std@@@std@@QAE@PBDHH@Z 00476c00 f i LoginScene.obj
 0001:00075df0       ??0?$basic_string@DU?$char_traits@D@std@@V?$allocator@D@2@@std@@QAE@ID@Z 00476df0 f i LoginScene.obj
 0001:00075f00       ??0?$vector@V?$basic_string@DU?$char_traits@D@std@@V?$allocator@D@2@@std@@V?$allocator@V?$basic_string@DU?$char_traits@D@std@@V?$allocator@D@2@@std@@@2@@std@@QAE@IABV?$allocator@V?$basic_string@DU?$char_traits@D@std@@V?$allocator@D@2@@std@@@1@@Z 00476f00 f i LoginScene.obj
 0001:00075fb0       ??0CLoginScene@@QAE@AAUstSceneInitParam@@@Z 00476fb0 f   LoginScene.obj
 0001:00076120       ??0XmlStream@@QAE@AAV?$basic_ostream@DU?$char_traits@D@std@@@std@@@Z 00477120 f i LoginScene.obj
 0001:00076270       ??0bad_cast@std@@QAE@ABV01@@Z 00477270 f i LoginScene.obj
 0001:000762f0       ??1?$_Deque_alloc@U?$_Deque_base_types@V?$basic_string@DU?$char_traits@D@std@@V?$allocator@D@2@@std@@V?$allocator@V?$basic_string@DU?$char_traits@D@std@@V?$allocator@D@2@@std@@@2@@std@@@std@@QAE@XZ 004772f0 f i LoginScene.obj
 0001:00076340       ??1?$basic_stringbuf@DU?$char_traits@D@std@@V?$allocator@D@2@@std@@UAE@XZ 00477340 f i LoginScene.obj
 0001:000763d0       ??1?$deque@V?$basic_string@DU?$char_traits@D@std@@V?$allocator@D@2@@std@@V?$allocator@V?$basic_string@DU?$char_traits@D@std@@V?$allocator@D@2@@std@@@2@@std@@QAE@XZ 004773d0 f i LoginScene.obj
 0001:000764d0       ??1?$stack@V?$basic_string@DU?$char_traits@D@std@@V?$allocator@D@2@@std@@V?$deque@V?$basic_string@DU?$char_traits@D@std@@V?$allocator@D@2@@std@@V?$allocator@V?$basic_string@DU?$char_traits@D@std@@V?$allocator@D@2@@std@@@2@@2@@std@@QAE@XZ 004774d0 f i LoginScene.obj
 0001:00076520       ??1Controller@XmlStream@@QAE@XZ 00477520 f i LoginScene.obj
 0001:00076570       ??1XmlStream@@QAE@XZ       00477570 f i LoginScene.obj
 0001:00076640       ??6?$basic_ostream@DU?$char_traits@D@std@@@std@@QAEAAV01@H@Z 00477640 f i LoginScene.obj
 0001:00076810       ??6XmlStream@@QAEAAV0@ABUController@0@@Z 00477810 f i LoginScene.obj
 0001:00076a20       ??_D?$basic_ostringstream@DU?$char_traits@D@std@@V?$allocator@D@2@@std@@QAEXXZ 00477a20 f i LoginScene.obj
 0001:00076b0c       ??_E?$basic_ostringstream@DU?$char_traits@D@std@@V?$allocator@D@2@@std@@$4PPPPPPPM@A@AEPAXI@Z 00477b0c f i LoginScene.obj
 0001:00076b14       ??_ECLoginScene@@WBMI@AEPAXI@Z 00477b14 f i LoginScene.obj
 0001:00076b20       ??_E?$basic_ostringstream@DU?$char_traits@D@std@@V?$allocator@D@2@@std@@UAEPAXI@Z 00477b20 f i LoginScene.obj
 0001:00076b20       ??_G?$basic_ostringstream@DU?$char_traits@D@std@@V?$allocator@D@2@@std@@UAEPAXI@Z 00477b20 f i LoginScene.obj
 0001:00076b50       ??_E?$basic_stringbuf@DU?$char_traits@D@std@@V?$allocator@D@2@@std@@UAEPAXI@Z 00477b50 f i LoginScene.obj
 0001:00076b50       ??_G?$basic_stringbuf@DU?$char_traits@D@std@@V?$allocator@D@2@@std@@UAEPAXI@Z 00477b50 f i LoginScene.obj
 0001:00076bf0       ??_E?$num_put@DV?$ostreambuf_iterator@DU?$char_traits@D@std@@@std@@@std@@MAEPAXI@Z 00477bf0 f i LoginScene.obj
 0001:00076bf0       ??_G?$num_put@DV?$ostreambuf_iterator@DU?$char_traits@D@std@@@std@@@std@@MAEPAXI@Z 00477bf0 f i LoginScene.obj
 0001:00076c60       ??_G?$numpunct@D@std@@MAEPAXI@Z 00477c60 f i LoginScene.obj
 0001:00076c60       ??_E?$numpunct@D@std@@MAEPAXI@Z 00477c60 f i LoginScene.obj
 0001:00076cf0       ??_GCLoginScene@@UAEPAXI@Z 00477cf0 f i LoginScene.obj
 0001:00076cf0       ??_ECLoginScene@@UAEPAXI@Z 00477cf0 f i LoginScene.obj
 0001:00076de0       ?Error@CLoginScene@@QAEXHPBD@Z 00477de0 f   LoginScene.obj
 0001:00076e60       ?FSCommand@CLoginScene@@UAEXPAD0@Z 00477e60 f   LoginScene.obj
 0001:000770b0       ?FlashProc@CLoginScene@@UAEHIIJ@Z 004780b0 f   LoginScene.obj
 0001:000770f0       ?InitRegionList@CLoginScene@@QAEXXZ 004780f0 f   LoginScene.obj
 0001:000771d0       ?LoadingCall@CLoginScene@@MAEXXZ 004781d0 f   LoginScene.obj
 0001:000771e0       ?LoginFlow@CLoginScene@@QAEXXZ 004781e0 f   LoginScene.obj
 0001:00077280       ?SetAccount@CLoginScene@@SAXH@Z 00478280 f   LoginScene.obj
 0001:000772a0       ?SetIsChecked@CCheckBox@GUI@@QAEX_N@Z 004782a0 f i LoginScene.obj
 0001:000772d0       ?ShowChaList@CLoginScene@@QAEXXZ 004782d0 f   LoginScene.obj
 0001:00077300       ?ShowKeyboard@CLoginScene@@CAX_N@Z 00478300 f   LoginScene.obj
 0001:00077340       ?ShowLoginForm@CLoginScene@@QAEXXZ 00478340 f   LoginScene.obj
 0001:00077550       ?ShowRegionList@CLoginScene@@QAEXXZ 00478550 f   LoginScene.obj
 0001:000775e0       ?_CheckAccount@CLoginScene@@IAE_NXZ 004785e0 f   LoginScene.obj
 0001:000778b0       ?_Clear@CLoginScene@@MAE_NXZ 004788b0 f   LoginScene.obj
 0001:00077940       ?_Connect@CLoginScene@@IAEXXZ 00478940 f   LoginScene.obj
 0001:00077ae0       ?_Ffmt@?$num_put@DV?$ostreambuf_iterator@DU?$char_traits@D@std@@@std@@@std@@ABAPADPADDH@Z 00478ae0 f i LoginScene.obj
 0001:00077ba0       ?_Fput@?$num_put@DV?$ostreambuf_iterator@DU?$char_traits@D@std@@@std@@@std@@ABA?AV?$ostreambuf_iterator@DU?$char_traits@D@std@@@2@V32@AAVios_base@2@DPBDI@Z 00478ba0 f i LoginScene.obj
 0001:00078120       ?_FrameMove@CLoginScene@@MAEXK@Z 00479120 f   LoginScene.obj
 0001:00078480       ?_Growmap@?$deque@V?$basic_string@DU?$char_traits@D@std@@V?$allocator@D@2@@std@@V?$allocator@V?$basic_string@DU?$char_traits@D@std@@V?$allocator@D@2@@std@@@2@@std@@IAEXI@Z 00479480 f i LoginScene.obj
 0001:00078620       ?_Ifmt@?$num_put@DV?$ostreambuf_iterator@DU?$char_traits@D@std@@@std@@@std@@ABAPADPADPBDH@Z 00479620 f i LoginScene.obj
 0001:000786b0       ?_Init@?$numpunct@D@std@@IAEXABV_Locinfo@2@_N@Z 004796b0 f i LoginScene.obj
 0001:000787f0       ?_Init@CLoginScene@@MAE_NXZ 004797f0 f   LoginScene.obj
 0001:00078a30       ?_InitUI@CLoginScene@@IAEHXZ 00479a30 f   LoginScene.obj
 0001:00079210       ?_Iput@?$num_put@DV?$ostreambuf_iterator@DU?$char_traits@D@std@@@std@@@std@@ABA?AV?$ostreambuf_iterator@DU?$char_traits@D@std@@@2@V32@AAVios_base@2@DPADI@Z 0047a210 f i LoginScene.obj
 0001:000796f0       ?_MouseButtonDown@CGameScene@@MAE_NH@Z 0047a6f0 f i LoginScene.obj
 0001:00079700       ?_MouseMove@CGameScene@@MAE_NHH@Z 0047a700 f i LoginScene.obj
 0001:00079710       ?_Put@?$num_put@DV?$ostreambuf_iterator@DU?$char_traits@D@std@@@std@@@std@@ABA?AV?$ostreambuf_iterator@DU?$char_traits@D@std@@@2@V32@PBDI@Z 0047a710 f i LoginScene.obj
 0001:00079790       ?_Render@CLoginScene@@MAEXXZ 0047a790 f   LoginScene.obj
 0001:00079910       ?_Rep@?$num_put@DV?$ostreambuf_iterator@DU?$char_traits@D@std@@@std@@@std@@ABA?AV?$ostreambuf_iterator@DU?$char_traits@D@std@@@2@V32@DI@Z 0047a910 f i LoginScene.obj
 0001:00079980       ?_Tidy@?$basic_stringbuf@DU?$char_traits@D@std@@V?$allocator@D@2@@std@@IAEXXZ 0047a980 f i LoginScene.obj
 0001:00079a20       ?_Tidy@?$numpunct@D@std@@AAEXXZ 0047aa20 f i LoginScene.obj
 0001:00079a40       ?_Udefault@?$vector@V?$basic_string@DU?$char_traits@D@std@@V?$allocator@D@2@@std@@V?$allocator@V?$basic_string@DU?$char_traits@D@std@@V?$allocator@D@2@@std@@@2@@std@@AAEPAV?$basic_string@DU?$char_traits@D@std@@V?$allocator@D@2@@2@PAV32@I@Z 0047aa40 f i LoginScene.obj
 0001:00079ac0       ?_Xlen@?$deque@V?$basic_string@DU?$char_traits@D@std@@V?$allocator@D@2@@std@@V?$allocator@V?$basic_string@DU?$char_traits@D@std@@V?$allocator@D@2@@std@@@2@@std@@IBEXXZ 0047aac0 f i LoginScene.obj
 0001:00079ad0       ?_evtAccountFocus@CLoginScene@@CAXPAVCGuiData@GUI@@@Z 0047aad0 f   LoginScene.obj
 0001:00079b00       ?_evtEnter@CLoginScene@@CAXPAVCGuiData@GUI@@@Z 0047ab00 f   LoginScene.obj
 0001:00079b30       ?_evtKeyboardFromMouseEvent@CLoginScene@@CAXPAVCCompent@GUI@@HHHK@Z 0047ab30 f   LoginScene.obj
 0001:0007a220       ?_evtLoginFrm@CLoginScene@@CAXPAVCCompent@GUI@@HHHK@Z 0047b220 f   LoginScene.obj
 0001:0007a430       ?_evtRegionFrm@CLoginScene@@CAXPAVCCompent@GUI@@HHHK@Z 0047b430 f   LoginScene.obj
 0001:0007a550       ?_evtRegionLDBDown@CLoginScene@@CAXPAVCGuiData@GUI@@HHK@Z 0047b550 f   LoginScene.obj
 0001:0007c730       ?_evtVerErrorFrm@CLoginScene@@CAXPAVCCompent@GUI@@HHHK@Z 0047d730 f   LoginScene.obj
 0001:0007c7a0       ?at@?$basic_string@DU?$char_traits@D@std@@V?$allocator@D@2@@std@@QAEAADI@Z 0047d7a0 f i LoginScene.obj
 0001:0007c7c0       ?clearTagName@XmlStream@@AAEXXZ 0047d7c0 f i LoginScene.obj
 0001:0007c850       ?closeTagStart@XmlStream@@AAEX_N@Z 0047d850 f i LoginScene.obj
 0001:0007c910       ?count_line@@YAHAAV?$basic_istream@DU?$char_traits@D@std@@@std@@@Z 0047d910 f   LoginScene.obj
 0001:0007cb70       ?deallocate@?$allocator@D@std@@QAEXQADI@Z 0047db70 f i LoginScene.obj
 0001:0007cbb0       ?do_decimal_point@?$numpunct@D@std@@MBEDXZ 0047dbb0 f i LoginScene.obj
 0001:0007cbc0       ?do_falsename@?$numpunct@D@std@@MBE?AV?$basic_string@DU?$char_traits@D@std@@V?$allocator@D@2@@2@XZ 0047dbc0 f i LoginScene.obj
 0001:0007cc40       ?do_grouping@?$numpunct@D@std@@MBE?AV?$basic_string@DU?$char_traits@D@std@@V?$allocator@D@2@@2@XZ 0047dc40 f i LoginScene.obj
 0001:0007ccc0       ?do_put@?$num_put@DV?$ostreambuf_iterator@DU?$char_traits@D@std@@@std@@@std@@MBE?AV?$ostreambuf_iterator@DU?$char_traits@D@std@@@2@V32@AAVios_base@2@DJ@Z 0047dcc0 f i LoginScene.obj
 0001:0007cd30       ?do_put@?$num_put@DV?$ostreambuf_iterator@DU?$char_traits@D@std@@@std@@@std@@MBE?AV?$ostreambuf_iterator@DU?$char_traits@D@std@@@2@V32@AAVios_base@2@DK@Z 0047dd30 f i LoginScene.obj
 0001:0007cda0       ?do_put@?$num_put@DV?$ostreambuf_iterator@DU?$char_traits@D@std@@@std@@@std@@MBE?AV?$ostreambuf_iterator@DU?$char_traits@D@std@@@2@V32@AAVios_base@2@DN@Z 0047dda0 f i LoginScene.obj
 0001:0007cf30       ?do_put@?$num_put@DV?$ostreambuf_iterator@DU?$char_traits@D@std@@@std@@@std@@MBE?AV?$ostreambuf_iterator@DU?$char_traits@D@std@@@2@V32@AAVios_base@2@DO@Z 0047df30 f i LoginScene.obj
 0001:0007d0c0       ?do_put@?$num_put@DV?$ostreambuf_iterator@DU?$char_traits@D@std@@@std@@@std@@MBE?AV?$ostreambuf_iterator@DU?$char_traits@D@std@@@2@V32@AAVios_base@2@DPBX@Z 0047e0c0 f i LoginScene.obj
 0001:0007d120       ?do_put@?$num_put@DV?$ostreambuf_iterator@DU?$char_traits@D@std@@@std@@@std@@MBE?AV?$ostreambuf_iterator@DU?$char_traits@D@std@@@2@V32@AAVios_base@2@D_J@Z 0047e120 f i LoginScene.obj
 0001:0007d190       ?do_put@?$num_put@DV?$ostreambuf_iterator@DU?$char_traits@D@std@@@std@@@std@@MBE?AV?$ostreambuf_iterator@DU?$char_traits@D@std@@@2@V32@AAVios_base@2@D_K@Z 0047e190 f i LoginScene.obj
 0001:0007d200       ?do_put@?$num_put@DV?$ostreambuf_iterator@DU?$char_traits@D@std@@@std@@@std@@MBE?AV?$ostreambuf_iterator@DU?$char_traits@D@std@@@2@V32@AAVios_base@2@D_N@Z 0047e200 f i LoginScene.obj
 0001:0007d480       ?do_thousands_sep@?$numpunct@D@std@@MBEDXZ 0047e480 f i LoginScene.obj
 0001:0007d490       ?do_truename@?$numpunct@D@std@@MBE?AV?$basic_string@DU?$char_traits@D@std@@V?$allocator@D@2@@2@XZ 0047e490 f i LoginScene.obj
 0001:0007d510       ?endTag@XmlStream@@AAEXABV?$basic_string@DU?$char_traits@D@std@@V?$allocator@D@2@@std@@@Z 0047e510 f i LoginScene.obj
 0001:0007d700       ?erase@?$basic_string@DU?$char_traits@D@std@@V?$allocator@D@2@@std@@QAEAAV12@I@Z 0047e700 f i LoginScene.obj
 0001:0007d730       ?get@?$basic_istream@DU?$char_traits@D@std@@@std@@QAEHXZ 0047e730 f i LoginScene.obj
 0001:0007d8c0       ?grouping@?$numpunct@D@std@@QBE?AV?$basic_string@DU?$char_traits@D@std@@V?$allocator@D@2@@2@XZ 0047e8c0 f i LoginScene.obj
 0001:0007d920       ?overflow@?$basic_stringbuf@DU?$char_traits@D@std@@V?$allocator@D@2@@std@@MAEHH@Z 0047e920 f i LoginScene.obj
 0001:0007da80       ?pbackfail@?$basic_stringbuf@DU?$char_traits@D@std@@V?$allocator@D@2@@std@@MAEHH@Z 0047ea80 f i LoginScene.obj
 0001:0007dae0       ?push@?$stack@V?$basic_string@DU?$char_traits@D@std@@V?$allocator@D@2@@std@@V?$deque@V?$basic_string@DU?$char_traits@D@std@@V?$allocator@D@2@@std@@V?$allocator@V?$basic_string@DU?$char_traits@D@std@@V?$allocator@D@2@@std@@@2@@2@@std@@QAEX$$QAV?$basic_string@DU?$char_traits@D@std@@V?$allocator@D@2@@2@@Z 0047eae0 f i LoginScene.obj
 0001:0007db80       ?push@?$stack@V?$basic_string@DU?$char_traits@D@std@@V?$allocator@D@2@@std@@V?$deque@V?$basic_string@DU?$char_traits@D@std@@V?$allocator@D@2@@std@@V?$allocator@V?$basic_string@DU?$char_traits@D@std@@V?$allocator@D@2@@std@@@2@@2@@std@@QAEXABV?$basic_string@DU?$char_traits@D@std@@V?$allocator@D@2@@2@@Z 0047eb80 f i LoginScene.obj
 0001:0007dbf0       ?seekg@?$basic_istream@DU?$char_traits@D@std@@@std@@QAEAAV12@V?$fpos@U_Mbstatet@@@2@@Z 0047ebf0 f i LoginScene.obj
 0001:0007dd80       ?seekoff@?$basic_stringbuf@DU?$char_traits@D@std@@V?$allocator@D@2@@std@@MAE?AV?$fpos@U_Mbstatet@@@2@_JHH@Z 0047ed80 f i LoginScene.obj
 0001:0007dee0       ?seekpos@?$basic_stringbuf@DU?$char_traits@D@std@@V?$allocator@D@2@@std@@MAE?AV?$fpos@U_Mbstatet@@@2@V32@H@Z 0047eee0 f i LoginScene.obj
 0001:0007dfd0       ?str@?$basic_ostringstream@DU?$char_traits@D@std@@V?$allocator@D@2@@std@@QBE?AV?$basic_string@DU?$char_traits@D@std@@V?$allocator@D@2@@2@XZ 0047efd0 f i LoginScene.obj
 0001:0007e0b0       ?sungetc@?$basic_streambuf@DU?$char_traits@D@std@@@std@@QAEHXZ 0047f0b0 f i LoginScene.obj
 0001:0007e0e0       ?underflow@?$basic_stringbuf@DU?$char_traits@D@std@@V?$allocator@D@2@@std@@MAEHXZ 0047f0e0 f i LoginScene.obj
 0001:0007e140       ?unget@?$basic_istream@DU?$char_traits@D@std@@@std@@QAEAAV12@XZ 0047f140 f i LoginScene.obj
 0001:0007e310       ??$_Buynode@V?$basic_string@DU?$char_traits@D@std@@V?$allocator@D@2@@std@@@?$_List_buy@V?$basic_string@DU?$char_traits@D@std@@V?$allocator@D@2@@std@@V?$allocator@V?$basic_string@DU?$char_traits@D@std@@V?$allocator@D@2@@std@@@2@@std@@QAEPAU?$_List_node@V?$basic_string@DU?$char_traits@D@std@@V?$allocator@D@2@@std@@PAX@1@PAU21@0$$QAV?$basic_string@DU?$char_traits@D@std@@V?$allocator@D@2@@1@@Z 0047f310 f i lua_platform.obj
 0001:0007e3a0       ??$construct@V?$basic_string@DU?$char_traits@D@std@@V?$allocator@D@2@@std@@V12@@?$_Default_allocator_traits@V?$allocator@U?$_List_node@V?$basic_string@DU?$char_traits@D@std@@V?$allocator@D@2@@std@@PAX@std@@@std@@@std@@SAXAAV?$allocator@U?$_List_node@V?$basic_string@DU?$char_traits@D@std@@V?$allocator@D@2@@std@@PAX@std@@@1@QAV?$basic_string@DU?$char_traits@D@std@@V?$allocator@D@2@@1@$$QAV31@@Z 0047f3a0 f i lua_platform.obj
 0001:0007e3e0       ??0?$fpos@U_Mbstatet@@@std@@QAE@_J@Z 0047f3e0 f i lua_platform.obj
 0001:0007e410       ??1strstreambuf@std@@UAE@XZ 0047f410 f i lua_platform.obj
 0001:0007e4c0       ??_Dostrstream@std@@QAEXXZ 0047f4c0 f i lua_platform.obj
 0001:0007e565       ??_Eostrstream@std@@$4PPPPPPPM@A@AEPAXI@Z 0047f565 f i lua_platform.obj
 0001:0007e570       ??_Gostrstream@std@@UAEPAXI@Z 0047f570 f i lua_platform.obj
 0001:0007e570       ??_Eostrstream@std@@UAEPAXI@Z 0047f570 f i lua_platform.obj
 0001:0007e5a0       ??_Estrstreambuf@std@@UAEPAXI@Z 0047f5a0 f i lua_platform.obj
 0001:0007e5a0       ??_Gstrstreambuf@std@@UAEPAXI@Z 0047f5a0 f i lua_platform.obj
 0001:0007e5d0       ?CreateScriptDebugWindow@@YAXPAUHINSTANCE__@@PAUHWND__@@@Z 0047f5d0 f   lua_platform.obj
 0001:0007e660       ?InitLuaPlatform@@YAXXZ    0047f660 f   lua_platform.obj
 0001:000808b0       ?ScriptDialogProc@@YGHPAUHWND__@@IIJ@Z 004818b0 f   lua_platform.obj
 0001:00080a60       ?ToggleScriptDebugWindow@@YAXXZ 00481a60 f   lua_platform.obj
 0001:00080a90       ?_Free@strstreambuf@std@@ABEXPAD@Z 00481a90 f i lua_platform.obj
 0001:00080ac0       ?_Init@strstreambuf@std@@IAEX_JPAD1H@Z 00481ac0 f i lua_platform.obj
 0001:00080c00       ?lua_GetResString@@YAHPAUlua_State@@@Z 00481c00 f i lua_platform.obj
 0001:00080cb0       ?lua_GetTickCount@@YAHPAUlua_State@@@Z 00481cb0 f i lua_platform.obj
 0001:00080cf0       ?lua_IsKeyDown@@YAHPAUlua_State@@@Z 00481cf0 f i lua_platform.obj
 0001:00080da0       ?lua_LG@@YAHPAUlua_State@@@Z 00481da0 f i lua_platform.obj
 0001:00081050       ?lua_MsgBox@@YAHPAUlua_State@@@Z 00482050 f i lua_platform.obj
 0001:00081080       ?lua_Rand@@YAHPAUlua_State@@@Z 00482080 f i lua_platform.obj
 0001:00081110       ?lua_SysInfo@@YAHPAUlua_State@@@Z 00482110 f i lua_platform.obj
 0001:000813a0       ?lua_appGetCurScene@@YAHPAUlua_State@@@Z 004823a0 f i lua_platform.obj
 0001:00081400       ?lua_appPlaySound@@YAHPAUlua_State@@@Z 00482400 f i lua_platform.obj
 0001:00081480       ?lua_appSetCaption@@YAHPAUlua_State@@@Z 00482480 f i lua_platform.obj
 0001:000814f0       ?lua_appUpdateRender@@YAHPAUlua_State@@@Z 004824f0 f i lua_platform.obj
 0001:00081510       ?lua_camFollow@@YAHPAUlua_State@@@Z 00482510 f i lua_platform.obj
 0001:00081590       ?lua_camGetCenter@@YAHPAUlua_State@@@Z 00482590 f i lua_platform.obj
 0001:000815f0       ?lua_camMoveForward@@YAHPAUlua_State@@@Z 004825f0 f i lua_platform.obj
 0001:000816a0       ?lua_camMoveLeft@@YAHPAUlua_State@@@Z 004826a0 f i lua_platform.obj
 0001:00081750       ?lua_camMoveUp@@YAHPAUlua_State@@@Z 00482750 f i lua_platform.obj
 0001:000817e0       ?lua_camSetAngle@@YAHPAUlua_State@@@Z 004827e0 f i lua_platform.obj
 0001:00081850       ?lua_camSetCenter@@YAHPAUlua_State@@@Z 00482850 f i lua_platform.obj
 0001:00081950       ?lua_chaChangePart@@YAHPAUlua_State@@@Z 00482950 f i lua_platform.obj
 0001:00081a20       ?lua_chaMoveTo@@YAHPAUlua_State@@@Z 00482a20 f i lua_platform.obj
 0001:00081b50       ?lua_chaPlayPose@@YAHPAUlua_State@@@Z 00482b50 f i lua_platform.obj
 0001:00081c30       ?lua_chaSay@@YAHPAUlua_State@@@Z 00482c30 f i lua_platform.obj
 0001:00081d70       ?lua_chaStop@@YAHPAUlua_State@@@Z 00482d70 f i lua_platform.obj
 0001:00081df0       ?lua_objGetAttr@@YAHPAUlua_State@@@Z 00482df0 f i lua_platform.obj
 0001:00081eb0       ?lua_objGetFaceAngle@@YAHPAUlua_State@@@Z 00482eb0 f i lua_platform.obj
 0001:00081f40       ?lua_objGetID@@YAHPAUlua_State@@@Z 00482f40 f i lua_platform.obj
 0001:00081fd0       ?lua_objGetPos@@YAHPAUlua_State@@@Z 00482fd0 f i lua_platform.obj
 0001:00082070       ?lua_objIsValid@@YAHPAUlua_State@@@Z 00483070 f i lua_platform.obj
 0001:00082100       ?lua_objSetAttr@@YAHPAUlua_State@@@Z 00483100 f i lua_platform.obj
 0001:000821e0       ?lua_objSetFaceAngle@@YAHPAUlua_State@@@Z 004831e0 f i lua_platform.obj
 0001:00082280       ?lua_objSetPos@@YAHPAUlua_State@@@Z 00483280 f i lua_platform.obj
 0001:00082350       ?lua_sceAddObj@@YAHPAUlua_State@@@Z 00483350 f i lua_platform.obj
 0001:000824b0       ?lua_sceEnableDefaultMouse@@YAHPAUlua_State@@@Z 004834b0 f i lua_platform.obj
 0001:000825a0       ?lua_sceGetHoverCha@@YAHPAUlua_State@@@Z 004835a0 f i lua_platform.obj
 0001:00082630       ?lua_sceGetMainCha@@YAHPAUlua_State@@@Z 00483630 f i lua_platform.obj
 0001:000826c0       ?lua_sceGetObj@@YAHPAUlua_State@@@Z 004836c0 f i lua_platform.obj
 0001:000827f0       ?lua_sceRemoveObj@@YAHPAUlua_State@@@Z 004837f0 f i lua_platform.obj
 0001:00082870       ?lua_sceSetMainCha@@YAHPAUlua_State@@@Z 00483870 f i lua_platform.obj
 0001:00082940       ?lua_sysAddHelpString@@YAHPAUlua_State@@@Z 00483940 f   lua_platform.obj
 0001:00082a30       ?lua_uiHideAll@@YAHPAUlua_State@@@Z 00483a30 f i lua_platform.obj
 0001:00082a40       ?overflow@strstreambuf@std@@MAEHH@Z 00483a40 f i lua_platform.obj
 0001:00082bc0       ?pbackfail@strstreambuf@std@@MAEHH@Z 00483bc0 f i lua_platform.obj
 0001:00082c20       ?push_back@?$list@V?$basic_string@DU?$char_traits@D@std@@V?$allocator@D@2@@std@@V?$allocator@V?$basic_string@DU?$char_traits@D@std@@V?$allocator@D@2@@std@@@2@@std@@QAEX$$QAV?$basic_string@DU?$char_traits@D@std@@V?$allocator@D@2@@2@@Z 00483c20 f i lua_platform.obj
 0001:00082c70       ?put@?$basic_ostream@DU?$char_traits@D@std@@@std@@QAEAAV12@D@Z 00483c70 f i lua_platform.obj
 0001:00082dc0       ?seekoff@strstreambuf@std@@MAE?AV?$fpos@U_Mbstatet@@@2@_JHH@Z 00483dc0 f i lua_platform.obj
 0001:00082f80       ?seekpos@strstreambuf@std@@MAE?AV?$fpos@U_Mbstatet@@@2@V32@H@Z 00483f80 f i lua_platform.obj
 0001:00083060       ?underflow@strstreambuf@std@@MAEHXZ 00484060 f i lua_platform.obj
 0001:000830b0       ??1?$_List_alloc@U?$_List_base_types@PAVCCharacter@@V?$allocator@PAVCCharacter@@@std@@@std@@@std@@QAE@XZ 004840b0 f i Main.obj
 0001:000830f0       ??1?$_List_buy@PAVCCharacter@@V?$allocator@PAVCCharacter@@@std@@@std@@QAE@XZ 004840f0 f i Main.obj
 0001:00083140       ??4?$basic_string@DU?$char_traits@D@std@@V?$allocator@D@2@@std@@QAEAAV01@ABV01@@Z 00484140 f i Main.obj
 0001:00083170       ??Y?$basic_string@DU?$char_traits@D@std@@V?$allocator@D@2@@std@@QAEAAV01@ABV01@@Z 00484170 f i Main.obj
 0001:00083190       ??_GCGameApp@@QAEPAXI@Z    00484190 f i Main.obj
 0001:000831c0       ?EditSubclassProc@@YGJPAUHWND__@@IIJ@Z 004841c0 f   Main.obj
 0001:00083260       ?InstallFont@@YAHPBD@Z     00484260 f   Main.obj
 0001:00083350       ?MakeBinTable@@YAXXZ       00484350 f   Main.obj
 0001:000833a0       ?MyRegisterClass@@YAGPAUHINSTANCE__@@PAUHBRUSH__@@@Z 004843a0 f   Main.obj
 0001:00083420       ?ReadStdout@@YGKPAX@Z      00484420 f   Main.obj
 0001:00083440       ?StdoutRedirect@@YAXXZ     00484440 f   Main.obj
 0001:000834d0       ?WndProc@@YGJPAUHWND__@@IIJ@Z 004844d0 f   Main.obj
 0001:000837b0       ?_Buynode0@?$_List_alloc@U?$_List_base_types@PAVCCharacter@@V?$allocator@PAVCCharacter@@@std@@@std@@@std@@QAEPAU?$_List_node@PAVCCharacter@@PAX@2@PAU32@0@Z 004847b0 f i Main.obj
 0001:00083840       ?deallocate@?$allocator@U?$_List_node@PAVCCharacter@@PAX@std@@@std@@QAEXQAU?$_List_node@PAVCCharacter@@PAX@2@I@Z 00484840 f i Main.obj
 0001:00083880       _WinMain@16                00484880 f   Main.obj
 0001:000842c0       ??0CMouseDown@@QAE@XZ      004852c0 f   MouseDown.obj
 0001:00084380       ??0CServerMoveState@@QAE@PAVCActor@@@Z 00485380 f i MouseDown.obj
 0001:000843e0       ??1CIsStart@@QAE@XZ        004853e0 f i MouseDown.obj
 0001:000843f0       ??1CMouseDown@@QAE@XZ      004853f0 f   MouseDown.obj
 0001:00084400       ??1CMoveState@@UAE@XZ      00485400 f i MouseDown.obj
 0001:00084450       ??_GCServerMoveState@@UAEPAXI@Z 00485450 f i MouseDown.obj
 0001:00084450       ??_ECServerMoveState@@UAEPAXI@Z 00485450 f i MouseDown.obj
 0001:000844b0       ?ActAttackArea@CMouseDown@@QAE_NPAVCCharacter@@PAVCSkillRecord@@HH_N2@Z 004854b0 f   MouseDown.obj
 0001:00084630       ?ActAttackCha@CMouseDown@@QAE_NPAVCCharacter@@PAVCSkillRecord@@0_N22@Z 00485630 f   MouseDown.obj
 0001:000847d0       ?ActCha@CMouseDown@@QAE_NPAVCCharacter@@0@Z 004857d0 f   MouseDown.obj
 0001:00084880       ?ActDummyObj@CMouseDown@@QAE_NPAVCCharacter@@HHHHH@Z 00485880 f   MouseDown.obj
 0001:00084ab0       ?ActEvent@CMouseDown@@QAE_NPAVCCharacter@@PAVCSceneNode@@PAVCEvent@@@Z 00485ab0 f   MouseDown.obj
 0001:00084c30       ?ActMove@CMouseDown@@QAE_NPAVCCharacter@@HH_N11@Z 00485c30 f   MouseDown.obj
 0001:00084e90       ?ActPickItem@CMouseDown@@QAE_NPAVCCharacter@@PAVCSceneItem@@_N@Z 00485e90 f   MouseDown.obj
 0001:00085010       ?ActShop@CMouseDown@@QAE_NPAVCCharacter@@0@Z 00486010 f   MouseDown.obj
 0001:00085220       ?ActTalkNpc@CMouseDown@@QAE_NPAVCCharacter@@0@Z 00486220 f   MouseDown.obj
 0001:00085370       ?ActionBegin@CActionState@@MAEXK@Z 00486370 f i MouseDown.obj
 0001:00085380       ?ActionEnd@CActionState@@MAEXK@Z 00486380 f i MouseDown.obj
 0001:00085390       ?ActionFrame@CActionState@@MAEXKH@Z 00486390 f i MouseDown.obj
 0001:000853a0       ?BeforeNewState@CActionState@@MAEXXZ 004863a0 f i MouseDown.obj
 0001:000853b0       ?CheckWalkContinue@CMouseDown@@QAEXXZ 004863b0 f   MouseDown.obj
 0001:00085580       ?DistanceFrom@CCharacter@@QAEHPAV1@@Z 00486580 f i MouseDown.obj
 0001:00085600       ?FrameMove@CMouseDown@@QAEXXZ 00486600 f   MouseDown.obj
 0001:00085610       ?GetDistancePos@@YAXHHHHHAAH0@Z 00486610 f i MouseDown.obj
 0001:000856a0       ?GetExplain@CMoveState@@UAEPBDXZ 004866a0 f i MouseDown.obj
 0001:000856b0       ?GetExplain@CServerMoveState@@UAEPBDXZ 004866b0 f i MouseDown.obj
 0001:000856c0       ?IsAllowUse@CActionState@@MAE_NXZ 004866c0 f i MouseDown.obj
 0001:000856d0       ?IsKeepPose@CActionState@@MAE_NXZ 004866d0 f i MouseDown.obj
 0001:000856e0       ?MouseButtonDown@CMouseDown@@QAEXXZ 004866e0 f   MouseDown.obj
 0001:00085ac0       ?MouseRightDown@CActionState@@UAEXXZ 00486ac0 f i MouseDown.obj
 0001:00085ad0       ?PickItem@CMouseDown@@QAE_NPAVCCharacter@@@Z 00486ad0 f   MouseDown.obj
 0001:00085b00       ?Reset@CMouseDown@@QAEXXZ  00486b00 f   MouseDown.obj
 0001:00085b60       ?ServerEnd@CActionState@@UAEXH@Z 00486b60 f i MouseDown.obj
 0001:00085b70       ?SetServerID@CActionState@@UAEXH@Z 00486b70 f i MouseDown.obj
 0001:00085bc0       ?StartFailed@CActionState@@MAEXXZ 00486bc0 f i MouseDown.obj
 0001:00085bd0       ?_AttackArea@CMouseDown@@AAE_NPAVCCharacter@@PAVCSkillRecord@@HH@Z 00486bd0 f   MouseDown.obj
 0001:00085de0       ?_AttackCha@CMouseDown@@AAE_NPAVCCharacter@@PAVCSkillRecord@@0@Z 00486de0 f   MouseDown.obj
 0001:00085eb0       ?Convert@stNetTeamChaPart@@QAEXABUstNetChangeChaPart@@@Z 00486eb0 f   NetChat.obj
 0001:00085f10       ?NetChangePersonInfo@@YAXPBDG_N@Z 00486f10 f   NetChat.obj
 0001:00085f80       ?NetFrndAdd@@YAXKPBD0G0@Z  00486f80 f   NetChat.obj
 0001:00085fc0       ?NetFrndAddGroup@@YAXPBD@Z 00486fc0 f   NetChat.obj
 0001:00085ff0       ?NetFrndCancel@@YAXKD@Z    00486ff0 f   NetChat.obj
 0001:00086080       ?NetFrndChangeGroup@@YAXPBD0@Z 00487080 f   NetChat.obj
 0001:000860b0       ?NetFrndDel@@YAXK@Z        004870b0 f   NetChat.obj
 0001:000860e0       ?NetFrndDelGroup@@YAXPBD@Z 004870e0 f   NetChat.obj
 0001:00086110       ?NetFrndInvite@@YAXPBDKG@Z 00487110 f   NetChat.obj
 0001:00086190       ?NetFrndMoveGroup@@YAXKPBD0@Z 00487190 f   NetChat.obj
 0001:000861c0       ?NetFrndOffline@@YAXK@Z    004871c0 f   NetChat.obj
 0001:00086230       ?NetFrndOnline@@YAXK@Z     00487230 f   NetChat.obj
 0001:000862a0       ?NetFrndRefreshInfo@@YAXKPAUstPersonInfo@@PBDGG11@Z 004872a0 f   NetChat.obj
 0001:00086400       ?NetFrndStart@@YAXAAUstNetFrndStart@@QAU1@GQAV?$basic_string@DU?$char_traits@D@std@@V?$allocator@D@2@@std@@G@Z 00487400 f   NetChat.obj
 0001:000864d0       ?NetGM1Say1@@YAXAAUstNetScrollSay@@@Z 004874d0 f   NetChat.obj
 0001:00086560       ?NetGM1Say@@YAXAAUstNetSay2All@@@Z 00487560 f   NetChat.obj
 0001:00086630       ?NetMasterAdd@@YAXKPBD0G0@Z 00487630 f   NetChat.obj
 0001:00086670       ?NetMasterCancel@@YAXKD@Z  00487670 f   NetChat.obj
 0001:00086720       ?NetMasterDel@@YAXK@Z      00487720 f   NetChat.obj
 0001:00086750       ?NetMasterOffline@@YAXK@Z  00487750 f   NetChat.obj
 0001:000867c0       ?NetMasterOnline@@YAXK@Z   004877c0 f   NetChat.obj
 0001:00086830       ?NetMasterRefreshInfo@@YAXKPBDGG00@Z 00487830 f   NetChat.obj
 0001:00086960       ?NetMasterStart@@YAXAAUstNetFrndStart@@QAU1@G@Z 00487960 f   NetChat.obj
 0001:00086a00       ?NetPCTeam@@YAXAAUstNetPCTeam@@@Z 00487a00 f   NetChat.obj
 0001:00086cc0       ?NetPrenticeAdd@@YAXKPBD0G0@Z 00487cc0 f   NetChat.obj
 0001:00086d00       ?NetPrenticeDel@@YAXK@Z    00487d00 f   NetChat.obj
 0001:00086d30       ?NetPrenticeOffline@@YAXK@Z 00487d30 f   NetChat.obj
 0001:00086da0       ?NetPrenticeOnline@@YAXK@Z 00487da0 f   NetChat.obj
 0001:00086e10       ?NetPrenticeRefreshInfo@@YAXKPBDGG00@Z 00487e10 f   NetChat.obj
 0001:00086f40       ?NetPrenticeStart@@YAXAAUstNetFrndStart@@QAU1@G@Z 00487f40 f   NetChat.obj
 0001:00086fe0       ?NetQueryPersonInfo@@YAXPAUstQueryResoultPersonInfo@@H@Z 00487fe0 f   NetChat.obj
 0001:00087030       ?NetSay2All@@YAXAAUstNetSay2All@@@Z 00488030 f   NetChat.obj
 0001:00087100       ?NetSay2Gud@@YAXPBD0@Z     00488100 f   NetChat.obj
 0001:000871c0       ?NetSay2Team@@YAXKPBD@Z    004881c0 f   NetChat.obj
 0001:00087250       ?NetSay2Trade@@YAXAAUstNetSay2All@@@Z 00488250 f   NetChat.obj
 0001:00087320       ?NetSay2You@@YAXAAUstNetSay2You@@@Z 00488320 f   NetChat.obj
 0001:00087430       ?NetSessAdd@@YAXKPAUstNetSessCreate@@@Z 00488430 f   NetChat.obj
 0001:00087440       ?NetSessCreate@@YAXKPAUstNetSessCreate@@F@Z 00488440 f   NetChat.obj
 0001:00087600       ?NetSessCreate@@YAXPBD@Z   00488600 f   NetChat.obj
 0001:000876d0       ?NetSessLeave@@YAXKK@Z     004886d0 f   NetChat.obj
 0001:00087730       ?NetSessSay@@YAXKKPBD@Z    00488730 f   NetChat.obj
 0001:00087850       ?NetSynTeam@@YAXPAUstNetTeamState@@@Z 00488850 f   NetChat.obj
 0001:000878d0       ?NetTeamCancel@@YAXKD@Z    004888d0 f   NetChat.obj
 0001:00087950       ?NetTeamInvite@@YAXPBDKG@Z 00488950 f   NetChat.obj
 0001:000879d0       ??$?HDU?$char_traits@D@std@@V?$allocator@D@1@@std@@YA?AV?$basic_string@DU?$char_traits@D@std@@V?$allocator@D@2@@0@$$QAV10@QBD@Z 004889d0 f i NetGuild.obj
 0001:00087a70       ??$?HDU?$char_traits@D@std@@V?$allocator@D@1@@std@@YA?AV?$basic_string@DU?$char_traits@D@std@@V?$allocator@D@2@@0@QBD$$QAV10@@Z 00488a70 f i NetGuild.obj
 0001:00087b10       ?GetChatIconInfo@@YAPAVCChatIconInfo@@H@Z 00488b10 f i NetGuild.obj
 0001:00087b60       ?NetGuildCancel@@YAXKD@Z   00488b60 f   NetGuild.obj
 0001:00087bd0       ?NetGuildInvite@@YAXPBDKG@Z 00488bd0 f   NetGuild.obj
 0001:00087c60       ?NetMC_GUILD_CHALLINFO@@YAXABU_NET_GUILD_CHALLINFO@@@Z 00488c60 f   NetGuild.obj
 0001:00087c80       ?NetMC_GUILD_GETNAME@@YAXD@Z 00488c80 f   NetGuild.obj
 0001:00087ca0       ?NetMC_GUILD_INFO@@YAXKKQBD0K@Z 00488ca0 f   NetGuild.obj
 0001:00087ec0       ?NetMC_GUILD_MOTTO@@YAXPBD@Z 00488ec0 f   NetGuild.obj
 0001:00087f70       ?NetMC_GUILD_TRYFORCFM@@YAXPBD@Z 00488f70 f   NetGuild.obj
 0001:00087ff0       ?NetMC_LISTGUILD@@YAXKPBD00G_J@Z 00488ff0 f   NetGuild.obj
 0001:00088130       ?NetMC_LISTGUILD_BEGIN@@YAXE@Z 00489130 f   NetGuild.obj
 0001:00088150       ?NetMC_LISTGUILD_END@@YAXXZ 00489150 f   NetGuild.obj
 0001:00088170       ?NetMC_LISTTRYPLAYER@@YAXKPBD0G@Z 00489170 f   NetGuild.obj
 0001:000882d0       ?NetMC_LISTTRYPLAYER_BEGIN@@YAXKPBD0DD0GG_J1K@Z 004892d0 f   NetGuild.obj
 0001:000884e0       ?NetMC_LISTTRYPLAYER_END@@YAXXZ 004894e0 f   NetGuild.obj
 0001:000884f0       ?NetPC_GUILD_ADD@@YAX_NKPBD11GGG@Z 004894f0 f   NetGuild.obj
 0001:00088ac0       ?NetPC_GUILD_DEL@@YAXK@Z   00489ac0 f   NetGuild.obj
 0001:00088b00       ?NetPC_GUILD_OFFLINE@@YAXK@Z 00489b00 f   NetGuild.obj
 0001:00088c50       ?NetPC_GUILD_ONLINE@@YAXK@Z 00489c50 f   NetGuild.obj
 0001:00088da0       ?NetPC_GUILD_PERM@@YAXKK@Z 00489da0 f   NetGuild.obj
 0001:00088dc0       ?NetPC_GUILD_START@@YAX_NKPBD11GGG@Z 00489dc0 f   NetGuild.obj
 0001:00089460       ?NetPC_GUILD_START_BEGIN@@YAXKPBDK@Z 0048a460 f   NetGuild.obj
 0001:00089590       ?NetPC_GUILD_START_END@@YAXXZ 0048a590 f   NetGuild.obj
 0001:000895a0       ?NetPC_GUILD_STOP@@YAXXZ   0048a5a0 f   NetGuild.obj
 0001:000895c0       ?SetGuildMottoName@CGuildData@@SAXV?$basic_string@DU?$char_traits@D@std@@V?$allocator@D@2@@std@@@Z 0048a5c0 f i NetGuild.obj
 0001:00089620       ??0?$PreAllocHeap@Vdstrbuf@dbc@@@dbc@@QAE@K@Z 0048a620 f i NetIF.obj
 0001:000896d0       ??0?$PreAllocHeap@Vdstrbuf@dbc@@@dbc@@QAE@KK@Z 0048a6d0 f i NetIF.obj
 0001:00089780       ??0NetIF@@QAE@PAVThreadPool@dbc@@@Z 0048a780 f   NetIF.obj
 0001:00089a70       ??0WPacket@dbc@@QAE@ABV01@@Z 0048aa70 f i NetIF.obj
 0001:00089b20       ??0dstrbuf@dbc@@QAE@K@Z    0048ab20 f i NetIF.obj
 0001:00089bb0       ??0dstring@dbc@@QAE@PBD@Z  0048abb0 f i NetIF.obj
 0001:00089c10       ??0excp@dbc@@QAE@AAV01@@Z  0048ac10 f i NetIF.obj
 0001:00089cf0       ??0excp@dbc@@QAE@PBD@Z     0048acf0 f i NetIF.obj
 0001:00089db0       ??0excpMem@dbc@@QAE@AAV01@@Z 0048adb0 f i NetIF.obj
 0001:00089e10       ??0excpMem@dbc@@QAE@PBD@Z  0048ae10 f i NetIF.obj
 0001:00089e70       ??1?$rptr@Vrbuf@dbc@@$0A@@dbc@@QAE@XZ 0048ae70 f i NetIF.obj
 0001:00089f00       ??1BaseBuf@dbc@@MAE@XZ     0048af00 f i NetIF.obj
 0001:00089f70       ??1CProCirculate@@UAE@XZ   0048af70 f i NetIF.obj
 0001:00089f80       ??1Connection@@UAE@XZ      0048af80 f i NetIF.obj
 0001:0008a000       ??1Mutex@dbc@@QAE@XZ       0048b000 f i NetIF.obj
 0001:0008a050       ??1NetIF@@UAE@XZ           0048b050 f   NetIF.obj
 0001:0008a1f0       ??1PKQueue@dbc@@QAE@XZ     0048b1f0 f i NetIF.obj
 0001:0008a270       ??1PreAllocStru@dbc@@MAE@XZ 0048b270 f i NetIF.obj
 0001:0008a280       ??1RPacket@dbc@@QAE@XZ     0048b280 f i NetIF.obj
 0001:0008a2d0       ??1Sema@dbc@@QAE@XZ        0048b2d0 f i NetIF.obj
 0001:0008a320       ??1Task@dbc@@MAE@XZ        0048b320 f i NetIF.obj
 0001:0008a380       ??1TcpClientApp@dbc@@UAE@XZ 0048b380 f i NetIF.obj
 0001:0008a3d0       ??1WPacket@dbc@@QAE@XZ     0048b3d0 f i NetIF.obj
 0001:0008a420       ??1dstring@dbc@@QAE@XZ     0048b420 f i NetIF.obj
 0001:0008a470       ??1excp@dbc@@UAE@XZ        0048b470 f i NetIF.obj
 0001:0008a4e0       ??1excpMem@dbc@@UAE@XZ     0048b4e0 f i NetIF.obj
 0001:0008a550       ??1excpSync@dbc@@UAE@XZ    0048b550 f i NetIF.obj
 0001:0008a5c0       ??6dbc@@YAAAVdstring@0@AAV10@PBD@Z 0048b5c0 f i NetIF.obj
 0001:0008a5d0       ??6dbc@@YAAAVdstring@0@AAV10@_J@Z 0048b5d0 f i NetIF.obj
 0001:0008a680       ??Bdstring@dbc@@QBEPBDXZ   0048b680 f i NetIF.obj
 0001:0008a6a0       ??Ydbc@@YAAAVdstring@0@AAV10@PBD@Z 0048b6a0 f i NetIF.obj
 0001:0008a720       ??_E?$PreAllocHeap@Vdstrbuf@dbc@@@dbc@@UAEPAXI@Z 0048b720 f i NetIF.obj
 0001:0008a720       ??_G?$PreAllocHeap@Vdstrbuf@dbc@@@dbc@@UAEPAXI@Z 0048b720 f i NetIF.obj
 0001:0008a7b0       ??_EBaseBuf@dbc@@MAEPAXI@Z 0048b7b0 f i NetIF.obj
 0001:0008a7b0       ??_GBaseBuf@dbc@@MAEPAXI@Z 0048b7b0 f i NetIF.obj
 0001:0008a830       ??_GCProCirculate@@UAEPAXI@Z 0048b830 f i NetIF.obj
 0001:0008a830       ??_ECProCirculate@@UAEPAXI@Z 0048b830 f i NetIF.obj
 0001:0008a860       ??_GCProCirculateCC@@UAEPAXI@Z 0048b860 f i NetIF.obj
 0001:0008a860       ??_ECProCirculateCC@@UAEPAXI@Z 0048b860 f i NetIF.obj
 0001:0008a8c0       ??_GCProCirculateCS@@UAEPAXI@Z 0048b8c0 f i NetIF.obj
 0001:0008a8c0       ??_ECProCirculateCS@@UAEPAXI@Z 0048b8c0 f i NetIF.obj
 0001:0008a920       ??_EConnection@@UAEPAXI@Z  0048b920 f i NetIF.obj
 0001:0008a920       ??_GConnection@@UAEPAXI@Z  0048b920 f i NetIF.obj
 0001:0008a9c0       ??_GNetIF@@UAEPAXI@Z       0048b9c0 f i NetIF.obj
 0001:0008a9c0       ??_ENetIF@@UAEPAXI@Z       0048b9c0 f i NetIF.obj
 0001:0008a9f0       ??_GPreAllocStru@dbc@@MAEPAXI@Z 0048b9f0 f i NetIF.obj
 0001:0008a9f0       ??_EPreAllocStru@dbc@@MAEPAXI@Z 0048b9f0 f i NetIF.obj
 0001:0008aa20       ??_ETask@dbc@@MAEPAXI@Z    0048ba20 f i NetIF.obj
 0001:0008aa20       ??_GTask@dbc@@MAEPAXI@Z    0048ba20 f i NetIF.obj
 0001:0008aa90       ??_ETcpClientApp@dbc@@UAEPAXI@Z 0048ba90 f i NetIF.obj
 0001:0008aa90       ??_GTcpClientApp@dbc@@UAEPAXI@Z 0048ba90 f i NetIF.obj
 0001:0008ab00       ??_Edstrbuf@dbc@@UAEPAXI@Z 0048bb00 f i NetIF.obj
 0001:0008ab00       ??_Gdstrbuf@dbc@@UAEPAXI@Z 0048bb00 f i NetIF.obj
 0001:0008ab90       ??_Eexcp@dbc@@UAEPAXI@Z    0048bb90 f i NetIF.obj
 0001:0008ab90       ??_Gexcp@dbc@@UAEPAXI@Z    0048bb90 f i NetIF.obj
 0001:0008ac10       ??_GexcpMem@dbc@@UAEPAXI@Z 0048bc10 f i NetIF.obj
 0001:0008ac10       ??_EexcpMem@dbc@@UAEPAXI@Z 0048bc10 f i NetIF.obj
 0001:0008aca0       ??_EexcpSync@dbc@@UAEPAXI@Z 0048bca0 f i NetIF.obj
 0001:0008aca0       ??_GexcpSync@dbc@@UAEPAXI@Z 0048bca0 f i NetIF.obj
 0001:0008ad30       ?BeginAction@CProCirculate@@UAEXPAVCCharacter@@KPAXPAVCActionState@@@Z 0048bd30 f i NetIF.obj
 0001:0008ad40       ?EndAction@CProCirculate@@UAEXPAVCActionState@@@Z 0048bd40 f i NetIF.obj
 0001:0008ad50       ?Finally@?$PreAllocHeap@Vdstrbuf@dbc@@@dbc@@AAEXXZ 0048bd50 f i NetIF.obj
 0001:0008aea0       ?Finally@PreAllocStru@dbc@@EAEXXZ 0048bea0 f i NetIF.obj
 0001:0008aeb0       ?Free@Task@dbc@@EAEXXZ     0048beb0 f i NetIF.obj
 0001:0008aec0       ?Free@dstrbuf@dbc@@UAEXXZ  0048bec0 f i NetIF.obj
 0001:0008aed0       ?Get@?$PreAllocHeap@Vdstrbuf@dbc@@@dbc@@QAEPAVdstrbuf@2@K@Z 0048bed0 f i NetIF.obj
 0001:0008b020       ?GetAveragePing@NetIF@@QAEKXZ 0048c020 f   NetIF.obj
 0001:0008b090       ?HandlePacketMessage@NetIF@@QAEHPAVDataSocket@dbc@@AAVRPacket@3@@Z 0048c090 f   NetIF.obj
 0001:0008c050       ?Init@?$PreAllocHeap@Vdstrbuf@dbc@@@dbc@@QAEXQAK@Z 0048d050 f i NetIF.obj
 0001:0008c330       ?Init@?$PreAllocHeap@Vdstrbuf@dbc@@@dbc@@QAEXXZ 0048d330 f i NetIF.obj
 0001:0008c4b0       ?Init@?$PreAllocHeapPtr@Vdstrbuf@dbc@@@dbc@@AAEXXZ 0048d4b0 f i NetIF.obj
 0001:0008c650       ?Init@?$PreAllocHeapPtr@Vdstrbuf@dbc@@@dbc@@QAE_NQAK@Z 0048d650 f i NetIF.obj
 0001:0008c810       ?Initially@PreAllocStru@dbc@@EAEXXZ 0048d810 f i NetIF.obj
 0001:0008c820       ?Initially@dstrbuf@dbc@@EAEXXZ 0048d820 f i NetIF.obj
 0001:0008c830       ?InsertT@?$PreAllocHeap@Vdstrbuf@dbc@@@dbc@@AAEXPAVPreAllocStru@2@K@Z 0048d830 f i NetIF.obj
 0001:0008ca60       ?Lastly@Connection@@UAEPAVTask@dbc@@XZ 0048da60 f i NetIF.obj
 0001:0008ca70       ?Lastly@Task@dbc@@MAEPAV12@XZ 0048da70 f i NetIF.obj
 0001:0008ca80       ?OnAsynReturn@RPCMGR@dbc@@EAEXPAVDataSocket@2@AAVRPacket@2@PAX@Z 0048da80 f i NetIF.obj
 0001:0008ca90       ?OnConnect@NetIF@@UAE_NPAVDataSocket@dbc@@@Z 0048da90 f   NetIF.obj
 0001:0008cac0       ?OnConnect@TcpCommApp@dbc@@UAE_NPAVDataSocket@2@@Z 0048dac0 f i NetIF.obj
 0001:0008cad0       ?OnConnected@TcpCommApp@dbc@@UAEXPAVDataSocket@2@@Z 0048dad0 f i NetIF.obj
 0001:0008cae0       ?OnDecrypt@NetIF@@UAEXPAVDataSocket@dbc@@PADAAK@Z 0048dae0 f   NetIF.obj
 0001:0008cbf0       ?OnDecrypt@TcpCommApp@dbc@@UAEXPAVDataSocket@2@PADAAK@Z 0048dbf0 f i NetIF.obj
 0001:0008cc00       ?OnDisconnect@NetIF@@UAEXPAVDataSocket@dbc@@H@Z 0048dc00 f   NetIF.obj
 0001:0008cd10       ?OnDisconnect@TcpCommApp@dbc@@UAEXPAVDataSocket@2@H@Z 0048dd10 f i NetIF.obj
 0001:0008cd20       ?OnEncrypt@NetIF@@UAEXPAVDataSocket@dbc@@PADPBDAAK@Z 0048dd20 f   NetIF.obj
 0001:0008cde0       ?OnEncrypt@TcpCommApp@dbc@@UAEXPAVDataSocket@2@PADPBDAAK@Z 0048dde0 f i NetIF.obj
 0001:0008ce00       ?OnProcessData@NetIF@@UAEXPAVDataSocket@dbc@@AAVRPacket@3@@Z 0048de00 f   NetIF.obj
 0001:0008cf30       ?OnSendAll@TcpCommApp@dbc@@UAEXPAVDataSocket@2@@Z 0048df30 f i NetIF.obj
 0001:0008cf40       ?OnSendBlock@TcpCommApp@dbc@@UAE_NPAVDataSocket@2@@Z 0048df40 f i NetIF.obj
 0001:0008cf50       ?OnServeCall@RPCMGR@dbc@@EAE?AVWPacket@2@PAVDataSocket@2@AAVRPacket@2@@Z 0048df50 f i NetIF.obj
 0001:0008cfb0       ?ProcessData@NetIF@@UAEXPAVDataSocket@dbc@@AAVRPacket@3@@Z 0048dfb0 f   NetIF.obj
 0001:0008cfc0       ?SendPacketMessage@NetIF@@QAEXAAVWPacket@dbc@@@Z 0048dfc0 f   NetIF.obj
 0001:0008d090       ?ServeCall@PKQueue@dbc@@EAE?AVWPacket@2@PAVDataSocket@2@AAVRPacket@2@@Z 0048e090 f i NetIF.obj
 0001:0008d0f0       ?SetSize@dstring@dbc@@QBEKK@Z 0048e0f0 f i NetIF.obj
 0001:0008d1e0       ?Size@BaseBuf@dbc@@UAEKXZ  0048e1e0 f i NetIF.obj
 0001:0008d1f0       ?SyncSendPacketMessage@NetIF@@QAE?AVRPacket@dbc@@AAVWPacket@3@K@Z 0048e1f0 f   NetIF.obj
 0001:0008d2f0       ?_unlock@?$robject@$00@dbc@@AAEXXZ 0048e2f0 f i NetIF.obj
 0001:0008d310       ?adopt@?$robject@$00@dbc@@QAEKXZ 0048e310 f i NetIF.obj
 0001:0008d3c0       ?discard@?$robject@$00@dbc@@QAEKXZ 0048e3c0 f i NetIF.obj
 0001:0008d490       ?lua_HandleNetMessage@@YAHPAUlua_State@@@Z 0048e490 f i NetIF.obj
 0001:0008d500       ?lua_decryptNoise@@YAHPAUlua_State@@@Z 0048e500 f i NetIF.obj
 0001:0008d580       ?lua_encryptNoise@@YAHPAUlua_State@@@Z 0048e580 f i NetIF.obj
 0001:0008d600       ?lua_initNoise@@YAHPAUlua_State@@@Z 0048e600 f i NetIF.obj
 0001:0008d670       ?newT@?$PreAllocHeap@Vdstrbuf@dbc@@@dbc@@AAEPAVPreAllocStru@2@K@Z 0048e670 f i NetIF.obj
 0001:0008d880       ?unlock@MutexArmor@dbc@@QBEXXZ 0048e880 f i NetIF.obj
 0001:0008d8a0       ?what@excp@dbc@@UBEPBDXZ   0048e8a0 f i NetIF.obj
 0001:0008d8b0       ?CP_Change_PersonInfo@@YAXPAUstPersonInfo@@PBD@Z 0048e8b0 f   NetPkChat.obj
 0001:0008da30       ?CP_Frnd_Refresh_Info@@YAXK@Z 0048ea30 f   NetPkChat.obj
 0001:0008dab0       ?CP_Query_PersonInfo@@YAXPAUstQueryPersonInfo@@@Z 0048eab0 f   NetPkChat.obj
 0001:0008dbe0       ?CS_Frnd_Confirm@@YAXK@Z   0048ebe0 f   NetPkChat.obj
 0001:0008dc60       ?CS_Frnd_Delete@@YAXK@Z    0048ec60 f   NetPkChat.obj
 0001:0008dce0       ?CS_Frnd_Invite@@YAXPBD@Z  0048ece0 f   NetPkChat.obj
 0001:0008dd60       ?CS_Frnd_Refuse@@YAXK@Z    0048ed60 f   NetPkChat.obj
 0001:0008dde0       ?CS_GM1Say1@@YAXPBD@Z      0048ede0 f   NetPkChat.obj
 0001:0008de60       ?CS_GM1Say@@YAXPBD@Z       0048ee60 f   NetPkChat.obj
 0001:0008dee0       ?CS_GMSay@@YAXPBD@Z        0048eee0 f   NetPkChat.obj
 0001:0008df60       ?CS_Say2All@@YAXPBD@Z      0048ef60 f   NetPkChat.obj
 0001:0008dfe0       ?CS_Say2Guild@@YAXPBD@Z    0048efe0 f   NetPkChat.obj
 0001:0008e060       ?CS_Say2Team@@YAXPBD@Z     0048f060 f   NetPkChat.obj
 0001:0008e0e0       ?CS_Say2Trade@@YAXPBD@Z    0048f0e0 f   NetPkChat.obj
 0001:0008e160       ?CS_Say2You@@YAXPBD0@Z     0048f160 f   NetPkChat.obj
 0001:0008e1f0       ?CS_Sess_Add@@YAXKPBD@Z    0048f1f0 f   NetPkChat.obj
 0001:0008e280       ?CS_Sess_Create@@YAXQAPBDE@Z 0048f280 f   NetPkChat.obj
 0001:0008e330       ?CS_Sess_Leave@@YAXK@Z     0048f330 f   NetPkChat.obj
 0001:0008e3b0       ?CS_Sess_Say@@YAXKPBD@Z    0048f3b0 f   NetPkChat.obj
 0001:0008e440       ?CS_Team_Confirm@@YAXK@Z   0048f440 f   NetPkChat.obj
 0001:0008e4d0       ?CS_Team_Invite@@YAXPBD@Z  0048f4d0 f   NetPkChat.obj
 0001:0008e550       ?CS_Team_Kick@@YAXK@Z      0048f550 f   NetPkChat.obj
 0001:0008e5e0       ?CS_Team_Leave@@YAXXZ      0048f5e0 f   NetPkChat.obj
 0001:0008e670       ?CS_Team_Refuse@@YAXK@Z    0048f670 f   NetPkChat.obj
 0001:0008e6f0       ?PC_CHANGE_PERSONINFO@@YAHAAVRPacket@dbc@@@Z 0048f6f0 f   NetPkChat.obj
 0001:0008e740       ?PC_FRND_ADD_GROUP@@YAHAAVRPacket@dbc@@@Z 0048f740 f   NetPkChat.obj
 0001:0008e760       ?PC_FRND_CANCEL@@YAHAAVRPacket@dbc@@@Z 0048f760 f   NetPkChat.obj
 0001:0008e790       ?PC_FRND_CHANGE_GROUP@@YAHAAVRPacket@dbc@@@Z 0048f790 f   NetPkChat.obj
 0001:0008e7c0       ?PC_FRND_DEL_GROUP@@YAHAAVRPacket@dbc@@@Z 0048f7c0 f   NetPkChat.obj
 0001:0008e7e0       ?PC_FRND_INVITE@@YAHAAVRPacket@dbc@@@Z 0048f7e0 f   NetPkChat.obj
 0001:0008e820       ?PC_FRND_MOVE_GROUP@@YAHAAVRPacket@dbc@@@Z 0048f820 f   NetPkChat.obj
 0001:0008e860       ?PC_FRND_REFRESH@@YAHAAVRPacket@dbc@@@Z 0048f860 f   NetPkChat.obj
 0001:0008eb80       ?PC_FRND_REFRESH_INFO@@YAHAAVRPacket@dbc@@@Z 0048fb80 f   NetPkChat.obj
 0001:0008ee60       ?PC_GM1SAY1@@YAHAAVRPacket@dbc@@@Z 0048fe60 f   NetPkChat.obj
 0001:0008eea0       ?PC_GM1SAY@@YAHAAVRPacket@dbc@@@Z 0048fea0 f   NetPkChat.obj
 0001:0008eee0       ?PC_QUERY_PERSONINFO@@YAHAAVRPacket@dbc@@@Z 0048fee0 f   NetPkChat.obj
 0001:0008f000       ?PC_SAY2TRADE@@YAHAAVRPacket@dbc@@@Z 00490000 f   NetPkChat.obj
 0001:0008f040       ?PC_SESS_ADD@@YAHAAVRPacket@dbc@@@Z 00490040 f   NetPkChat.obj
 0001:0008f0a0       ?PC_SESS_CREATE@@YAHAAVRPacket@dbc@@@Z 004900a0 f   NetPkChat.obj
 0001:0008f180       ?PC_SESS_LEAVE@@YAHAAVRPacket@dbc@@@Z 00490180 f   NetPkChat.obj
 0001:0008f1b0       ?PC_SESS_SAY@@YAHAAVRPacket@dbc@@@Z 004901b0 f   NetPkChat.obj
 0001:0008f1f0       ?PC_Say2All@@YAHAAVRPacket@dbc@@@Z 004901f0 f   NetPkChat.obj
 0001:0008f230       ?PC_Say2Gud@@YAHAAVRPacket@dbc@@@Z 00490230 f   NetPkChat.obj
 0001:0008f260       ?PC_Say2Team@@YAHAAVRPacket@dbc@@@Z 00490260 f   NetPkChat.obj
 0001:0008f290       ?PC_Say2You@@YAHAAVRPacket@dbc@@@Z 00490290 f   NetPkChat.obj
 0001:0008f2e0       ?PC_TEAM_CANCEL@@YAHAAVRPacket@dbc@@@Z 004902e0 f   NetPkChat.obj
 0001:0008f310       ?PC_TEAM_INVITE@@YAHAAVRPacket@dbc@@@Z 00490310 f   NetPkChat.obj
 0001:0008f350       ?PC_TEAM_REFRESH@@YAHAAVRPacket@dbc@@@Z 00490350 f   NetPkChat.obj
 0001:0008f4c0       ??$_Emplace_reallocate@ABUstGuildInfo@@@?$vector@UstGuildInfo@@V?$allocator@UstGuildInfo@@@std@@@std@@QAEPAUstGuildInfo@@QAU2@ABU2@@Z 004904c0 f i NetPkGuild.obj
 0001:0008f6d0       ?CM_GUILD_APPROVE@@YAXK@Z  004906d0 f   NetPkGuild.obj
 0001:0008f750       ?CM_GUILD_CHALL@@YAXEK@Z   00490750 f   NetPkGuild.obj
 0001:0008f7e0       ?CM_GUILD_DISBAND@@YAXPBD@Z 004907e0 f   NetPkGuild.obj
 0001:0008f860       ?CM_GUILD_KICK@@YAXK@Z     00490860 f   NetPkGuild.obj
 0001:0008f8e0       ?CM_GUILD_LEAVE@@YAXXZ     004908e0 f   NetPkGuild.obj
 0001:0008f960       ?CM_GUILD_LEIZHU@@YAXEK@Z  00490960 f   NetPkGuild.obj
 0001:0008f9f0       ?CM_GUILD_LISTTRYPLAYER@@YAXXZ 004909f0 f   NetPkGuild.obj
 0001:0008fa70       ?CM_GUILD_MOTTO@@YAXPBD@Z  00490a70 f   NetPkGuild.obj
 0001:0008faf0       ?CM_GUILD_PUTNAME@@YAX_NPBD1@Z 00490af0 f   NetPkGuild.obj
 0001:0008fb90       ?CM_GUILD_REJECT@@YAXK@Z   00490b90 f   NetPkGuild.obj
 0001:0008fc10       ?CM_GUILD_TRYFOR@@YAXK@Z   00490c10 f   NetPkGuild.obj
 0001:0008fc90       ?CM_GUILD_TRYFORCFM@@YAX_N@Z 00490c90 f   NetPkGuild.obj
 0001:0008fd10       ?MC_GUILD_GETNAME@@YAHAAVRPacket@dbc@@@Z 00490d10 f   NetPkGuild.obj
 0001:0008fd30       ?MC_GUILD_INFO@@YAHAAVRPacket@dbc@@@Z 00490d30 f   NetPkGuild.obj
 0001:0008fd90       ?MC_GUILD_KICK@@YAHAAVRPacket@dbc@@@Z 00490d90 f   NetPkGuild.obj
 0001:0008fda0       ?MC_GUILD_LEAVE@@YAHAAVRPacket@dbc@@@Z 00490da0 f   NetPkGuild.obj
 0001:0008fdb0       ?MC_GUILD_LISTCHALL@@YAHAAVRPacket@dbc@@@Z 00490db0 f   NetPkGuild.obj
 0001:0008fe90       ?MC_GUILD_LISTTRYPLAYER@@YAHAAVRPacket@dbc@@@Z 00490e90 f   NetPkGuild.obj
 0001:0008ffc0       ?MC_GUILD_MOTTO@@YAHAAVRPacket@dbc@@@Z 00490fc0 f   NetPkGuild.obj
 0001:0008ffe0       ?MC_GUILD_TRYFORCFM@@YAHAAVRPacket@dbc@@@Z 00490fe0 f   NetPkGuild.obj
 0001:00090000       ?MC_LISTGUILD@@YAHAAVRPacket@dbc@@@Z 00491000 f   NetPkGuild.obj
 0001:000900e0       ?PC_GUILD@@YAHAAVRPacket@dbc@@@Z 004910e0 f   NetPkGuild.obj
 0001:00090480       ?PC_GUILDATTR_UPDATE@@YAHAAVRPacket@dbc@@@Z 00491480 f   NetPkGuild.obj
 0001:000904c0       ?PC_GUILD_CANCEL@@YAHAAVRPacket@dbc@@@Z 004914c0 f   NetPkGuild.obj
 0001:000904f0       ?PC_GUILD_INVITE@@YAHAAVRPacket@dbc@@@Z 004914f0 f   NetPkGuild.obj
 0001:00090530       ?PC_GUILD_PERMISSIONS@@YAHAAVRPacket@dbc@@@Z 00491530 f   NetPkGuild.obj
 0001:00090560       ?_Xlength@?$vector@UstGuildInfo@@V?$allocator@UstGuildInfo@@@std@@@std@@CAXXZ 00491560 f i NetPkGuild.obj
 0001:00090570       ?deallocate@?$allocator@UstGuildInfo@@@std@@QAEXQAUstGuildInfo@@I@Z 00491570 f i NetPkGuild.obj
 0001:000905b0       ??$_Emplace_reallocate@ABQAVCActorDie@@@?$vector@PAVCActorDie@@V?$allocator@PAVCActorDie@@@std@@@std@@QAEPAPAVCActorDie@@QAPAV2@ABQAV2@@Z 004915b0 f i NetProtocol.obj
 0001:00090770       ??$_Emplace_reallocate@K@?$vector@KV?$allocator@K@std@@@std@@QAEPAKQAK$$QAK@Z 00491770 f i NetProtocol.obj
 0001:00090930       ??0stSkillState@@QAE@XZ    00491930 f i NetProtocol.obj
 0001:00090940       ??1?$vector@KV?$allocator@K@std@@@std@@QAE@XZ 00491940 f i NetProtocol.obj
 0001:000909d0       ?AddDieExec@CActor@@QAE_NPAVCActorDie@@@Z 004919d0 f i NetProtocol.obj
 0001:00090a00       ?ChangeEvent@stNetEvent@@QAEPAVCEvent@@XZ 00491a00 f   NetProtocol.obj
 0001:00090a40       ?CreateCha@stNetActorCreate@@QAEPAVCCharacter@@XZ 00491a40 f   NetProtocol.obj
 0001:00090ec0       ?Exec@stNetAppendLook@@QAEXK@Z 00491ec0 f   NetProtocol.obj
 0001:00090f30       ?Exec@stNetAppendLook@@QAEXPAVCCharacter@@@Z 00491f30 f   NetProtocol.obj
 0001:00090fc0       ?Exec@stNetDefaultSkill@@QAEXXZ 00491fc0 f   NetProtocol.obj
 0001:00091050       ?Exec@stNetEvent@@QAEPAVCEvent@@PAVCSceneNode@@@Z 00492050 f   NetProtocol.obj
 0001:000910e0       ?Exec@stNetItemForgeAnswer@@QAEXXZ 004920e0 f   NetProtocol.obj
 0001:000911c0       ?Exec@stNetItemLotteryAnswer@@QAEXXZ 004921c0 f   NetProtocol.obj
 0001:00091200       ?Exec@stNetItemRepairAsk@@QAEXXZ 00492200 f   NetProtocol.obj
 0001:00091210       ?Exec@stNetOpenHair@@QAEXXZ 00492210 f   NetProtocol.obj
 0001:00091220       ?Exec@stNetPKCtrl@@QAEXK@Z 00492220 f   NetProtocol.obj
 0001:000912d0       ?Exec@stNetTeamFightAsk@@QAEXXZ 004922d0 f   NetProtocol.obj
 0001:00091340       ?Exec@stNetUpdateHairRes@@QAEXXZ 00492340 f   NetProtocol.obj
 0001:00091430       ?Exec@stSCNetItemForgeAsk@@QAEXXZ 00492430 f   NetProtocol.obj
 0001:00091450       ?Exec@stSCNetItemLotteryAsk@@QAEXXZ 00492450 f   NetProtocol.obj
 0001:00091460       ?GetSkillRecordInfo@@YAPAVCSkillRecord@@H@Z 00492460 f i NetProtocol.obj
 0001:000914b0       ?NetActorChangeCha@@YAXIAAUstNetChangeCha@@@Z 004924b0 f   NetProtocol.obj
 0001:000914d0       ?NetActorDestroy@@YAXID@Z  004924d0 f   NetProtocol.obj
 0001:000915f0       ?NetActorLean@@YAXIAAUstNetLeanInfo@@@Z 004925f0 f   NetProtocol.obj
 0001:000917a0       ?NetActorMove@@YAXIAAUstNetNotiMove@@@Z 004927a0 f   NetProtocol.obj
 0001:00091aa0       ?NetActorSkillEff@@YAXIAAUstNetNotiSkillEffect@@@Z 00492aa0 f   NetProtocol.obj
 0001:00091f90       ?NetActorSkillRep@@YAXIAAUstNetNotiSkillRepresent@@@Z 00492f90 f   NetProtocol.obj
 0001:00092370       ?NetAmphitheaterAnswer@@YAXAAVAmphitheaterData@GUI@@@Z 00493370 f   NetProtocol.obj
 0001:00092390       ?NetAreaStateBeginSee@@YAXPAUstNetAreaState@@@Z 00493390 f   NetProtocol.obj
 0001:000924a0       ?NetAreaStateEndSee@@YAXPAUstNetAreaState@@@Z 004934a0 f   NetProtocol.obj
 0001:00092570       ?NetBeginPlay@@YAXG@Z      00493570 f   NetProtocol.obj
 0001:000925b0       ?NetBeginRepairItem@@YAXXZ 004935b0 f   NetProtocol.obj
 0001:00092630       ?NetBickerInfo@@YAXQBD@Z   00493630 f   NetProtocol.obj
 0001:00092650       ?NetBoatInfo@@YAXKQBDABUxShipBuildInfo@@@Z 00493650 f   NetProtocol.obj
 0001:000926c0       ?NetCancelCharTrade@@YAXK@Z 004936c0 f   NetProtocol.obj
 0001:000926e0       ?NetCancelExit@@YAXXZ      004936e0 f   NetProtocol.obj
 0001:000926f0       ?NetChaEmotion@@YAXJF@Z    004936f0 f   NetProtocol.obj
 0001:00092770       ?NetChaPlayEffect@@YAXIH@Z 00493770 f   NetProtocol.obj
 0001:000927a0       ?NetChaSideInfo@@YAXJAAUstNetChaSideInfo@@@Z 004937a0 f   NetProtocol.obj
 0001:00092810       ?NetChaTLeaderID@@YAXJJ@Z  00493810 f   NetProtocol.obj
 0001:00092850       ?NetChangeChaLookEnergy@@YAXIAAUstLookEnergy@@@Z 00493850 f   NetProtocol.obj
 0001:00092890       ?NetChangeChaPart@@YAXIAAUstNetLookInfo@@@Z 00493890 f   NetProtocol.obj
 0001:000928b0       ?NetChangeChaPart@@YAXPAVCCharacter@@AAUstNetLookInfo@@@Z 004938b0 f   NetProtocol.obj
 0001:00092940       ?NetChangeKitbag@@YAXKAAUstNetKitbag@@@Z 00493940 f   NetProtocol.obj
 0001:00092e00       ?NetChurchChallenge@@YAXPBUstChurchChallenge@@@Z 00493e00 f   NetProtocol.obj
 0001:00092e20       ?NetClose@@YAXXZ           00493e20 f   NetProtocol.obj
 0001:00092e40       ?NetCloseTalk@@YAXK@Z      00493e40 f   NetProtocol.obj
 0001:00092e60       ?NetCreateBoat@@YAXABUxShipBuildInfo@@@Z 00493e60 f   NetProtocol.obj
 0001:00092eb0       ?NetCreateItem@@YAPAVCSceneItem@@AAUstNetItemCreate@@@Z 00493eb0 f   NetProtocol.obj
 0001:000930c0       ?NetCreatePassword2@@YAXG@Z 004940c0 f   NetProtocol.obj
 0001:00093190       ?NetDelCha@@YAXG@Z         00494190 f   NetProtocol.obj
 0001:00093200       ?NetEndPlay@@YAXDQAUNetChaBehave@@@Z 00494200 f   NetProtocol.obj
 0001:00093290       ?NetEspeItem@@YAXIAAUstNetEspeItem@@@Z 00494290 f   NetProtocol.obj
 0001:00093320       ?NetFace@@YAXKAAUstNetFace@@D@Z 00494320 f   NetProtocol.obj
 0001:00093560       ?NetFailedAction@@YAXD@Z   00494560 f   NetProtocol.obj
 0001:000935c0       ?NetItemDisappear@@YAXI@Z  004945c0 f   NetProtocol.obj
 0001:00093600       ?NetItemUseSuccess@@YAXIF@Z 00494600 f   NetProtocol.obj
 0001:000937a0       ?NetKitbagCapacity@@YAXIF@Z 004947a0 f   NetProtocol.obj
 0001:000937f0       ?NetKitbagCheckAnswer@@YAX_N@Z 004947f0 f   NetProtocol.obj
 0001:00093860       ?NetLoginFailure@@YAXG@Z   00494860 f   NetProtocol.obj
 0001:00093ab0       ?NetLoginSuccess@@YAXDDQAUNetChaBehave@@@Z 00494ab0 f   NetProtocol.obj
 0001:00093b40       ?NetMapMask@@YAXIPAEJ@Z    00494b40 f   NetProtocol.obj
 0001:00093c10       ?NetMisLogAdd@@YAXGE@Z     00494c10 f   NetProtocol.obj
 0001:00093c30       ?NetMisLogClear@@YAXG@Z    00494c30 f   NetProtocol.obj
 0001:00093c50       ?NetMisLogList@@YAXAAU_NET_MISLOG_LIST@@@Z 00494c50 f   NetProtocol.obj
 0001:00093c70       ?NetMisLogState@@YAXGE@Z   00494c70 f   NetProtocol.obj
 0001:00093c90       ?NetNewCha@@YAXG@Z         00494c90 f   NetProtocol.obj
 0001:00093cc0       ?NetNpcStateChange@@YAXKE@Z 00494cc0 f   NetProtocol.obj
 0001:00093d30       ?NetPreMoveTime@@YAXK@Z    00494d30 f   NetProtocol.obj
 0001:00093d40       ?NetQueryRelive@@YAXIAAUstNetQueryRelive@@@Z 00494d40 f   NetProtocol.obj
 0001:00093d60       ?NetSay@@YAXAAUstNetSay@@@Z 00494d60 f   NetProtocol.obj
 0001:00093ea0       ?NetShortCut@@YAXKAAUstNetShortCut@@@Z 00494ea0 f   NetProtocol.obj
 0001:00093ec0       ?NetShowAmphitheater@@YAXAAVAmphitheaterData@GUI@@@Z 00494ec0 f   NetProtocol.obj
 0001:00093ee0       ?NetShowBoatList@@YAXKEABUBOAT_BERTH_DATA@@E@Z 00494ee0 f   NetProtocol.obj
 0001:00093f70       ?NetShowCharTradeInfo@@YAXEKK@Z 00494f70 f   NetProtocol.obj
 0001:00093f90       ?NetShowCharTradeRequest@@YAXEK@Z 00494f90 f   NetProtocol.obj
 0001:00093fb0       ?NetShowEidolonFusion@@YAXXZ 00494fb0 f   NetProtocol.obj
 0001:00093fc0       ?NetShowEnergy@@YAXXZ      00494fc0 f   NetProtocol.obj
 0001:00093fd0       ?NetShowForge@@YAXXZ       00494fd0 f   NetProtocol.obj
 0001:00093fe0       ?NetShowFunction@@YAXEEEABU_NET_FUNCPAGE@@K@Z 00494fe0 f   NetProtocol.obj
 0001:00094000       ?NetShowFusion@@YAXXZ      00495000 f   NetProtocol.obj
 0001:00094020       ?NetShowGetStone@@YAXXZ    00495020 f   NetProtocol.obj
 0001:00094030       ?NetShowHelp@@YAXABU_NET_HELPINFO@@@Z 00495030 f   NetProtocol.obj
 0001:00094050       ?NetShowLottery@@YAXXZ     00495050 f   NetProtocol.obj
 0001:00094060       ?NetShowMapCrash@@YAXQBD@Z 00495060 f   NetProtocol.obj
 0001:00094070       ?NetShowMessage@@YAXJ@Z    00495070 f   NetProtocol.obj
 0001:00094110       ?NetShowMilling@@YAXXZ     00495110 f   NetProtocol.obj
 0001:00094120       ?NetShowMisLog@@YAXGABU_NET_MISPAGE@@@Z 00495120 f   NetProtocol.obj
 0001:00094140       ?NetShowMisPage@@YAXKEABU_NET_MISPAGE@@@Z 00495140 f   NetProtocol.obj
 0001:00094160       ?NetShowMissionList@@YAXKABU_NET_MISSIONLIST@@@Z 00495160 f   NetProtocol.obj
 0001:00094170       ?NetShowPurify@@YAXXZ      00495170 f   NetProtocol.obj
 0001:00094180       ?NetShowRepairOven@@YAXXZ  00495180 f   NetProtocol.obj
 0001:00094190       ?NetShowTalk@@YAXQBDEK@Z   00495190 f   NetProtocol.obj
 0001:000941b0       ?NetShowTiger@@YAXXZ       004951b0 f   NetProtocol.obj
 0001:000941c0       ?NetShowTrade@@YAXABU_NET_TRADEINFO@@EKK@Z 004951c0 f   NetProtocol.obj
 0001:00094200       ?NetShowUnite@@YAXXZ       00495200 f   NetProtocol.obj
 0001:00094220       ?NetShowUpgrade@@YAXXZ     00495220 f   NetProtocol.obj
 0001:00094240       ?NetSideInfo@@YAXQBD0@Z    00495240 f   NetProtocol.obj
 0001:00094300       ?NetStallAddBoat@@YAXEGEKAAUNET_CHARTRADE_BOATDATA@@@Z 00495300 f   NetProtocol.obj
 0001:00094330       ?NetStallAddItem@@YAXEGEKAAU_NET_CHARTRADE_ITEMDATA@@@Z 00495330 f   NetProtocol.obj
 0001:00094410       ?NetStallClose@@YAXK@Z     00495410 f   NetProtocol.obj
 0001:00094420       ?NetStallDelGoods@@YAXKEE@Z 00495420 f   NetProtocol.obj
 0001:00094450       ?NetStallInfo@@YAXKEQBD@Z  00495450 f   NetProtocol.obj
 0001:00094470       ?NetStallName@@YAXKPBD@Z   00495470 f   NetProtocol.obj
 0001:000944e0       ?NetStallSuccess@@YAXK@Z   004954e0 f   NetProtocol.obj
 0001:000944f0       ?NetStartExit@@YAXK@Z      004954f0 f   NetProtocol.obj
 0001:00094510       ?NetSwitchMap@@YAXAAUstNetSwitchMap@@@Z 00495510 f   NetProtocol.obj
 0001:00094950       ?NetSynAttr@@YAXKDFPAUstEffect@@@Z 00495950 f   NetProtocol.obj
 0001:00094f90       ?NetSynSkillBag@@YAXKPAUstNetSkillBag@@@Z 00495f90 f   NetProtocol.obj
 0001:00094fb0       ?NetSynSkillState@@YAXKPAUstNetSkillState@@@Z 00495fb0 f   NetProtocol.obj
 0001:00095080       ?NetSyncChar@@YAXDKK@Z     00496080 f   NetProtocol.obj
 0001:00095100       ?NetSysInfo@@YAXAAUstNetSysInfo@@@Z 00496100 f   NetProtocol.obj
 0001:00095190       ?NetTempChangeChaPart@@YAXIAAUstTempChangeChaPart@@@Z 00496190 f   NetProtocol.obj
 0001:00095200       ?NetTradeAddBoat@@YAXKEGEEEABUNET_CHARTRADE_BOATDATA@@@Z 00496200 f   NetProtocol.obj
 0001:00095240       ?NetTradeAddItem@@YAXKEGEEEABU_NET_CHARTRADE_ITEMDATA@@@Z 00496240 f   NetProtocol.obj
 0001:00095350       ?NetTradeFailed@@YAXXZ     00496350 f   NetProtocol.obj
 0001:00095360       ?NetTradeResult@@YAXEEEGK@Z 00496360 f   NetProtocol.obj
 0001:000953a0       ?NetTradeShowMoney@@YAXKK@Z 004963a0 f   NetProtocol.obj
 0001:000953c0       ?NetTradeSuccess@@YAXXZ    004963c0 f   NetProtocol.obj
 0001:000953d0       ?NetTriggerAction@@YAXAAUstNetNpcMission@@@Z 004963d0 f   NetProtocol.obj
 0001:00095580       ?NetUpdateBoat@@YAXABUxShipBuildInfo@@@Z 00496580 f   NetProtocol.obj
 0001:000955a0       ?NetUpdatePassword2@@YAXG@Z 004965a0 f   NetProtocol.obj
 0001:00095630       ?NetUpdateTradeAllData@@YAXABU_NET_TRADEINFO@@EKK@Z 00496630 f   NetProtocol.obj
 0001:00095670       ?NetUpdateTradeData@@YAXKEEGGK@Z 00496670 f   NetProtocol.obj
 0001:000956b0       ?NetValidateTrade@@YAXK@Z  004966b0 f   NetProtocol.obj
 0001:000956d0       ?NetValidateTradeData@@YAXK@Z 004966d0 f   NetProtocol.obj
 0001:000956f0       ?SetNpcShow@stNetNPCShow@@QAEXPAVCCharacter@@@Z 004966f0 f   NetProtocol.obj
 0001:00095720       ?SetValue@?$CSizeArray@UstEffect@@@@QAEXPAUstEffect@@I@Z 00496720 f i NetProtocol.obj
 0001:00095850       ?SetValue@?$CSizeArray@UstSkillState@@@@QAEXPAUstSkillState@@I@Z 00496850 f i NetProtocol.obj
 0001:00095970       ?SetValue@stNetActorCreate@@QAEXPAVCCharacter@@@Z 00496970 f   NetProtocol.obj
 0001:00095b70       ?_Xlength@?$vector@KV?$allocator@K@std@@@std@@CAXXZ 00496b70 f i NetProtocol.obj
 0001:00095b80       ?_Xlength@?$vector@PAVCActorDie@@V?$allocator@PAVCActorDie@@@std@@@std@@CAXXZ 00496b80 f i NetProtocol.obj
 0001:00095b90       ?deallocate@?$allocator@K@std@@QAEXQAKI@Z 00496b90 f i NetProtocol.obj
 0001:00095bd0       ?deallocate@?$allocator@PAVCActorDie@@@std@@QAEXQAPAVCActorDie@@I@Z 00496bd0 f i NetProtocol.obj
 0001:00095c10       ?_ReadRawDataInfo@NPCHelper@@MAEHPAVCRawDataInfo@@AAV?$vector@V?$basic_string@DU?$char_traits@D@std@@V?$allocator@D@2@@std@@V?$allocator@V?$basic_string@DU?$char_traits@D@std@@V?$allocator@D@2@@std@@@2@@std@@@Z 00496c10 f   NPCHelper.obj
 0001:00095e40       ?CS_AcceptTrade@@YAXEK@Z   00496e40 f   PacketCmd_CS.obj
 0001:00095ed0       ?CS_AddItem@@YAXEKEEEE@Z   00496ed0 f   PacketCmd_CS.obj
 0001:00095f90       ?CS_AddMoney@@YAXEKEK@Z    00496f90 f   PacketCmd_CS.obj
 0001:00096040       ?CS_AutionBidup@@YAXKFK@Z  00497040 f   PacketCmd_CS.obj
 0001:000960e0       ?CS_AutoKitbagLock@@YAX_N@Z 004970e0 f   PacketCmd_CS.obj
 0001:00096160       ?CS_BeginAction@@YAXPAVCCharacter@@KPAXPAVCActionState@@@Z 00497160 f   PacketCmd_CS.obj
 0001:00096190       ?CS_BeginPlay@@YAXPBD@Z    00497190 f   PacketCmd_CS.obj
 0001:000961b0       ?CS_BlackMarketExchangeReq@@YAXKFFFFFE@Z 004971b0 f   PacketCmd_CS.obj
 0001:00096280       ?CS_Break@@YAXKPAHH_N@Z    00497280 f   PacketCmd_CS.obj
 0001:00096340       ?CS_Buy@@YAXKEEEE@Z        00497340 f   PacketCmd_CS.obj
 0001:00096410       ?CS_BuyGoods@@YAXKKEEEE@Z  00497410 f   PacketCmd_CS.obj
 0001:000964e0       ?CS_CancelBoat@@YAXXZ      004974e0 f   PacketCmd_CS.obj
 0001:00096560       ?CS_CancelExit@@YAXXZ      00497560 f   PacketCmd_CS.obj
 0001:000965e0       ?CS_CancelTrade@@YAXEK@Z   004975e0 f   PacketCmd_CS.obj
 0001:00096670       ?CS_CaptainConfirmAsr@@YAXFK@Z 00497670 f   PacketCmd_CS.obj
 0001:00096700       ?CS_CheatCheck@@YAXPBD@Z   00497700 f   PacketCmd_CS.obj
 0001:00096780       ?CS_Compose@@YAXKPAHH_N@Z  00497780 f   PacketCmd_CS.obj
 0001:00096840       ?CS_Connect@@YA_NPBDGK@Z   00497840 f   PacketCmd_CS.obj
 0001:000968f0       ?CS_Cooking@@YAXKPAHHF_N@Z 004978f0 f   PacketCmd_CS.obj
 0001:000969b0       ?CS_CreateBoat@@YAXQBDDDDD@Z 004979b0 f   PacketCmd_CS.obj
 0001:00096a60       ?CS_CreatePassword2@@YAXQBD@Z 00497a60 f   PacketCmd_CS.obj
 0001:00096ae0       ?CS_DelCha@@YAXPBDQBD@Z    00497ae0 f   PacketCmd_CS.obj
 0001:00096b00       ?CS_DieReturn@@YAXD@Z      00497b00 f   PacketCmd_CS.obj
 0001:00096b80       ?CS_Disconnect@@YAXH@Z     00497b80 f   PacketCmd_CS.obj
 0001:00096ba0       ?CS_DropLock@@YAXDJDJ@Z    00497ba0 f   PacketCmd_CS.obj
 0001:00096c40       ?CS_EndAction@@YAXPAVCActionState@@@Z 00497c40 f   PacketCmd_CS.obj
 0001:00096c60       ?CS_EndPlay@@YAXXZ         00497c60 f   PacketCmd_CS.obj
 0001:00096c80       ?CS_EntityEvent@@YAXK@Z    00497c80 f   PacketCmd_CS.obj
 0001:00096d00       ?CS_ExchangeOpenAsk@@YAXQBD@Z 00497d00 f   PacketCmd_CS.obj
 0001:00096d80       ?CS_Found@@YAXKPAHHF_N@Z   00497d80 f   PacketCmd_CS.obj
 0001:00096e40       ?CS_GMRecv@@YAXK@Z         00497e40 f   PacketCmd_CS.obj
 0001:00096ec0       ?CS_GMSend@@YAXKPBD0@Z     00497ec0 f   PacketCmd_CS.obj
 0001:00096f60       ?CS_GetBoatInfo@@YAXXZ     00497f60 f   PacketCmd_CS.obj
 0001:00096fe0       ?CS_GetNameColor@@YAXXZ    00497fe0 f   PacketCmd_CS.obj
 0001:00097060       ?CS_ItemAmphitheaterAsk@@YAX_NH@Z 00498060 f   PacketCmd_CS.obj
 0001:00097100       ?CS_ItemForgeAnswer@@YAX_N@Z 00498100 f   PacketCmd_CS.obj
 0001:00097180       ?CS_ItemForgeAsk@@YAX_NHQAHH@Z 00498180 f   PacketCmd_CS.obj
 0001:00097270       ?CS_ItemForgeAsk@@YAX_NPAUstNetItemForgeAsk@@@Z 00498270 f   PacketCmd_CS.obj
 0001:00097360       ?CS_ItemLotteryAsk@@YAX_NPAUstNetItemLotteryAsk@@@Z 00498360 f   PacketCmd_CS.obj
 0001:00097440       ?CS_ItemRepairAnswer@@YAX_N@Z 00498440 f   PacketCmd_CS.obj
 0001:000974c0       ?CS_ItemRepairAsk@@YAXJJDD@Z 004984c0 f   PacketCmd_CS.obj
 0001:00097560       ?CS_JewelryUpAsk@@YAXFFF@Z 00498560 f   PacketCmd_CS.obj
 0001:00097600       ?CS_LockKitbag@@YAXXZ      00498600 f   PacketCmd_CS.obj
 0001:00097680       ?CS_Login@@YAXPBD00@Z      00498680 f   PacketCmd_CS.obj
 0001:000976a0       ?CS_Logout@@YAXXZ          004986a0 f   PacketCmd_CS.obj
 0001:000976c0       ?CS_MapMask@@YAXPAD@Z      004986c0 f   PacketCmd_CS.obj
 0001:00097740       ?CS_MasterAsr@@YAXFPBDK@Z  00498740 f   PacketCmd_CS.obj
 0001:000977e0       ?CS_MasterDel@@YAXPBDK@Z   004987e0 f   PacketCmd_CS.obj
 0001:00097870       ?CS_MasterInvite@@YAXPBDK@Z 00498870 f   PacketCmd_CS.obj
 0001:00097900       ?CS_MisClear@@YAXG@Z       00498900 f   PacketCmd_CS.obj
 0001:00097980       ?CS_MisLogInfo@@YAXG@Z     00498980 f   PacketCmd_CS.obj
 0001:00097a00       ?CS_MissionPage@@YAXKEEE@Z 00498a00 f   PacketCmd_CS.obj
 0001:00097ab0       ?CS_NewCha@@YAXPBD0AAUstNetChangeChaPart@@@Z 00498ab0 f   PacketCmd_CS.obj
 0001:00097ad0       ?CS_PrenticeAsr@@YAXFPBDK@Z 00498ad0 f   PacketCmd_CS.obj
 0001:00097b70       ?CS_PrenticeDel@@YAXPBDK@Z 00498b70 f   PacketCmd_CS.obj
 0001:00097c00       ?CS_PrenticeInvite@@YAXPBDK@Z 00498c00 f   PacketCmd_CS.obj
 0001:00097c90       ?CS_ReadBookClose@@YAXXZ   00498c90 f   PacketCmd_CS.obj
 0001:00097d10       ?CS_ReadBookStart@@YAXXZ   00498d10 f   PacketCmd_CS.obj
 0001:00097d90       ?CS_ReportWG@@YAXQBD@Z     00498d90 f   PacketCmd_CS.obj
 0001:00097e10       ?CS_RequestBuyAsk@@YAXJJD@Z 00498e10 f   PacketCmd_CS.obj
 0001:00097eb0       ?CS_RequestCancelAsk@@YAXF@Z 00498eb0 f   PacketCmd_CS.obj
 0001:00097f30       ?CS_RequestGetFlatMoney@@YAXJ@Z 00498f30 f   PacketCmd_CS.obj
 0001:00097fb0       ?CS_RequestRefresh@@YAXXZ  00498fb0 f   PacketCmd_CS.obj
 0001:00098030       ?CS_RequestSaleAsk@@YAXJJD@Z 00499030 f   PacketCmd_CS.obj
 0001:000980d0       ?CS_RequestTalk@@YAXKE@Z   004990d0 f   PacketCmd_CS.obj
 0001:00098170       ?CS_RequestTrade@@YAXEK@Z  00499170 f   PacketCmd_CS.obj
 0001:00098200       ?CS_Sale@@YAXKEE@Z         00499200 f   PacketCmd_CS.obj
 0001:000982b0       ?CS_SaleGoods@@YAXKKEE@Z   004992b0 f   PacketCmd_CS.obj
 0001:00098370       ?CS_Say2Camp@@YAXPBD@Z     00499370 f   PacketCmd_CS.obj
 0001:000983f0       ?CS_Say@@YAXPBD@Z          004993f0 f   PacketCmd_CS.obj
 0001:00098410       ?CS_SelFunction@@YAXKEE@Z  00499410 f   PacketCmd_CS.obj
 0001:000984c0       ?CS_SelMission@@YAXKE@Z    004994c0 f   PacketCmd_CS.obj
 0001:00098570       ?CS_SelMissionFunc@@YAXKEE@Z 00499570 f   PacketCmd_CS.obj
 0001:00098630       ?CS_SelectBoat@@YAXKE@Z    00499630 f   PacketCmd_CS.obj
 0001:000986c0       ?CS_SelectBoatBag@@YAXKE@Z 004996c0 f   PacketCmd_CS.obj
 0001:00098750       ?CS_SelectBoatList@@YAXKEE@Z 00499750 f   PacketCmd_CS.obj
 0001:00098860       ?CS_SendPing@@YAXXZ        00499860 f   PacketCmd_CS.obj
 0001:00098870       ?CS_StallBuy@@YAXKEE@Z     00499870 f   PacketCmd_CS.obj
 0001:00098910       ?CS_StallClose@@YAXXZ      00499910 f   PacketCmd_CS.obj
 0001:00098990       ?CS_StallInfo@@YAXQBDAAU_NET_STALL_ALLDATA@mission@@@Z 00499990 f   PacketCmd_CS.obj
 0001:00098a70       ?CS_StallOpen@@YAXK@Z      00499a70 f   PacketCmd_CS.obj
 0001:00098af0       ?CS_StoreBuyAsk@@YAXJ@Z    00499af0 f   PacketCmd_CS.obj
 0001:00098b70       ?CS_StoreChangeAsk@@YAXJ@Z 00499b70 f   PacketCmd_CS.obj
 0001:00098bf0       ?CS_StoreClose@@YAXXZ      00499bf0 f   PacketCmd_CS.obj
 0001:00098c70       ?CS_StoreListAsk@@YAXJFF@Z 00499c70 f   PacketCmd_CS.obj
 0001:00098d10       ?CS_StoreOpenAsk@@YAXQBD@Z 00499d10 f   PacketCmd_CS.obj
 0001:00098d90       ?CS_SyncKitbagTemp@@YAXXZ  00499d90 f   PacketCmd_CS.obj
 0001:00098e10       ?CS_TeamFightAnswer@@YAX_N@Z 00499e10 f   PacketCmd_CS.obj
 0001:00098e90       ?CS_TeamFightAsk@@YAXKJD@Z 00499e90 f   PacketCmd_CS.obj
 0001:00098f30       ?CS_TigerStart@@YAXKFFF@Z  00499f30 f   PacketCmd_CS.obj
 0001:00098fd0       ?CS_TigerStop@@YAXKF@Z     00499fd0 f   PacketCmd_CS.obj
 0001:00099060       ?CS_UnlockCharacter@@YAXXZ 0049a060 f   PacketCmd_CS.obj
 0001:000990e0       ?CS_UnlockItem@@YAXQBDDJDJ@Z 0049a0e0 f   PacketCmd_CS.obj
 0001:00099190       ?CS_UnlockKitbag@@YAXQBD@Z 0049a190 f   PacketCmd_CS.obj
 0001:00099210       ?CS_UpdateBoat@@YAXDDDD@Z  0049a210 f   PacketCmd_CS.obj
 0001:000992c0       ?CS_UpdateHair@@YAXAAUstNetUpdateHair@@@Z 0049a2c0 f   PacketCmd_CS.obj
 0001:00099370       ?CS_UpdatePassword2@@YAXQBD0@Z 0049a370 f   PacketCmd_CS.obj
 0001:00099400       ?CS_ValidateTrade@@YAXEK@Z 0049a400 f   PacketCmd_CS.obj
 0001:00099490       ?CS_ValidateTradeData@@YAXEK@Z 0049a490 f   PacketCmd_CS.obj
 0001:00099520       ?CS_VolunteerAdd@@YAXXZ    0049a520 f   PacketCmd_CS.obj
 0001:000995a0       ?CS_VolunteerAsr@@YAXHPBD@Z 0049a5a0 f   PacketCmd_CS.obj
 0001:00099640       ?CS_VolunteerDel@@YAXXZ    0049a640 f   PacketCmd_CS.obj
 0001:000996c0       ?CS_VolunteerList@@YAXFF@Z 0049a6c0 f   PacketCmd_CS.obj
 0001:00099750       ?CS_VolunteerOpen@@YAXF@Z  0049a750 f   PacketCmd_CS.obj
 0001:000997d0       ?CS_VolunteerSel@@YAXPBD@Z 0049a7d0 f   PacketCmd_CS.obj
 0001:00099850       ??0MutexArmor@dbc@@QAE@ABVMutex@1@@Z 0049a850 f i PacketCmd_SC.obj
 0001:00099880       ??0TeamProUnit@GUI@@QAE@XZ 0049a880 f i PacketCmd_SC.obj
 0001:000998b0       ??0TeamRelUnit@GUI@@QAE@XZ 0049a8b0 f i PacketCmd_SC.obj
 0001:000998e0       ??0stNetActorCreate@@QAE@XZ 0049a8e0 f i PacketCmd_SC.obj
 0001:00099970       ??0stNetAreaState@@QAE@XZ  0049a970 f i PacketCmd_SC.obj
 0001:000999a0       ??0stNetChaAttr@@QAE@XZ    0049a9a0 f i PacketCmd_SC.obj
 0001:000999d0       ??0stNetItemCreate@@QAE@XZ 0049a9d0 f i PacketCmd_SC.obj
 0001:00099a10       ??0stNetKitbag@@QAE@XZ     0049aa10 f i PacketCmd_SC.obj
 0001:00099a80       ??0stNetLeanInfo@@QAE@XZ   0049aa80 f i PacketCmd_SC.obj
 0001:00099ab0       ??0stNetNotiSkillEffect@@QAE@XZ 0049aab0 f i PacketCmd_SC.obj
 0001:00099b30       ??0stNetNotiSkillRepresent@@QAE@XZ 0049ab30 f i PacketCmd_SC.obj
 0001:00099ba0       ??1?$CSizeArray@USSkillGridEx@@@@QAE@XZ 0049aba0 f i PacketCmd_SC.obj
 0001:00099bb0       ??1stNetNotiSkillEffect@@QAE@XZ 0049abb0 f i PacketCmd_SC.obj
 0001:00099c40       ??1stNetNotiSkillRepresent@@QAE@XZ 0049ac40 f i PacketCmd_SC.obj
 0001:00099cb0       ??1stNetSkillBag@@QAE@XZ   0049acb0 f i PacketCmd_SC.obj
 0001:00099d00       ??1stNetSkillState@@QAE@XZ 0049ad00 f i PacketCmd_SC.obj
 0001:00099d50       ?PC_MasterCancel@@YAHAAVRPacket@dbc@@@Z 0049ad50 f   PacketCmd_SC.obj
 0001:00099d90       ?PC_MasterRefresh@@YAHAAVRPacket@dbc@@@Z 0049ad90 f   PacketCmd_SC.obj
 0001:0009a1d0       ?PC_MasterRefreshInfo@@YAHAAVRPacket@dbc@@@Z 0049b1d0 f   PacketCmd_SC.obj
 0001:0009a240       ?PC_PKSilver@@YAHAAVRPacket@dbc@@@Z 0049b240 f   PacketCmd_SC.obj
 0001:0009a4f0       ?PC_Ping@@YAHAAVRPacket@dbc@@@Z 0049b4f0 f   PacketCmd_SC.obj
 0001:0009a6f0       ?PC_PrenticeRefreshInfo@@YAHAAVRPacket@dbc@@@Z 0049b6f0 f   PacketCmd_SC.obj
 0001:0009a760       ?ReadChaAppendLookPacket@@YAXAAVRPacket@dbc@@AAUstNetAppendLook@@@Z 0049b760 f   PacketCmd_SC.obj
 0001:0009a9b0       ?ReadChaAttrPacket@@YAXAAVRPacket@dbc@@AAUstNetChaAttr@@@Z 0049b9b0 f   PacketCmd_SC.obj
 0001:0009ac10       ?ReadChaBasePacket@@YAXAAVRPacket@dbc@@AAUstNetActorCreate@@@Z 0049bc10 f   PacketCmd_SC.obj
 0001:0009af20       ?ReadChaKitbagPacket@@YAXAAVRPacket@dbc@@AAUstNetKitbag@@@Z 0049bf20 f   PacketCmd_SC.obj
 0001:0009b310       ?ReadChaLookEnergyPacket@@YAXAAVRPacket@dbc@@AAUstLookEnergy@@@Z 0049c310 f   PacketCmd_SC.obj
 0001:0009b520       ?ReadChaLookPacket@@YAXAAVRPacket@dbc@@AAUstNetLookInfo@@@Z 0049c520 f   PacketCmd_SC.obj
 0001:0009b900       ?ReadChaPKPacket@@YAXAAVRPacket@dbc@@AAUstNetPKCtrl@@@Z 0049c900 f   PacketCmd_SC.obj
 0001:0009bae0       ?ReadChaShortcutPacket@@YAXAAVRPacket@dbc@@AAUstNetShortCut@@@Z 0049cae0 f   PacketCmd_SC.obj
 0001:0009bce0       ?ReadChaSidePacket@@YAXAAVRPacket@dbc@@AAUstNetChaSideInfo@@@Z 0049cce0 f   PacketCmd_SC.obj
 0001:0009beb0       ?ReadChaSkillBagPacket@@YAHAAVRPacket@dbc@@AAUstNetSkillBag@@@Z 0049ceb0 f   PacketCmd_SC.obj
 0001:0009c190       ?ReadChaSkillStatePacket@@YAXAAVRPacket@dbc@@AAUstNetSkillState@@@Z 0049d190 f   PacketCmd_SC.obj
 0001:0009c3e0       ?ReadEntEventPacket@@YAXAAVRPacket@dbc@@AAUstNetEvent@@@Z 0049d3e0 f   PacketCmd_SC.obj
 0001:0009c5d0       ?Resize@?$CSizeArray@USSkillGridEx@@@@QAEXI@Z 0049d5d0 f i PacketCmd_SC.obj
 0001:0009c660       ?Resize@?$CSizeArray@UstEffect@@@@QAEXI@Z 0049d660 f i PacketCmd_SC.obj
 0001:0009c7a0       ?Resize@?$CSizeArray@UstSkillState@@@@QAEXI@Z 0049d7a0 f i PacketCmd_SC.obj
 0001:0009c8e0       ?SC_AStateBeginSee@@YAHAAVRPacket@dbc@@@Z 0049d8e0 f   PacketCmd_SC.obj
 0001:0009cb60       ?SC_AStateEndSee@@YAHAAVRPacket@dbc@@@Z 0049db60 f   PacketCmd_SC.obj
 0001:0009cd60       ?SC_AddItemCha@@YAHAAVRPacket@dbc@@@Z 0049dd60 f   PacketCmd_SC.obj
 0001:0009d020       ?SC_Amphitheater@@YAHAAVRPacket@dbc@@@Z 0049e020 f   PacketCmd_SC.obj
 0001:0009d2f0       ?SC_BeginItemRepair@@YAHAAVRPacket@dbc@@@Z 0049e2f0 f   PacketCmd_SC.obj
 0001:0009d4c0       ?SC_BeginPlay@@YAHAAVRPacket@dbc@@@Z 0049e4c0 f   PacketCmd_SC.obj
 0001:0009d6a0       ?SC_BickerNotice@@YAHAAVRPacket@dbc@@@Z 0049e6a0 f   PacketCmd_SC.obj
 0001:0009d8a0       ?SC_BlackMarketExchangeAsr@@YAHAAVRPacket@dbc@@@Z 0049e8a0 f   PacketCmd_SC.obj
 0001:0009dae0       ?SC_BlackMarketExchangeData@@YAHAAVRPacket@dbc@@@Z 0049eae0 f   PacketCmd_SC.obj
 0001:0009dd50       ?SC_BlackMarketExchangeUpdate@@YAHAAVRPacket@dbc@@@Z 0049ed50 f   PacketCmd_SC.obj
 0001:0009e000       ?SC_BoatInfo@@YAHAAVRPacket@dbc@@@Z 0049f000 f   PacketCmd_SC.obj
 0001:0009e450       ?SC_BoatList@@YAHAAVRPacket@dbc@@@Z 0049f450 f   PacketCmd_SC.obj
 0001:0009e6b0       ?SC_CHARSTR@@YAHAAVRPacket@dbc@@@Z 0049f6b0 f   PacketCmd_SC.obj
 0001:0009e8f0       ?SC_CancelExit@@YAHAAVRPacket@dbc@@@Z 0049f8f0 f   PacketCmd_SC.obj
 0001:0009eac0       ?SC_CaptainAsk@@YAHAAVRPacket@dbc@@@Z 0049fac0 f   PacketCmd_SC.obj
 0001:0009eae0       ?SC_ChaBeginSee@@YAHAAVRPacket@dbc@@@Z 0049fae0 f   PacketCmd_SC.obj
 0001:0009ee60       ?SC_ChaEndSee@@YAHAAVRPacket@dbc@@@Z 0049fe60 f   PacketCmd_SC.obj
 0001:0009f050       ?SC_ChaPlayEffect@@YAHAAVRPacket@dbc@@@Z 004a0050 f   PacketCmd_SC.obj
 0001:0009f080       ?SC_Cha_Emotion@@YAHAAVRPacket@dbc@@@Z 004a0080 f   PacketCmd_SC.obj
 0001:0009f260       ?SC_CharTradeInfo@@YAHAAVRPacket@dbc@@@Z 004a0260 f   PacketCmd_SC.obj
 0001:0009f850       ?SC_CharacterAction@@YAHAAVRPacket@dbc@@@Z 004a0850 f   PacketCmd_SC.obj
 0001:000a0360       ?SC_CheatCheck@@YAHAAVRPacket@dbc@@@Z 004a1360 f   PacketCmd_SC.obj
 0001:000a0400       ?SC_CheckPing@@YAHAAVRPacket@dbc@@@Z 004a1400 f   PacketCmd_SC.obj
 0001:000a0600       ?SC_CloseTalk@@YAHAAVRPacket@dbc@@@Z 004a1600 f   PacketCmd_SC.obj
 0001:000a07d0       ?SC_CreateBoat@@YAHAAVRPacket@dbc@@@Z 004a17d0 f   PacketCmd_SC.obj
 0001:000a0c20       ?SC_CreatePassword2@@YAHAAVRPacket@dbc@@@Z 004a1c20 f   PacketCmd_SC.obj
 0001:000a0e00       ?SC_DelCha@@YAHAAVRPacket@dbc@@@Z 004a1e00 f   PacketCmd_SC.obj
 0001:000a0fe0       ?SC_DelItemCha@@YAHAAVRPacket@dbc@@@Z 004a1fe0 f   PacketCmd_SC.obj
 0001:000a11c0       ?SC_DropLockAsr@@YAHAAVRPacket@dbc@@@Z 004a21c0 f   PacketCmd_SC.obj
 0001:000a13d0       ?SC_EidolonMetempsychosis@@YAHAAVRPacket@dbc@@@Z 004a23d0 f   PacketCmd_SC.obj
 0001:000a15a0       ?SC_Eidolon_Fusion@@YAHAAVRPacket@dbc@@@Z 004a25a0 f   PacketCmd_SC.obj
 0001:000a1770       ?SC_EndPlay@@YAHAAVRPacket@dbc@@@Z 004a2770 f   PacketCmd_SC.obj
 0001:000a1a30       ?SC_Energy@@YAHAAVRPacket@dbc@@@Z 004a2a30 f   PacketCmd_SC.obj
 0001:000a1c00       ?SC_EnterMap@@YAHAAVRPacket@dbc@@@Z 004a2c00 f   PacketCmd_SC.obj
 0001:000a20d0       ?SC_EspeItem@@YAHAAVRPacket@dbc@@@Z 004a30d0 f   PacketCmd_SC.obj
 0001:000a2310       ?SC_ExchangeAnswer@@YAHAAVRPacket@dbc@@@Z 004a3310 f   PacketCmd_SC.obj
 0001:000a2820       ?SC_ExchangeData@@YAHAAVRPacket@dbc@@@Z 004a3820 f   PacketCmd_SC.obj
 0001:000a2a80       ?SC_FailedAction@@YAHAAVRPacket@dbc@@@Z 004a3a80 f   PacketCmd_SC.obj
 0001:000a2c70       ?SC_Fix@@YAHAAVRPacket@dbc@@@Z 004a3c70 f   PacketCmd_SC.obj
 0001:000a2e40       ?SC_Forge@@YAHAAVRPacket@dbc@@@Z 004a3e40 f   PacketCmd_SC.obj
 0001:000a3010       ?SC_FuncInfo@@YAHAAVRPacket@dbc@@@Z 004a4010 f   PacketCmd_SC.obj
 0001:000a3320       ?SC_Fusion@@YAHAAVRPacket@dbc@@@Z 004a4320 f   PacketCmd_SC.obj
 0001:000a34f0       ?SC_GMMail@@YAHAAVRPacket@dbc@@@Z 004a44f0 f   PacketCmd_SC.obj
 0001:000a3530       ?SC_GMRecv@@YAHAAVRPacket@dbc@@@Z 004a4530 f   PacketCmd_SC.obj
 0001:000a3700       ?SC_GMSend@@YAHAAVRPacket@dbc@@@Z 004a4700 f   PacketCmd_SC.obj
 0001:000a38d0       ?SC_GetFlatMoneyAsk@@YAHAAVRPacket@dbc@@@Z 004a48d0 f   PacketCmd_SC.obj
 0001:000a3ad0       ?SC_GetNameColor@@YAHAAVRPacket@dbc@@@Z 004a4ad0 f   PacketCmd_SC.obj
 0001:000a3b00       ?SC_GetStone@@YAHAAVRPacket@dbc@@@Z 004a4b00 f   PacketCmd_SC.obj
 0001:000a3cd0       ?SC_HelpInfo@@YAHAAVRPacket@dbc@@@Z 004a4cd0 f   PacketCmd_SC.obj
 0001:000a3f10       ?SC_ItemAmphitheaterAnswer@@YAHAAVRPacket@dbc@@@Z 004a4f10 f   PacketCmd_SC.obj
 0001:000a41e0       ?SC_ItemCreate@@YAHAAVRPacket@dbc@@@Z 004a51e0 f   PacketCmd_SC.obj
 0001:000a4460       ?SC_ItemDestroy@@YAHAAVRPacket@dbc@@@Z 004a5460 f   PacketCmd_SC.obj
 0001:000a4630       ?SC_ItemForgeAnswer@@YAHAAVRPacket@dbc@@@Z 004a5630 f   PacketCmd_SC.obj
 0001:000a4830       ?SC_ItemForgeAsk@@YAHAAVRPacket@dbc@@@Z 004a5830 f   PacketCmd_SC.obj
 0001:000a4a20       ?SC_ItemLotteryAnswer@@YAHAAVRPacket@dbc@@@Z 004a5a20 f   PacketCmd_SC.obj
 0001:000a4c10       ?SC_ItemLotteryAsk@@YAHAAVRPacket@dbc@@@Z 004a5c10 f   PacketCmd_SC.obj
 0001:000a4df0       ?SC_ItemRepairAsk@@YAHAAVRPacket@dbc@@@Z 004a5df0 f   PacketCmd_SC.obj
 0001:000a4fe0       ?SC_ItemUseSuc@@YAHAAVRPacket@dbc@@@Z 004a5fe0 f   PacketCmd_SC.obj
 0001:000a51c0       ?SC_JewelryUpAnswer@@YAHAAVRPacket@dbc@@@Z 004a61c0 f   PacketCmd_SC.obj
 0001:000a52a0       ?SC_KitbagCapacity@@YAHAAVRPacket@dbc@@@Z 004a62a0 f   PacketCmd_SC.obj
 0001:000a5480       ?SC_KitbagCheckAnswer@@YAHAAVRPacket@dbc@@@Z 004a6480 f   PacketCmd_SC.obj
 0001:000a5660       ?SC_LeaveExpShow@@YAHAAVRPacket@dbc@@@Z 004a6660 f   PacketCmd_SC.obj
 0001:000a59f0       ?SC_LeaveTimeShow@@YAHAAVRPacket@dbc@@@Z 004a69f0 f   PacketCmd_SC.obj
 0001:000a5bb0       ?SC_LifeSkill@@YAHAAVRPacket@dbc@@@Z 004a6bb0 f   PacketCmd_SC.obj
 0001:000a5eb0       ?SC_LifeSkillAsr@@YAHAAVRPacket@dbc@@@Z 004a6eb0 f   PacketCmd_SC.obj
 0001:000a6110       ?SC_LifeSkillShow@@YAHAAVRPacket@dbc@@@Z 004a7110 f   PacketCmd_SC.obj
 0001:000a6330       ?SC_ListAuction@@YAHAAVRPacket@dbc@@@Z 004a7330 f   PacketCmd_SC.obj
 0001:000a6430       ?SC_Login@@YAHAAVRPacket@dbc@@@Z 004a7430 f   PacketCmd_SC.obj
 0001:000a6920       ?SC_Lottery@@YAHAAVRPacket@dbc@@@Z 004a7920 f   PacketCmd_SC.obj
 0001:000a6af0       ?SC_MapCrash@@YAHAAVRPacket@dbc@@@Z 004a7af0 f   PacketCmd_SC.obj
 0001:000a6cd0       ?SC_MapMask@@YAHAAVRPacket@dbc@@@Z 004a7cd0 f   PacketCmd_SC.obj
 0001:000a6ee0       ?SC_MasterAsk@@YAHAAVRPacket@dbc@@@Z 004a7ee0 f   PacketCmd_SC.obj
 0001:000a6f10       ?SC_Message@@YAHAAVRPacket@dbc@@@Z 004a7f10 f   PacketCmd_SC.obj
 0001:000a70f0       ?SC_Milling@@YAHAAVRPacket@dbc@@@Z 004a80f0 f   PacketCmd_SC.obj
 0001:000a72c0       ?SC_MisLog@@YAHAAVRPacket@dbc@@@Z 004a82c0 f   PacketCmd_SC.obj
 0001:000a7500       ?SC_MisLogAdd@@YAHAAVRPacket@dbc@@@Z 004a8500 f   PacketCmd_SC.obj
 0001:000a76f0       ?SC_MisLogClear@@YAHAAVRPacket@dbc@@@Z 004a86f0 f   PacketCmd_SC.obj
 0001:000a78d0       ?SC_MisLogInfo@@YAHAAVRPacket@dbc@@@Z 004a88d0 f   PacketCmd_SC.obj
 0001:000a7c50       ?SC_MisLogState@@YAHAAVRPacket@dbc@@@Z 004a8c50 f   PacketCmd_SC.obj
 0001:000a7e40       ?SC_MisPage@@YAHAAVRPacket@dbc@@@Z 004a8e40 f   PacketCmd_SC.obj
 0001:000a81e0       ?SC_MissionInfo@@YAHAAVRPacket@dbc@@@Z 004a91e0 f   PacketCmd_SC.obj
 0001:000a8480       ?SC_NewCha@@YAHAAVRPacket@dbc@@@Z 004a9480 f   PacketCmd_SC.obj
 0001:000a8660       ?SC_NpcStateChange@@YAHAAVRPacket@dbc@@@Z 004a9660 f   PacketCmd_SC.obj
 0001:000a8850       ?SC_OpenHairCut@@YAHAAVRPacket@dbc@@@Z 004a9850 f   PacketCmd_SC.obj
 0001:000a8a20       ?SC_Ping@@YAHAAVRPacket@dbc@@@Z 004a9a20 f   PacketCmd_SC.obj
 0001:000a8ce0       ?SC_PopupNotice@@YAHAAVRPacket@dbc@@@Z 004a9ce0 f   PacketCmd_SC.obj
 0001:000a8ec0       ?SC_PreMoveTime@@YAHAAVRPacket@dbc@@@Z 004a9ec0 f   PacketCmd_SC.obj
 0001:000a9090       ?SC_PrenticeAsk@@YAHAAVRPacket@dbc@@@Z 004aa090 f   PacketCmd_SC.obj
 0001:000a90c0       ?SC_Purify@@YAHAAVRPacket@dbc@@@Z 004aa0c0 f   PacketCmd_SC.obj
 0001:000a9290       ?SC_QueryCha@@YAHAAVRPacket@dbc@@@Z 004aa290 f   PacketCmd_SC.obj
 0001:000a9520       ?SC_QueryChaItem@@YAHAAVRPacket@dbc@@@Z 004aa520 f   PacketCmd_SC.obj
 0001:000a96f0       ?SC_QueryChaPing@@YAHAAVRPacket@dbc@@@Z 004aa6f0 f   PacketCmd_SC.obj
 0001:000a9950       ?SC_QueryRelive@@YAHAAVRPacket@dbc@@@Z 004aa950 f   PacketCmd_SC.obj
 0001:000a9b50       ?SC_RequestBuyAsk@@YAHAAVRPacket@dbc@@@Z 004aab50 f   PacketCmd_SC.obj
 0001:000a9e10       ?SC_RequestCancelAsk@@YAHAAVRPacket@dbc@@@Z 004aae10 f   PacketCmd_SC.obj
 0001:000aa010       ?SC_RequestRefreshAsr@@YAHAAVRPacket@dbc@@@Z 004ab010 f   PacketCmd_SC.obj
 0001:000aa210       ?SC_RequestSaleAsk@@YAHAAVRPacket@dbc@@@Z 004ab210 f   PacketCmd_SC.obj
 0001:000aa4d0       ?SC_RequesttCrystalState@@YAHAAVRPacket@dbc@@@Z 004ab4d0 f   PacketCmd_SC.obj
 0001:000aace0       ?SC_SYNCCHAR@@YAHAAVRPacket@dbc@@@Z 004abce0 f   PacketCmd_SC.obj
 0001:000aad20       ?SC_Say2Camp@@YAHAAVRPacket@dbc@@@Z 004abd20 f   PacketCmd_SC.obj
 0001:000aad50       ?SC_Say@@YAHAAVRPacket@dbc@@@Z 004abd50 f   PacketCmd_SC.obj
 0001:000aaf50       ?SC_StallClose@@YAHAAVRPacket@dbc@@@Z 004abf50 f   PacketCmd_SC.obj
 0001:000ab120       ?SC_StallDelGoods@@YAHAAVRPacket@dbc@@@Z 004ac120 f   PacketCmd_SC.obj
 0001:000ab320       ?SC_StallInfo@@YAHAAVRPacket@dbc@@@Z 004ac320 f   PacketCmd_SC.obj
 0001:000ab760       ?SC_StallSuccess@@YAHAAVRPacket@dbc@@@Z 004ac760 f   PacketCmd_SC.obj
 0001:000ab930       ?SC_StartExit@@YAHAAVRPacket@dbc@@@Z 004ac930 f   PacketCmd_SC.obj
 0001:000abb00       ?SC_StoreBuyAnswer@@YAHAAVRPacket@dbc@@@Z 004acb00 f   PacketCmd_SC.obj
 0001:000abd10       ?SC_StoreChangeAnswer@@YAHAAVRPacket@dbc@@@Z 004acd10 f   PacketCmd_SC.obj
 0001:000abf20       ?SC_StoreHistory@@YAHAAVRPacket@dbc@@@Z 004acf20 f   PacketCmd_SC.obj
 0001:000ac130       ?SC_StoreListAnswer@@YAHAAVRPacket@dbc@@@Z 004ad130 f   PacketCmd_SC.obj
 0001:000ac4f0       ?SC_StoreOpenAnswer@@YAHAAVRPacket@dbc@@@Z 004ad4f0 f   PacketCmd_SC.obj
 0001:000ac820       ?SC_StoreVIP@@YAHAAVRPacket@dbc@@@Z 004ad820 f   PacketCmd_SC.obj
 0001:000aca30       ?SC_SynAppendLook@@YAHAAVRPacket@dbc@@@Z 004ada30 f   PacketCmd_SC.obj
 0001:000acc40       ?SC_SynAttribute@@YAHAAVRPacket@dbc@@@Z 004adc40 f   PacketCmd_SC.obj
 0001:000ace40       ?SC_SynDefaultSkill@@YAHAAVRPacket@dbc@@@Z 004ade40 f   PacketCmd_SC.obj
 0001:000ad030       ?SC_SynEventInfo@@YAHAAVRPacket@dbc@@@Z 004ae030 f   PacketCmd_SC.obj
 0001:000ad230       ?SC_SynSideInfo@@YAHAAVRPacket@dbc@@@Z 004ae230 f   PacketCmd_SC.obj
 0001:000ad420       ?SC_SynSkillBag@@YAHAAVRPacket@dbc@@@Z 004ae420 f   PacketCmd_SC.obj
 0001:000ad640       ?SC_SynSkillState@@YAHAAVRPacket@dbc@@@Z 004ae640 f   PacketCmd_SC.obj
 0001:000ad860       ?SC_SynStallName@@YAHAAVRPacket@dbc@@@Z 004ae860 f   PacketCmd_SC.obj
 0001:000ada40       ?SC_SynTLeaderID@@YAHAAVRPacket@dbc@@@Z 004aea40 f   PacketCmd_SC.obj
 0001:000adc20       ?SC_SynTeam@@YAHAAVRPacket@dbc@@@Z 004aec20 f   PacketCmd_SC.obj
 0001:000adeb0       ?SC_SyncKitbagTemp@@YAHAAVRPacket@dbc@@@Z 004aeeb0 f   PacketCmd_SC.obj
 0001:000adf20       ?SC_SyncTigerString@@YAHAAVRPacket@dbc@@@Z 004aef20 f   PacketCmd_SC.obj
 0001:000adf40       ?SC_SysInfo@@YAHAAVRPacket@dbc@@@Z 004aef40 f   PacketCmd_SC.obj
 0001:000ae130       ?SC_TalkInfo@@YAHAAVRPacket@dbc@@@Z 004af130 f   PacketCmd_SC.obj
 0001:000ae330       ?SC_TeamFightAsk@@YAHAAVRPacket@dbc@@@Z 004af330 f   PacketCmd_SC.obj
 0001:000ae580       ?SC_Tiger@@YAHAAVRPacket@dbc@@@Z 004af580 f   PacketCmd_SC.obj
 0001:000ae750       ?SC_TigerItemID@@YAHAAVRPacket@dbc@@@Z 004af750 f   PacketCmd_SC.obj
 0001:000ae970       ?SC_TradeAllData@@YAHAAVRPacket@dbc@@@Z 004af970 f   PacketCmd_SC.obj
 0001:000aecd0       ?SC_TradeData@@YAHAAVRPacket@dbc@@@Z 004afcd0 f   PacketCmd_SC.obj
 0001:000aef00       ?SC_TradeInfo@@YAHAAVRPacket@dbc@@@Z 004aff00 f   PacketCmd_SC.obj
 0001:000af260       ?SC_TradeResult@@YAHAAVRPacket@dbc@@@Z 004b0260 f   PacketCmd_SC.obj
 0001:000af4e0       ?SC_TradeUpdate@@YAHAAVRPacket@dbc@@@Z 004b04e0 f   PacketCmd_SC.obj
 0001:000af840       ?SC_TriggerAction@@YAHAAVRPacket@dbc@@@Z 004b0840 f   PacketCmd_SC.obj
 0001:000afa50       ?SC_Unite@@YAHAAVRPacket@dbc@@@Z 004b0a50 f   PacketCmd_SC.obj
 0001:000afc20       ?SC_UnlockItemAsr@@YAHAAVRPacket@dbc@@@Z 004b0c20 f   PacketCmd_SC.obj
 0001:000afe30       ?SC_UpdateBoat@@YAHAAVRPacket@dbc@@@Z 004b0e30 f   PacketCmd_SC.obj
 0001:000b0280       ?SC_UpdateBoatPart@@YAHAAVRPacket@dbc@@@Z 004b1280 f   PacketCmd_SC.obj
 0001:000b0440       ?SC_UpdateGuildBankGold@@YAHAAVRPacket@dbc@@@Z 004b1440 f   PacketCmd_SC.obj
 0001:000b0500       ?SC_UpdateHairRes@@YAHAAVRPacket@dbc@@@Z 004b1500 f   PacketCmd_SC.obj
 0001:000b0700       ?SC_UpdatePassword2@@YAHAAVRPacket@dbc@@@Z 004b1700 f   PacketCmd_SC.obj
 0001:000b08e0       ?SC_Upgrade@@YAHAAVRPacket@dbc@@@Z 004b18e0 f   PacketCmd_SC.obj
 0001:000b0ab0       ?SC_VolunteerAsk@@YAHAAVRPacket@dbc@@@Z 004b1ab0 f   PacketCmd_SC.obj
 0001:000b0c90       ?SC_VolunteerList@@YAHAAVRPacket@dbc@@@Z 004b1c90 f   PacketCmd_SC.obj
 0001:000b0f00       ?SC_VolunteerOpen@@YAHAAVRPacket@dbc@@@Z 004b1f00 f   PacketCmd_SC.obj
 0001:000b11a0       ?SC_VolunteerState@@YAHAAVRPacket@dbc@@@Z 004b21a0 f   PacketCmd_SC.obj
 0001:000b1390       ?g_GetUseItemFailedInfo@@YAPBDF@Z 004b2390 f i PacketCmd_SC.obj
 0001:000b15e0       ??$_Destroy_range@V?$allocator@UDirectoryData@CPackFile@@@std@@@std@@YAXPAUDirectoryData@CPackFile@@0AAV?$allocator@UDirectoryData@CPackFile@@@0@@Z 004b25e0 f i PackFile.obj
 0001:000b1660       ??$_Emplace_reallocate@ABUDirectoryData@CPackFile@@@?$vector@UDirectoryData@CPackFile@@V?$allocator@UDirectoryData@CPackFile@@@std@@@std@@QAEPAUDirectoryData@CPackFile@@QAU23@ABU23@@Z 004b2660 f i PackFile.obj
 0001:000b17f0       ??$_Emplace_reallocate@ABUFileData@CPackFile@@@?$vector@UFileData@CPackFile@@V?$allocator@UFileData@CPackFile@@@std@@@std@@QAEPAUFileData@CPackFile@@QAU23@ABU23@@Z 004b27f0 f i PackFile.obj
 0001:000b1940       ??$_Resize@V<lambda_36281b71dd1f48fb1c756538650c35e1>@@@?$vector@UsXY@CMiniPack@@V?$allocator@UsXY@CMiniPack@@@std@@@std@@AAEXIV<lambda_36281b71dd1f48fb1c756538650c35e1>@@@Z 004b2940 f i PackFile.obj
 0001:000b1b30       ??$_Resize@V<lambda_586ded06e34fe5e5f4b29a01c50fdb90>@@@?$vector@UFileData@CPackFile@@V?$allocator@UFileData@CPackFile@@@std@@@std@@AAEXIV<lambda_586ded06e34fe5e5f4b29a01c50fdb90>@@@Z 004b2b30 f i PackFile.obj
 0001:000b1ca0       ??$_Resize@V<lambda_a2201faaf093014a87516cd0a136970b>@@@?$vector@UDirectoryData@CPackFile@@V?$allocator@UDirectoryData@CPackFile@@@std@@@std@@AAEXIV<lambda_a2201faaf093014a87516cd0a136970b>@@@Z 004b2ca0 f i PackFile.obj
 0001:000b1e50       ??$_Ucopy@PAUDirectoryData@CPackFile@@@?$vector@UDirectoryData@CPackFile@@V?$allocator@UDirectoryData@CPackFile@@@std@@@std@@AAEPAUDirectoryData@CPackFile@@PAU23@00@Z 004b2e50 f i PackFile.obj
 0001:000b1ef0       ??$_Ucopy@PAUFileData@CPackFile@@@?$vector@UFileData@CPackFile@@V?$allocator@UFileData@CPackFile@@@std@@@std@@AAEPAUFileData@CPackFile@@PAU23@00@Z 004b2ef0 f i PackFile.obj
 0001:000b1f90       ??$_Uninitialized_move@PAUDirectoryData@CPackFile@@PAU12@V?$allocator@UDirectoryData@CPackFile@@@std@@@std@@YAPAUDirectoryData@CPackFile@@QAU12@0PAU12@AAV?$allocator@UDirectoryData@CPackFile@@@0@@Z 004b2f90 f i PackFile.obj
 0001:000b20e0       ??$_Uninitialized_move@PAUFileData@CPackFile@@PAU12@V?$allocator@UFileData@CPackFile@@@std@@@std@@YAPAUFileData@CPackFile@@QAU12@0PAU12@AAV?$allocator@UFileData@CPackFile@@@0@@Z 004b30e0 f i PackFile.obj
 0001:000b21b0       ??$construct@UDirectoryData@CPackFile@@ABU12@@?$_Default_allocator_traits@V?$allocator@UDirectoryData@CPackFile@@@std@@@std@@SAXAAV?$allocator@UDirectoryData@CPackFile@@@1@QAUDirectoryData@CPackFile@@ABU34@@Z 004b31b0 f i PackFile.obj
 0001:000b2230       ??$construct@UFileData@CPackFile@@ABU12@@?$_Default_allocator_traits@V?$allocator@UFileData@CPackFile@@@std@@@std@@SAXAAV?$allocator@UFileData@CPackFile@@@1@QAUFileData@CPackFile@@ABU34@@Z 004b3230 f i PackFile.obj
 0001:000b2290       ??0?$vector@UDirectoryData@CPackFile@@V?$allocator@UDirectoryData@CPackFile@@@std@@@std@@QAE@ABV01@@Z 004b3290 f i PackFile.obj
 0001:000b2370       ??0?$vector@UFileData@CPackFile@@V?$allocator@UFileData@CPackFile@@@std@@@std@@QAE@ABV01@@Z 004b3370 f i PackFile.obj
 0001:000b2430       ??0CMiniPack@@QAE@XZ       004b3430 f   PackFile.obj
 0001:000b2590       ??0DirectoryData@CPackFile@@QAE@ABU01@@Z 004b3590 f i PackFile.obj
 0001:000b2610       ??1?$_Uninitialized_backout_al@PAUDirectoryData@CPackFile@@V?$allocator@UDirectoryData@CPackFile@@@std@@@std@@QAE@XZ 004b3610 f i PackFile.obj
 0001:000b2660       ??1?$_Uninitialized_backout_al@PAUFileData@CPackFile@@V?$allocator@UFileData@CPackFile@@@std@@@std@@QAE@XZ 004b3660 f i PackFile.obj
 0001:000b26c0       ??1?$vector@UDirectoryData@CPackFile@@V?$allocator@UDirectoryData@CPackFile@@@std@@@std@@QAE@XZ 004b36c0 f i PackFile.obj
 0001:000b2700       ??1?$vector@UFileData@CPackFile@@V?$allocator@UFileData@CPackFile@@@std@@@std@@QAE@XZ 004b3700 f i PackFile.obj
 0001:000b2740       ??1?$vector@UsXY@CMiniPack@@V?$allocator@UsXY@CMiniPack@@@std@@@std@@QAE@XZ 004b3740 f i PackFile.obj
 0001:000b27d0       ??1CMiniPack@@QAE@XZ       004b37d0 f   PackFile.obj
 0001:000b2870       ??1CPackFile@@QAE@XZ       004b3870 f   PackFile.obj
 0001:000b2900       ??1DirectoryData@CPackFile@@QAE@XZ 004b3900 f i PackFile.obj
 0001:000b2970       ??1FileData@CPackFile@@QAE@XZ 004b3970 f i PackFile.obj
 0001:000b29c0       ??R<lambda_36281b71dd1f48fb1c756538650c35e1>@@QBEPAUsXY@CMiniPack@@PAU12@I@Z 004b39c0 f i PackFile.obj
 0001:000b2a00       ??R<lambda_586ded06e34fe5e5f4b29a01c50fdb90>@@QBEPAUFileData@CPackFile@@PAU12@I@Z 004b3a00 f i PackFile.obj
 0001:000b2a90       ??R<lambda_a2201faaf093014a87516cd0a136970b>@@QBEPAUDirectoryData@CPackFile@@PAU12@I@Z 004b3a90 f i PackFile.obj
 0001:000b2b70       ?Clear@CPackFile@@QAEXXZ   004b3b70 f   PackFile.obj
 0001:000b2c30       ?GetDirectorySize@CPackFile@@IAEJPAUDirectoryData@1@@Z 004b3c30 f   PackFile.obj
 0001:000b2cb0       ?Init@CMiniPack@@QAE_NPAD@Z 004b3cb0 f   PackFile.obj
 0001:000b2fb0       ?LoadDirData@CPackFile@@IAE_NPAUDirectoryData@1@@Z 004b3fb0 f   PackFile.obj
 0001:000b3150       ?PackDirectory@CPackFile@@IAE_NPAU_iobuf@@PAUDirectoryData@1@PAD@Z 004b4150 f   PackFile.obj
 0001:000b35e0       ?SaveDirData@CPackFile@@IAEXPAU_iobuf@@PAUDirectoryData@1@J@Z 004b45e0 f   PackFile.obj
 0001:000b3700       ?SaveToPack@CPackFile@@QAE_NPAD00@Z 004b4700 f   PackFile.obj
 0001:000b3860       ?_Change_array@?$vector@UDirectoryData@CPackFile@@V?$allocator@UDirectoryData@CPackFile@@@std@@@std@@AAEXQAUDirectoryData@CPackFile@@II@Z 004b4860 f i PackFile.obj
 0001:000b3900       ?_Change_array@?$vector@UFileData@CPackFile@@V?$allocator@UFileData@CPackFile@@@std@@@std@@AAEXQAUFileData@CPackFile@@II@Z 004b4900 f i PackFile.obj
 0001:000b39c0       ?_Destroy@?$vector@UDirectoryData@CPackFile@@V?$allocator@UDirectoryData@CPackFile@@@std@@@std@@AAEXPAUDirectoryData@CPackFile@@0@Z 004b49c0 f i PackFile.obj
 0001:000b39e0       ?_Destroy@?$vector@UFileData@CPackFile@@V?$allocator@UFileData@CPackFile@@@std@@@std@@AAEXPAUFileData@CPackFile@@0@Z 004b49e0 f i PackFile.obj
 0001:000b3a40       ?_Getal@?$_Vector_alloc@U?$_Vec_base_types@UDirectoryData@CPackFile@@V?$allocator@UDirectoryData@CPackFile@@@std@@@std@@@std@@QAEAAV?$allocator@UDirectoryData@CPackFile@@@2@XZ 004b4a40 f i PackFile.obj
 0001:000b3a50       ?_Getal@?$_Vector_alloc@U?$_Vec_base_types@UFileData@CPackFile@@V?$allocator@UFileData@CPackFile@@@std@@@std@@@std@@QAEAAV?$allocator@UFileData@CPackFile@@@2@XZ 004b4a50 f i PackFile.obj
 0001:000b3a60       ?_Getal@?$_Vector_alloc@U?$_Vec_base_types@UsXY@CMiniPack@@V?$allocator@UsXY@CMiniPack@@@std@@@std@@@std@@QAEAAV?$allocator@UsXY@CMiniPack@@@2@XZ 004b4a60 f i PackFile.obj
 0001:000b3a70       ?_Tidy@?$vector@UDirectoryData@CPackFile@@V?$allocator@UDirectoryData@CPackFile@@@std@@@std@@AAEXXZ 004b4a70 f i PackFile.obj
 0001:000b3b00       ?_Tidy@?$vector@UFileData@CPackFile@@V?$allocator@UFileData@CPackFile@@@std@@@std@@AAEXXZ 004b4b00 f i PackFile.obj
 0001:000b3bc0       ?_Xlength@?$vector@UDirectoryData@CPackFile@@V?$allocator@UDirectoryData@CPackFile@@@std@@@std@@CAXXZ 004b4bc0 f i PackFile.obj
 0001:000b3bd0       ?_Xlength@?$vector@UFileData@CPackFile@@V?$allocator@UFileData@CPackFile@@@std@@@std@@CAXXZ 004b4bd0 f i PackFile.obj
 0001:000b3be0       ?_Xlength@?$vector@UsXY@CMiniPack@@V?$allocator@UsXY@CMiniPack@@@std@@@std@@CAXXZ 004b4be0 f i PackFile.obj
 0001:000b3bf0       ?allocate@?$allocator@UDirectoryData@CPackFile@@@std@@QAEPAUDirectoryData@CPackFile@@I@Z 004b4bf0 f i PackFile.obj
 0001:000b3c60       ?allocate@?$allocator@UFileData@CPackFile@@@std@@QAEPAUFileData@CPackFile@@I@Z 004b4c60 f i PackFile.obj
 0001:000b3cd0       ?deallocate@?$allocator@UDirectoryData@CPackFile@@@std@@QAEXQAUDirectoryData@CPackFile@@I@Z 004b4cd0 f i PackFile.obj
 0001:000b3d20       ?deallocate@?$allocator@UFileData@CPackFile@@@std@@QAEXQAUFileData@CPackFile@@I@Z 004b4d20 f i PackFile.obj
 0001:000b3d60       ?deallocate@?$allocator@UsXY@CMiniPack@@@std@@QAEXQAUsXY@CMiniPack@@I@Z 004b4d60 f i PackFile.obj
 0001:000b3da0       ?BeginAction@CProCirculateCC@@UAEXPAVCCharacter@@KPAXPAVCActionState@@@Z 004b4da0 f   ProCirculateCC.obj
 0001:000b3e20       ?EndAction@CProCirculateCC@@UAEXPAVCActionState@@@Z 004b4e20 f   ProCirculateCC.obj
 0001:000b3e60       ?AcceptGuildInviteConfirm@CProCirculate@@QAEXK@Z 004b4e60 f   ProCirculateCS.obj
 0001:000b3ef0       ?BeginAction@CProCirculateCS@@UAEXPAVCCharacter@@KPAXPAVCActionState@@@Z 004b4ef0 f   ProCirculateCS.obj
 0001:000b4340       ?BeginPlay@CProCirculate@@QAEXPBD@Z 004b5340 f   ProCirculateCS.obj
 0001:000b43c0       ?Connect@CProCirculate@@QAE_NPBDGK@Z 004b53c0 f   ProCirculateCS.obj
 0001:000b43e0       ?DelCha@CProCirculate@@QAEXPBDQBD@Z 004b53e0 f   ProCirculateCS.obj
 0001:000b4470       ?Disconnect@CProCirculate@@QAEXH@Z 004b5470 f   ProCirculateCS.obj
 0001:000b4490       ?EndAction@CProCirculateCS@@UAEXPAVCActionState@@@Z 004b5490 f   ProCirculateCS.obj
 0001:000b4510       ?EndPlay@CProCirculate@@QAEXXZ 004b5510 f   ProCirculateCS.obj
 0001:000b4590       ?GetAttr@CChaAttr@@QAE_JJ@Z 004b5590 f i ProCirculateCS.obj
 0001:000b4770       ?GetChangeBitFlag@CChaAttr@@QAE_NJ@Z 004b5770 f i ProCirculateCS.obj
 0001:000b4970       ?Login@CProCirculate@@QAEXPBD00@Z 004b5970 f   ProCirculateCS.obj
 0001:000b4c10       ?Logout@CProCirculate@@QAEXXZ 004b5c10 f   ProCirculateCS.obj
 0001:000b4cb0       ?NewCha@CProCirculate@@QAEXPBD0AAUstNetChangeChaPart@@@Z 004b5cb0 f   ProCirculateCS.obj
 0001:000b4d50       ?RefuseGuildInviteConfirm@CProCirculate@@QAEXK@Z 004b5d50 f   ProCirculateCS.obj
 0001:000b4de0       ?RequestLeaveExp@CProCirculate@@QAEXDHHH@Z 004b5de0 f   ProCirculateCS.obj
 0001:000b4e90       ?Say@CProCirculate@@QAEXPBD@Z 004b5e90 f   ProCirculateCS.obj
 0001:000b4f30       ?SendCoinInfo@CProCirculate@@QAEXHH@Z 004b5f30 f   ProCirculateCS.obj
 0001:000b4fc0       ?SkillUpgrade@CProCirculate@@QAEXFD@Z 004b5fc0 f   ProCirculateCS.obj
 0001:000b5050       ?SynBaseAttribute@CProCirculate@@QAEXPAVCChaAttr@@@Z 004b6050 f   ProCirculateCS.obj
 0001:000b5130       ?TradeWithYourSelf@CProCirculate@@QAEXEE@Z 004b6130 f   ProCirculateCS.obj
 0001:000b51d0       ?UpdateGuildAttr@CProCirculate@@QAEXE@Z 004b61d0 f   ProCirculateCS.obj
 0001:000b5260       ?UpdateGuildBank@CProCirculate@@QAEXKPAUstNetBank@@@Z 004b6260 f   ProCirculateCS.obj
 0001:000b5340       ?UpdateGuildBankGold@CProCirculate@@QAEXKDH@Z 004b6340 f   ProCirculateCS.obj
 0001:000b53f0       ?UpdateGuildPerm@CProCirculate@@QAEXKK@Z 004b63f0 f   ProCirculateCS.obj
 0001:000b5480       ??0CRecruitMemberData@@QAE@XZ 004b6480 f   RecruitMemberData.obj
 0001:000b5520       ??1CRecruitMemberData@@QAE@XZ 004b6520 f   RecruitMemberData.obj
 0001:000b5580       ??$_Emplace_reallocate@ABQAVCRecruitMemberData@@@?$vector@PAVCRecruitMemberData@@V?$allocator@PAVCRecruitMemberData@@@std@@@std@@QAEPAPAVCRecruitMemberData@@QAPAV2@ABQAV2@@Z 004b6580 f i RecruitMembersMgr.obj
 0001:000b5740       ?AddRecruitMember@CRecruitMembersMgr@@SAXPAVCRecruitMemberData@@@Z 004b6740 f   RecruitMembersMgr.obj
 0001:000b5770       ?DelRecruitMember@CRecruitMembersMgr@@SA_NPAVCRecruitMemberData@@@Z 004b6770 f   RecruitMembersMgr.obj
 0001:000b57e0       ?FindRecruitMemberByIndex@CRecruitMembersMgr@@SAPAVCRecruitMemberData@@K@Z 004b67e0 f   RecruitMembersMgr.obj
 0001:000b5810       ?GetTotalRecruitMembers@CRecruitMembersMgr@@SAKXZ 004b6810 f   RecruitMembersMgr.obj
 0001:000b5820       ?ResetAll@CRecruitMembersMgr@@SAXXZ 004b6820 f   RecruitMembersMgr.obj
 0001:000b58a0       ?_Xlength@?$vector@PAVCRecruitMemberData@@V?$allocator@PAVCRecruitMemberData@@@std@@@std@@CAXXZ 004b68a0 f i RecruitMembersMgr.obj
 0001:000b58b0       ?deallocate@?$allocator@PAVCRecruitMemberData@@@std@@QAEXQAPAVCRecruitMemberData@@I@Z 004b68b0 f i RecruitMembersMgr.obj
 0001:000b58f0       ??0RenderStateMgr@@QAE@XZ  004b68f0 f   RenderStateMgr.obj
 0001:000b5930       ??1RenderStateMgr@@QAE@XZ  004b6930 f   RenderStateMgr.obj
 0001:000b59e0       ?BeginCharacter@RenderStateMgr@@QAEJXZ 004b69e0 f   RenderStateMgr.obj
 0001:000b5a70       ?BeginScene@RenderStateMgr@@QAEJXZ 004b6a70 f   RenderStateMgr.obj
 0001:000b5a90       ?BeginSceneObject@RenderStateMgr@@QAEJXZ 004b6a90 f   RenderStateMgr.obj
 0001:000b5b30       ?BeginTranspObject@RenderStateMgr@@QAEJXZ 004b6b30 f   RenderStateMgr.obj
 0001:000b5b60       ?EndCharacter@RenderStateMgr@@QAEJXZ 004b6b60 f   RenderStateMgr.obj
 0001:000b5bb0       ?EndScene@RenderStateMgr@@QAEJXZ 004b6bb0 f   RenderStateMgr.obj
 0001:000b5bd0       ?EndSceneObject@RenderStateMgr@@QAEJXZ 004b6bd0 f   RenderStateMgr.obj
 0001:000b5c50       ?EndTranspObject@RenderStateMgr@@QAEJXZ 004b6c50 f   RenderStateMgr.obj
 0001:000b5c80       ?Init@RenderStateMgr@@QAEJPAVdrIDeviceObject@LightEngine@@@Z 004b6c80 f   RenderStateMgr.obj
 0001:000b6000       ??$?8DU?$char_traits@D@std@@@std@@YA_NABV?$istreambuf_iterator@DU?$char_traits@D@std@@@0@0@Z 004b7000 f i Scene.obj
 0001:000b60a0       ??$_Buynode@ABH@?$_List_buy@HV?$allocator@H@std@@@std@@QAEPAU?$_List_node@HPAX@1@PAU21@0ABH@Z 004b70a0 f i Scene.obj
 0001:000b6120       ??$_Buynode@ABQAVCEffectObj@@@?$_List_buy@PAVCEffectObj@@V?$allocator@PAVCEffectObj@@@std@@@std@@QAEPAU?$_List_node@PAVCEffectObj@@PAX@1@PAU21@0ABQAVCEffectObj@@@Z 004b7120 f i Scene.obj
 0001:000b61a0       ??$_Buynode@ABQAVCSceneObj@@@?$_Tree_comp_alloc@V?$_Tset_traits@PAVCSceneObj@@U?$less@PAVCSceneObj@@@std@@V?$allocator@PAVCSceneObj@@@3@$0A@@std@@@std@@QAEPAU?$_Tree_node@PAVCSceneObj@@PAX@1@ABQAVCSceneObj@@@Z 004b71a0 f i Scene.obj
 0001:000b6220       ??$_Buynode@ABUReallyBigObjectInfo@@@?$_Tree_comp_alloc@V?$_Tset_traits@UReallyBigObjectInfo@@U?$less@UReallyBigObjectInfo@@@std@@V?$allocator@UReallyBigObjectInfo@@@3@$0A@@std@@@std@@QAEPAU?$_Tree_node@UReallyBigObjectInfo@@PAX@1@ABUReallyBigObjectInfo@@@Z 004b7220 f i Scene.obj
 0001:000b62b0       ??$_Common_extract_with_num_get@J@?$basic_istream@DU?$char_traits@D@std@@@std@@AAEAAV01@AAJ@Z 004b72b0 f i Scene.obj
 0001:000b6450       ??$_Common_extract_with_num_get@M@?$basic_istream@DU?$char_traits@D@std@@@std@@AAEAAV01@AAM@Z 004b7450 f i Scene.obj
 0001:000b65f0       ??$_Emplace_reallocate@ABQAX@?$vector@PAXV?$allocator@PAX@std@@@std@@QAEPAPAXQAPAXABQAX@Z 004b75f0 f i Scene.obj
 0001:000b67b0       ??$_Getloctxt@DV?$istreambuf_iterator@DU?$char_traits@D@std@@@std@@@std@@YAHAAV?$istreambuf_iterator@DU?$char_traits@D@std@@@0@0IPBD@Z 004b77b0 f i Scene.obj
 0001:000b6b00       ??$_Insert_at@ABQAVCSceneObj@@U_Not_a_node_tag@std@@@?$_Tree@V?$_Tset_traits@PAVCSceneObj@@U?$less@PAVCSceneObj@@@std@@V?$allocator@PAVCSceneObj@@@3@$0A@@std@@@std@@IAE?AV?$_Tree_const_iterator@V?$_Tree_val@U?$_Tree_simple_types@PAVCSceneObj@@@std@@@std@@@1@_NPAU?$_Tree_node@PAVCSceneObj@@PAX@1@ABQAVCSceneObj@@U_Not_a_node_tag@1@@Z 004b7b00 f i Scene.obj
 0001:000b6c60       ??$_Insert_at@ABUReallyBigObjectInfo@@U_Not_a_node_tag@std@@@?$_Tree@V?$_Tset_traits@UReallyBigObjectInfo@@U?$less@UReallyBigObjectInfo@@@std@@V?$allocator@UReallyBigObjectInfo@@@3@$0A@@std@@@std@@IAE?AV?$_Tree_const_iterator@V?$_Tree_val@U?$_Tree_simple_types@UReallyBigObjectInfo@@@std@@@std@@@1@_NPAU?$_Tree_node@UReallyBigObjectInfo@@PAX@1@ABUReallyBigObjectInfo@@U_Not_a_node_tag@1@@Z 004b7c60 f i Scene.obj
 0001:000b6dc0       ??$_Insert_nohint@ABQAVCSceneObj@@U_Not_a_node_tag@std@@@?$_Tree@V?$_Tset_traits@PAVCSceneObj@@U?$less@PAVCSceneObj@@@std@@V?$allocator@PAVCSceneObj@@@3@$0A@@std@@@std@@IAE?AU?$pair@V?$_Tree_const_iterator@V?$_Tree_val@U?$_Tree_simple_types@PAVCSceneObj@@@std@@@std@@@std@@_N@1@_NABQAVCSceneObj@@U_Not_a_node_tag@1@@Z 004b7dc0 f i Scene.obj
 0001:000b6ed0       ??$_Insert_nohint@ABUReallyBigObjectInfo@@U_Not_a_node_tag@std@@@?$_Tree@V?$_Tset_traits@UReallyBigObjectInfo@@U?$less@UReallyBigObjectInfo@@@std@@V?$allocator@UReallyBigObjectInfo@@@3@$0A@@std@@@std@@IAE?AU?$pair@V?$_Tree_const_iterator@V?$_Tree_val@U?$_Tree_simple_types@UReallyBigObjectInfo@@@std@@@std@@@std@@_N@1@_NABUReallyBigObjectInfo@@U_Not_a_node_tag@1@@Z 004b7ed0 f i Scene.obj
 0001:000b6fe0       ??$_Resize@V<lambda_4f2fd6a84b983411848f0e0333d0ea32>@@@?$vector@HV?$allocator@H@std@@@std@@AAEXIV<lambda_4f2fd6a84b983411848f0e0333d0ea32>@@@Z 004b7fe0 f i Scene.obj
 0001:000b71b0       ??$endl@DU?$char_traits@D@std@@@std@@YAAAV?$basic_ostream@DU?$char_traits@D@std@@@0@AAV10@@Z 004b81b0 f i Scene.obj
 0001:000b71e0       ??$use_facet@V?$num_get@DV?$istreambuf_iterator@DU?$char_traits@D@std@@@std@@@std@@@std@@YAABV?$num_get@DV?$istreambuf_iterator@DU?$char_traits@D@std@@@std@@@0@ABVlocale@0@@Z 004b81e0 f i Scene.obj
 0001:000b7390       ??0?$istreambuf_iterator@DU?$char_traits@D@std@@@std@@QAE@AAV?$basic_istream@DU?$char_traits@D@std@@@1@@Z 004b8390 f i Scene.obj
 0001:000b73c0       ??0?$list@HV?$allocator@H@std@@@std@@QAE@XZ 004b83c0 f i Scene.obj
 0001:000b7420       ??0CGameScene@@IAE@AAUstSceneInitParam@@@Z 004b8420 f   Scene.obj
 0001:000b7840       ??0CLargerMap@@QAE@XZ      004b8840 f i Scene.obj
 0001:000b79b0       ??0CMinimap@@QAE@XZ        004b89b0 f i Scene.obj
 0001:000b7aa0       ??0TEXIDX@CMinimap@@QAE@XZ 004b8aa0 f i Scene.obj
 0001:000b7ac0       ??1?$FreeArray@VCCharacter@@@@QAE@XZ 004b8ac0 f i Scene.obj
 0001:000b7b10       ??1?$FreeArray@VCEffectObj@@@@QAE@XZ 004b8b10 f i Scene.obj
 0001:000b7b60       ??1?$FreeArray@VCSceneItem@@@@QAE@XZ 004b8b60 f i Scene.obj
 0001:000b7bb0       ??1?$S_BVECTOR@H@@QAE@XZ   004b8bb0 f i Scene.obj
 0001:000b7c00       ??1?$_List_alloc@U?$_List_base_types@PAVCEffectObj@@V?$allocator@PAVCEffectObj@@@std@@@std@@@std@@QAE@XZ 004b8c00 f i Scene.obj
 0001:000b7c40       ??1?$_List_buy@PAVCEffectObj@@V?$allocator@PAVCEffectObj@@@std@@@std@@QAE@XZ 004b8c40 f i Scene.obj
 0001:000b7c90       ??1?$_Tree@V?$_Tset_traits@PAVCSceneObj@@U?$less@PAVCSceneObj@@@std@@V?$allocator@PAVCSceneObj@@@3@$0A@@std@@@std@@QAE@XZ 004b8c90 f i Scene.obj
 0001:000b7cf0       ??1?$_Tree_comp_alloc@V?$_Tset_traits@PAVCSceneObj@@U?$less@PAVCSceneObj@@@std@@V?$allocator@PAVCSceneObj@@@3@$0A@@std@@@std@@QAE@XZ 004b8cf0 f i Scene.obj
 0001:000b7d30       ??1?$list@PAVCEffectObj@@V?$allocator@PAVCEffectObj@@@std@@@std@@QAE@XZ 004b8d30 f i Scene.obj
 0001:000b7db0       ??1?$set@PAVCSceneObj@@U?$less@PAVCSceneObj@@@std@@V?$allocator@PAVCSceneObj@@@3@@std@@QAE@XZ 004b8db0 f i Scene.obj
 0001:000b7e10       ??1?$vector@HV?$allocator@H@std@@@std@@QAE@XZ 004b8e10 f i Scene.obj
 0001:000b7ea0       ??1?$vector@PAVdrITex@LightEngine@@V?$allocator@PAVdrITex@LightEngine@@@std@@@std@@QAE@XZ 004b8ea0 f i Scene.obj
 0001:000b7f30       ??1?$vector@PAXV?$allocator@PAX@std@@@std@@QAE@XZ 004b8f30 f i Scene.obj
 0001:000b7fc0       ??1?$vector@UtagRECT@@V?$allocator@UtagRECT@@@std@@@std@@QAE@XZ 004b8fc0 f i Scene.obj
 0001:000b8050       ??1CGameScene@@MAE@XZ      004b9050 f   Scene.obj
 0001:000b81a0       ??1CLargerMap@@UAE@XZ      004b91a0 f i Scene.obj
 0001:000b8340       ??1CSMNpc@@QAE@XZ          004b9340 f i Scene.obj
 0001:000b83a0       ??1CSceneObj@@UAE@XZ       004b93a0 f i Scene.obj
 0001:000b8420       ??1CWaitCursor@GUI@@QAE@XZ 004b9420 f i Scene.obj
 0001:000b8430       ??1TEXIDX@CMinimap@@QAE@XZ 004b9430 f i Scene.obj
 0001:000b8480       ??6?$basic_ostream@DU?$char_traits@D@std@@@std@@QAEAAV01@M@Z 004b9480 f i Scene.obj
 0001:000b8660       ??6@YAAAV?$basic_ostream@DU?$char_traits@D@std@@@std@@AAV01@ABUReallyBigObjectInfo@@@Z 004b9660 f   Scene.obj
 0001:000b8790       ??D?$istreambuf_iterator@DU?$char_traits@D@std@@@std@@QBEDXZ 004b9790 f i Scene.obj
 0001:000b87e0       ??E?$istreambuf_iterator@DU?$char_traits@D@std@@@std@@QAEAAV01@XZ 004b97e0 f i Scene.obj
 0001:000b8830       ??F?$_Tree_const_iterator@V?$_Tree_val@U?$_Tree_simple_types@PAVCSceneObj@@@std@@@std@@@std@@QAEAAV01@XZ 004b9830 f i Scene.obj
 0001:000b88c0       ??F?$_Tree_const_iterator@V?$_Tree_val@U?$_Tree_simple_types@UReallyBigObjectInfo@@@std@@@std@@@std@@QAEAAV01@XZ 004b98c0 f i Scene.obj
 0001:000b8950       ??R?$less@UReallyBigObjectInfo@@@std@@QBE_NABUReallyBigObjectInfo@@0@Z 004b9950 f i Scene.obj
 0001:000b89d0       ??_ECCharacter@@UAEPAXI@Z  004b99d0 f i Scene.obj
 0001:000b8a80       ??_ECEffectObj@@UAEPAXI@Z  004b9a80 f i Scene.obj
 0001:000b8b30       ??_ECSceneItem@@UAEPAXI@Z  004b9b30 f i Scene.obj
 0001:000b8be0       ??_ECSceneObj@@UAEPAXI@Z   004b9be0 f i Scene.obj
 0001:000b8cb9       ??_ECSceneObj@@WDA@AEPAXI@Z 004b9cb9 f i Scene.obj
 0001:000b8cd0       ??_ECShadeEff@@UAEPAXI@Z   004b9cd0 f i Scene.obj
 0001:000b8d80       ??_G?$num_get@DV?$istreambuf_iterator@DU?$char_traits@D@std@@@std@@@std@@MAEPAXI@Z 004b9d80 f i Scene.obj
 0001:000b8d80       ??_E?$num_get@DV?$istreambuf_iterator@DU?$char_traits@D@std@@@std@@@std@@MAEPAXI@Z 004b9d80 f i Scene.obj
 0001:000b8df0       ??_GCGameScene@@MAEPAXI@Z  004b9df0 f i Scene.obj
 0001:000b8df0       ??_ECGameScene@@MAEPAXI@Z  004b9df0 f i Scene.obj
 0001:000b8e20       ??_ECLargerMap@@UAEPAXI@Z  004b9e20 f i Scene.obj
 0001:000b8e20       ??_GCLargerMap@@UAEPAXI@Z  004b9e20 f i Scene.obj
 0001:000b8e50       ??_ECMinimap@@UAEPAXI@Z    004b9e50 f i Scene.obj
 0001:000b8e50       ??_GCMinimap@@UAEPAXI@Z    004b9e50 f i Scene.obj
 0001:000b8f90       ?AddAniClock@CGameScene@@QAEPAVCAniClock@@XZ 004b9f90 f   Scene.obj
 0001:000b8fc0       ?AddAreaEff@CGameScene@@QAEXPAVCEffectObj@@@Z 004b9fc0 f   Scene.obj
 0001:000b9010       ?BeginUpdateSceneObjLight@CGameScene@@QAEHPBVCSceneObj@@H@Z 004ba010 f   Scene.obj
 0001:000b93e0       ?CreateEffect@CGameScene@@QAEPAVCEffectObj@@HHH_N@Z 004ba3e0 f   Scene.obj
 0001:000b9510       ?DelAreaEff@CGameScene@@QAE_NJH@Z 004ba510 f   Scene.obj
 0001:000b9660       ?EndUpdateSceneObjLight@CGameScene@@QAEHPBVCSceneObj@@@Z 004ba660 f   Scene.obj
 0001:000b96a0       ?GetCha@CGameScene@@QAEPAVCCharacter@@H@Z 004ba6a0 f   Scene.obj
 0001:000b96d0       ?GetEffect@CGameScene@@QAEPAVCEffectObj@@H@Z 004ba6d0 f   Scene.obj
 0001:000b9700       ?GetFirstInvalidEffObj@CGameScene@@QAEPAVCEffectObj@@XZ 004ba700 f   Scene.obj
 0001:000b9760       ?GetFirstInvalidShadeObj@CGameScene@@QAEPAVCShadeEff@@XZ 004ba760 f   Scene.obj
 0001:000b9790       ?GetIsBlockWalk@CGameScene@@QAE_NPAVCCharacter@@HH@Z 004ba790 f   Scene.obj
 0001:000b9890       ?GetMainChaPickRay@CGameScene@@QAEHPAUD3DXVECTOR3@@0@Z 004ba890 f   Scene.obj
 0001:000b9990       ?GetRawData@CRawDataSet@@QAEPAXHH@Z 004ba990 f i Scene.obj
 0001:000b9a70       ?GetSceneItem@CGameScene@@QAEPAVCSceneItem@@H@Z 004baa70 f   Scene.obj
 0001:000b9aa0       ?GetSceneObj@CGameScene@@QAEPAVCSceneObj@@H@Z 004baaa0 f   Scene.obj
 0001:000b9ad0       ?GetShadeObj@CGameScene@@QAEPAVCShadeEff@@H@Z 004baad0 f   Scene.obj
 0001:000b9b00       ?GetTerrainInfo@@YAPAVLETerrainInfo@@H@Z 004bab00 f i Scene.obj
 0001:000b9b50       ?GetTileTexAttr@CGameScene@@QAEEHH@Z 004bab50 f   Scene.obj
 0001:000b9bd0       ?HitSceneItemText@CGameScene@@QAEPAVCSceneItem@@HH@Z 004babd0 f   Scene.obj
 0001:000b9db0       ?HitTestCharacter@CGameScene@@QAEPAVCCharacter@@HH@Z 004badb0 f   Scene.obj
 0001:000b9f20       ?HitTestSceneObjChair@CGameScene@@QAEHPAUD3DXVECTOR3@@PAH1PBU2@2@Z 004baf20 f   Scene.obj
 0001:000ba090       ?HitTestSceneObjWall@CGameScene@@QAEHPAUD3DXVECTOR3@@PAHPBU2@2@Z 004bb090 f   Scene.obj
 0001:000ba1f0       ?IsPointVisible@CGameScene@@QAEHMM@Z 004bb1f0 f   Scene.obj
 0001:000ba230       ?LoadMap@CGameScene@@QAE_NPBD@Z 004bb230 f   Scene.obj
 0001:000ba760       ?LoadingCall@CGameScene@@UAEXXZ 004bb760 f   Scene.obj
 0001:000baa80       ?PlayEnvSound@CGameScene@@QAEXHH@Z 004bba80 f   Scene.obj
 0001:000bad50       ?PlayEnvSound@CGameScene@@SAXPADHHM@Z 004bbd50 f   Scene.obj
 0001:000bafc0       ?RefreshLevel@CGameScene@@QAEXXZ 004bbfc0 f   Scene.obj
 0001:000bb020       ?SearchByHumanID@CGameScene@@QAEPAVCCharacter@@K@Z 004bc020 f   Scene.obj
 0001:000bb060       ?SearchByHumanName@CGameScene@@QAEPAVCCharacter@@PBD@Z 004bc060 f   Scene.obj
 0001:000bb0f0       ?SearchByID@CGameScene@@QAEPAVCCharacter@@K@Z 004bc0f0 f   Scene.obj
 0001:000bb130       ?SearchItemByID@CGameScene@@QAEPAVCSceneItem@@K@Z 004bc130 f   Scene.obj
 0001:000bb170       ?SelectCharacter@CGameScene@@QAEPAVCCharacter@@XZ 004bc170 f   Scene.obj
 0001:000bb310       ?SetMainCha@CGameScene@@UAEXH@Z 004bc310 f   Scene.obj
 0001:000bb360       ?SetSoundSize@CGameScene@@SAXM@Z 004bc360 f   Scene.obj
 0001:000bb390       ?SetTextureLOD@CGameScene@@QAEHK@Z 004bc390 f   Scene.obj
 0001:000bb4e0       ?SetupVertexFog@CGameScene@@QAEXPAVdrIDeviceObject@LightEngine@@MMKKHM@Z 004bc4e0 f   Scene.obj
 0001:000bb560       ?ShowMinimap@CGameScene@@SAXH@Z 004bc560 f   Scene.obj
 0001:000bb5a0       ?SwitchMap@CGameScene@@QAE_NH@Z 004bc5a0 f   Scene.obj
 0001:000bb700       ?UpdateSceneAnimLight@CGameScene@@QAEHXZ 004bc700 f   Scene.obj
 0001:000bb760       ?_Buyheadnode@?$_Tree_comp_alloc@V?$_Tset_traits@PAVCSceneObj@@U?$less@PAVCSceneObj@@@std@@V?$allocator@PAVCSceneObj@@@3@$0A@@std@@@std@@QAEPAU?$_Tree_node@PAVCSceneObj@@PAX@2@XZ 004bc760 f i Scene.obj
 0001:000bb7e0       ?_Buynode0@?$_List_alloc@U?$_List_base_types@PAVCEffectObj@@V?$allocator@PAVCEffectObj@@@std@@@std@@@std@@QAEPAU?$_List_node@PAVCEffectObj@@PAX@2@PAU32@0@Z 004bc7e0 f i Scene.obj
 0001:000bb870       ?_Buynode0@?$_Tree_comp_alloc@V?$_Tset_traits@PAVCSceneObj@@U?$less@PAVCSceneObj@@@std@@V?$allocator@PAVCSceneObj@@@3@$0A@@std@@@std@@QAEPAU?$_Tree_node@PAVCSceneObj@@PAX@2@XZ 004bc870 f i Scene.obj
 0001:000bb900       ?_Buynode0@?$_Tree_comp_alloc@V?$_Tset_traits@UReallyBigObjectInfo@@U?$less@UReallyBigObjectInfo@@@std@@V?$allocator@UReallyBigObjectInfo@@@3@$0A@@std@@@std@@QAEPAU?$_Tree_node@UReallyBigObjectInfo@@PAX@2@XZ 004bc900 f i Scene.obj
 0001:000bb990       ?_Clear@CGameScene@@MAE_NXZ 004bc990 f   Scene.obj
 0001:000bb9b0       ?_ClearMemory@CGameScene@@AAE_NXZ 004bc9b0 f   Scene.obj
 0001:000bbbb0       ?_ClearScene@CGameScene@@KA_NXZ 004bcbb0 f   Scene.obj
 0001:000bbc50       ?_CreateChaArray@CGameScene@@IAEXH@Z 004bcc50 f   Scene.obj
 0001:000bbd90       ?_CreateEffectArray@CGameScene@@IAEXH@Z 004bcd90 f   Scene.obj
 0001:000bbec0       ?_CreateMemory@CGameScene@@AAE_NXZ 004bcec0 f   Scene.obj
 0001:000bc080       ?_CreateSceneItemArray@CGameScene@@IAEXH@Z 004bd080 f   Scene.obj
 0001:000bc1d0       ?_CreateSceneObjArray@CGameScene@@IAEXH@Z 004bd1d0 f   Scene.obj
 0001:000bc2d0       ?_Erase@?$_Tree@V?$_Tset_traits@PAVCSceneObj@@U?$less@PAVCSceneObj@@@std@@V?$allocator@PAVCSceneObj@@@3@$0A@@std@@@std@@IAEXPAU?$_Tree_node@PAVCSceneObj@@PAX@2@@Z 004bd2d0 f i Scene.obj
 0001:000bc310       ?_Freenode0@?$_Tree_comp_alloc@V?$_Tset_traits@PAVCSceneObj@@U?$less@PAVCSceneObj@@@std@@V?$allocator@PAVCSceneObj@@@3@$0A@@std@@@std@@QAEXPAU?$_Tree_node@PAVCSceneObj@@PAX@2@@Z 004bd310 f i Scene.obj
 0001:000bc330       ?_Freenode0@?$_Tree_comp_alloc@V?$_Tset_traits@UReallyBigObjectInfo@@U?$less@UReallyBigObjectInfo@@@std@@V?$allocator@UReallyBigObjectInfo@@@3@$0A@@std@@@std@@QAEXPAU?$_Tree_node@UReallyBigObjectInfo@@PAX@2@@Z 004bd330 f i Scene.obj
 0001:000bc350       ?_GetFirstInvalidCha@CGameScene@@IAEPAVCCharacter@@XZ 004bd350 f   Scene.obj
 0001:000bc3b0       ?_GetFirstInvalidSceneItem@CGameScene@@IAEPAVCSceneItem@@XZ 004bd3b0 f   Scene.obj
 0001:000bc410       ?_GetFirstInvalidSceneObj@CGameScene@@IAEPAVCSceneObj@@HAAH@Z 004bd410 f   Scene.obj
 0001:000bc480       ?_Getal@?$_Vector_alloc@U?$_Vec_base_types@HV?$allocator@H@std@@@std@@@std@@QAEAAV?$allocator@H@2@XZ 004bd480 f i Scene.obj
 0001:000bc490       ?_Getffld@?$num_get@DV?$istreambuf_iterator@DU?$char_traits@D@std@@@std@@@std@@ABAHPADAAV?$istreambuf_iterator@DU?$char_traits@D@std@@@2@1AAVios_base@2@PAH@Z 004bd490 f i Scene.obj
 0001:000bd030       ?_Getffldx@?$num_get@DV?$istreambuf_iterator@DU?$char_traits@D@std@@@std@@@std@@ABAHPADAAV?$istreambuf_iterator@DU?$char_traits@D@std@@@2@1AAVios_base@2@PAH@Z 004be030 f i Scene.obj
 0001:000bdc60       ?_Getifld@?$num_get@DV?$istreambuf_iterator@DU?$char_traits@D@std@@@std@@@std@@ABAHPADAAV?$istreambuf_iterator@DU?$char_traits@D@std@@@2@1HABVlocale@2@@Z 004bec60 f i Scene.obj
 0001:000be0f0       ?_HandleSuperKey@CGameScene@@MAE_NXZ 004bf0f0 f   Scene.obj
 0001:000be100       ?_Init@CGameScene@@MAE_NXZ 004bf100 f   Scene.obj
 0001:000be200       ?_InitScene@CGameScene@@KA_NXZ 004bf200 f   Scene.obj
 0001:000be320       ?_Lrotate@?$_Tree_val@U?$_Tree_simple_types@PAVCSceneObj@@@std@@@std@@QAEXPAU?$_Tree_node@PAVCSceneObj@@PAX@2@@Z 004bf320 f i Scene.obj
 0001:000be380       ?_Lrotate@?$_Tree_val@U?$_Tree_simple_types@UReallyBigObjectInfo@@@std@@@std@@QAEXPAU?$_Tree_node@UReallyBigObjectInfo@@PAX@2@@Z 004bf380 f i Scene.obj
 0001:000be3e0       ?_ReadRBO@CGameScene@@AAEXXZ 004bf3e0 f   Scene.obj
 0001:000be810       ?_RecordRBO@CGameScene@@AAEXXZ 004bf810 f   Scene.obj
 0001:000be9a0       ?_Rrotate@?$_Tree_val@U?$_Tree_simple_types@PAVCSceneObj@@@std@@@std@@QAEXPAU?$_Tree_node@PAVCSceneObj@@PAX@2@@Z 004bf9a0 f i Scene.obj
 0001:000bea00       ?_Rrotate@?$_Tree_val@U?$_Tree_simple_types@UReallyBigObjectInfo@@@std@@@std@@QAEXPAU?$_Tree_node@UReallyBigObjectInfo@@PAX@2@@Z 004bfa00 f i Scene.obj
 0001:000bea60       ?_UpdatePitch@CSceneObj@@MAEXXZ 004bfa60 f i Scene.obj
 0001:000bea90       ?_UpdateRoll@CSceneObj@@MAEXXZ 004bfa90 f i Scene.obj
 0001:000beac0       ?_UpdateYaw@CSceneObj@@MAEXXZ 004bfac0 f i Scene.obj
 0001:000beb00       ?_Xlength@?$vector@HV?$allocator@H@std@@@std@@CAXXZ 004bfb00 f i Scene.obj
 0001:000beb10       ?_Xlength@?$vector@PAXV?$allocator@PAX@std@@@std@@CAXXZ 004bfb10 f i Scene.obj
 0001:000beb20       ?clear@?$_Tree@V?$_Tset_traits@PAVCSceneObj@@U?$less@PAVCSceneObj@@@std@@V?$allocator@PAVCSceneObj@@@3@$0A@@std@@@std@@QAEXXZ 004bfb20 f i Scene.obj
 0001:000bebb0       ?deallocate@?$allocator@H@std@@QAEXQAHI@Z 004bfbb0 f i Scene.obj
 0001:000bebf0       ?deallocate@?$allocator@PAX@std@@QAEXQAPAXI@Z 004bfbf0 f i Scene.obj
 0001:000bec30       ?deallocate@?$allocator@U?$_List_node@PAVCEffectObj@@PAX@std@@@std@@QAEXQAU?$_List_node@PAVCEffectObj@@PAX@2@I@Z 004bfc30 f i Scene.obj
 0001:000bec70       ?deallocate@?$allocator@U?$_Tree_node@PAVCSceneObj@@PAX@std@@@std@@QAEXQAU?$_Tree_node@PAVCSceneObj@@PAX@2@I@Z 004bfc70 f i Scene.obj
 0001:000becb0       ?deallocate@?$allocator@U?$_Tree_node@UReallyBigObjectInfo@@PAX@std@@@std@@QAEXQAU?$_Tree_node@UReallyBigObjectInfo@@PAX@2@I@Z 004bfcb0 f i Scene.obj
 0001:000becf0       ?do_get@?$num_get@DV?$istreambuf_iterator@DU?$char_traits@D@std@@@std@@@std@@MBE?AV?$istreambuf_iterator@DU?$char_traits@D@std@@@2@V32@0AAVios_base@2@AAHAAG@Z 004bfcf0 f i Scene.obj
 0001:000bee50       ?do_get@?$num_get@DV?$istreambuf_iterator@DU?$char_traits@D@std@@@std@@@std@@MBE?AV?$istreambuf_iterator@DU?$char_traits@D@std@@@2@V32@0AAVios_base@2@AAHAAI@Z 004bfe50 f i Scene.obj
 0001:000bef90       ?do_get@?$num_get@DV?$istreambuf_iterator@DU?$char_traits@D@std@@@std@@@std@@MBE?AV?$istreambuf_iterator@DU?$char_traits@D@std@@@2@V32@0AAVios_base@2@AAHAAJ@Z 004bff90 f i Scene.obj
 0001:000bf0d0       ?do_get@?$num_get@DV?$istreambuf_iterator@DU?$char_traits@D@std@@@std@@@std@@MBE?AV?$istreambuf_iterator@DU?$char_traits@D@std@@@2@V32@0AAVios_base@2@AAHAAK@Z 004c00d0 f i Scene.obj
 0001:000bf210       ?do_get@?$num_get@DV?$istreambuf_iterator@DU?$char_traits@D@std@@@std@@@std@@MBE?AV?$istreambuf_iterator@DU?$char_traits@D@std@@@2@V32@0AAVios_base@2@AAHAAM@Z 004c0210 f i Scene.obj
 0001:000bf390       ?do_get@?$num_get@DV?$istreambuf_iterator@DU?$char_traits@D@std@@@std@@@std@@MBE?AV?$istreambuf_iterator@DU?$char_traits@D@std@@@2@V32@0AAVios_base@2@AAHAAN@Z 004c0390 f i Scene.obj
 0001:000bf500       ?do_get@?$num_get@DV?$istreambuf_iterator@DU?$char_traits@D@std@@@std@@@std@@MBE?AV?$istreambuf_iterator@DU?$char_traits@D@std@@@2@V32@0AAVios_base@2@AAHAAO@Z 004c0500 f i Scene.obj
 0001:000bf6d0       ?do_get@?$num_get@DV?$istreambuf_iterator@DU?$char_traits@D@std@@@std@@@std@@MBE?AV?$istreambuf_iterator@DU?$char_traits@D@std@@@2@V32@0AAVios_base@2@AAHAAPAX@Z 004c06d0 f i Scene.obj
 0001:000bf800       ?do_get@?$num_get@DV?$istreambuf_iterator@DU?$char_traits@D@std@@@std@@@std@@MBE?AV?$istreambuf_iterator@DU?$char_traits@D@std@@@2@V32@0AAVios_base@2@AAHAA_J@Z 004c0800 f i Scene.obj
 0001:000bf940       ?do_get@?$num_get@DV?$istreambuf_iterator@DU?$char_traits@D@std@@@std@@@std@@MBE?AV?$istreambuf_iterator@DU?$char_traits@D@std@@@2@V32@0AAVios_base@2@AAHAA_K@Z 004c0940 f i Scene.obj
 0001:000bfa80       ?do_get@?$num_get@DV?$istreambuf_iterator@DU?$char_traits@D@std@@@std@@@std@@MBE?AV?$istreambuf_iterator@DU?$char_traits@D@std@@@2@V32@0AAVios_base@2@AAHAA_N@Z 004c0a80 f i Scene.obj
 0001:000bfd30       ?get@?$num_get@DV?$istreambuf_iterator@DU?$char_traits@D@std@@@std@@@std@@QBE?AV?$istreambuf_iterator@DU?$char_traits@D@std@@@2@V32@0AAVios_base@2@AAHAAJ@Z 004c0d30 f i Scene.obj
 0001:000bfd60       ?get@?$num_get@DV?$istreambuf_iterator@DU?$char_traits@D@std@@@std@@@std@@QBE?AV?$istreambuf_iterator@DU?$char_traits@D@std@@@2@V32@0AAVios_base@2@AAHAAM@Z 004c0d60 f i Scene.obj
 0001:000bfd90       ?getloc@ios_base@std@@QBE?AVlocale@2@XZ 004c0d90 f i Scene.obj
 0001:000bfdf0       ?put@?$num_put@DV?$ostreambuf_iterator@DU?$char_traits@D@std@@@std@@@std@@QBE?AV?$ostreambuf_iterator@DU?$char_traits@D@std@@@2@V32@AAVios_base@2@DN@Z 004c0df0 f i Scene.obj
 0001:000bfe20       ?putback@?$basic_istream@DU?$char_traits@D@std@@@std@@QAEAAV12@D@Z 004c0e20 f i Scene.obj
 0001:000bfff0       ?scene_OnLostDevice@@YAJXZ 004c0ff0 f   Scene.obj
 0001:000c0090       ?scene_OnResetDevice@@YAJXZ 004c1090 f   Scene.obj
 0001:000c0270       ?sputbackc@?$basic_streambuf@DU?$char_traits@D@std@@@std@@QAEHD@Z 004c1270 f i Scene.obj
 0001:000c02b0       ?AddBoat@CGameScene@@QAEPAVCCharacter@@AAUstNetChangeChaPart@@@Z 004c12b0 f   SceneCreateNode.obj
 0001:000c0410       ?AddCharacter@CGameScene@@QAEPAVCCharacter@@H@Z 004c1410 f   SceneCreateNode.obj
 0001:000c0980       ?AddSceneEffect@CGameScene@@QAEPAVCEffectObj@@H@Z 004c1980 f   SceneCreateNode.obj
 0001:000c0a40       ?AddSceneItem@CGameScene@@QAEPAVCSceneItem@@HH@Z 004c1a40 f   SceneCreateNode.obj
 0001:000c0ac0       ?AddSceneItem@CGameScene@@QAEPAVCSceneItem@@PBD@Z 004c1ac0 f   SceneCreateNode.obj
 0001:000c0b50       ?AddSceneObj@CGameScene@@QAEPAVCSceneObj@@H@Z 004c1b50 f   SceneCreateNode.obj
 0001:000c0d10       ?_CreateNode@CSceneNode@@AAEHHHPAVCGameScene@@@Z 004c1d10 f i SceneCreateNode.obj
 0001:000c0d90       ?_FrameMove@CGameScene@@MAEXK@Z 004c1d90 f   SceneFrameMove.obj
 0001:000c11e0       ??0CSceneItem@@QAE@XZ      004c21e0 f   SceneItem.obj
 0001:000c1310       ??1CSceneItem@@UAE@XZ      004c2310 f   SceneItem.obj
 0001:000c13af       ??_ECSceneItem@@WCI@AEPAXI@Z 004c23af f i SceneItem.obj
 0001:000c13c0       ?ClearItemLit@@YAHXZ       004c23c0 f   SceneItem.obj
 0001:000c13d0       ?FrameMove@CSceneItem@@UAEXK@Z 004c23d0 f   SceneItem.obj
 0001:000c15b0       ?GetItemHeight@CSceneItem@@QAE_NPAM@Z 004c25b0 f   SceneItem.obj
 0001:000c15d0       ?GetRunTimeMatrix@CSceneItem@@MAE_NPAUD3DXMATRIX@@K@Z 004c25d0 f i SceneItem.obj
 0001:000c15f0       ?InitItemLit@@YAHPBD@Z     004c25f0 f   SceneItem.obj
 0001:000c1620       ?IsHitText@CSceneItem@@QAE_NHH@Z 004c2620 f   SceneItem.obj
 0001:000c16d0       ?LitResetTexture@CSceneItem@@QAEJKK@Z 004c26d0 f   SceneItem.obj
 0001:000c1970       ?LitUnresetTexture@CSceneItem@@QAEJXZ 004c2970 f   SceneItem.obj
 0001:000c19b0       ?Load@CSceneItem@@QAEHPBD@Z 004c29b0 f   SceneItem.obj
 0001:000c1a70       ?PlayArcAni@CSceneItem@@QAEXUD3DXVECTOR3@@0MM@Z 004c2a70 f   SceneItem.obj
 0001:000c1b10       ?Render@CSceneItem@@UAEXXZ 004c2b10 f   SceneItem.obj
 0001:000c1b70       ?RenderUI@CSceneItem@@QAEXXZ 004c2b70 f   SceneItem.obj
 0001:000c1c80       ?SetForgeEffect@CSceneItem@@QAEXKH@Z 004c2c80 f   SceneItem.obj
 0001:000c1ef0       ?SetHide@CSceneItem@@QAEXH@Z 004c2ef0 f   SceneItem.obj
 0001:000c1f40       ?_Create@CSceneItem@@EAEHHH@Z 004c2f40 f   SceneItem.obj
 0001:000c21c0       ?_UpdateHeight@CSceneItem@@MAEXXZ 004c31c0 f   SceneItem.obj
 0001:000c2280       ?_UpdatePitch@CSceneItem@@MAEXXZ 004c3280 f i SceneItem.obj
 0001:000c22b0       ?_UpdatePos@CSceneItem@@MAEXXZ 004c32b0 f   SceneItem.obj
 0001:000c2370       ?_UpdateRoll@CSceneItem@@MAEXXZ 004c3370 f i SceneItem.obj
 0001:000c23a0       ?_UpdateValid@CSceneItem@@MAEXH@Z 004c33a0 f   SceneItem.obj
 0001:000c23f0       ?_UpdateYaw@CSceneItem@@MAEXXZ 004c33f0 f i SceneItem.obj
 0001:000c2430       ?bindEffect@CSceneItem@@QAEPAVCEffectObj@@HH_NH@Z 004c3430 f   SceneItem.obj
 0001:000c2550       ?setAlpla@CSceneItem@@QAEXM@Z 004c3550 f   SceneItem.obj
 0001:000c2580       ?setEvent@CSceneItem@@UAEXPAVCEvent@@@Z 004c3580 f i SceneItem.obj
 0001:000c2590       ?setIsShowName@CSceneItem@@QAEX_N@Z 004c3590 f   SceneItem.obj
 0001:000c25f0       ?unbindEffect@CSceneItem@@QAEXXZ 004c35f0 f   SceneItem.obj
 0001:000c2630       ?SetData@AnimCtrlLight@@QAEXPAUIndexDataSceneLight@@K@Z 004c3630 f   SceneLight.obj
 0001:000c27a0       ?UpdateAnimLight@SceneLight@@QAEHXZ 004c37a0 f   SceneLight.obj
 0001:000c27c0       ?UpdateObject@AnimCtrlLight@@QAEHPAUSceneLight@@@Z 004c37c0 f   SceneLight.obj
 0001:000c2a70       ??$find@V?$_List_iterator@V?$_List_val@U?$_List_simple_types@H@std@@@std@@@std@@H@std@@YA?AV?$_List_iterator@V?$_List_val@U?$_List_simple_types@H@std@@@std@@@0@V10@V10@ABH@Z 004c3a70 f i SceneMsg.obj
 0001:000c2aa0       ?GetLightID@CEffectObj@@QAEHXZ 004c3aa0 f i SceneMsg.obj
 0001:000c2ac0       ?GetMagicInfo@@YAPAVCMagicInfo@@H@Z 004c3ac0 f i SceneMsg.obj
 0001:000c2b10       ?HandleSceneMsg@CGameScene@@QAEXHHHH@Z 004c3b10 f   SceneMsg.obj
 0001:000c3740       ?push_back@?$list@HV?$allocator@H@std@@@std@@QAEXABH@Z 004c4740 f i SceneMsg.obj
 0001:000c3790       ??0CSceneNode@@IAE@XZ      004c4790 f   SceneNode.obj
 0001:000c38b0       ?SetShadeShow@CSceneNode@@QAEXH_N@Z 004c48b0 f   SceneNode.obj
 0001:000c38f0       ??0CSceneObj@@QAE@XZ       004c48f0 f   SceneObj.obj
 0001:000c3a50       ?ClearLight@CSceneObj@@QAEXXZ 004c4a50 f   SceneObj.obj
 0001:000c3ae0       ?FrameMove@CSceneObj@@UAEXK@Z 004c4ae0 f   SceneObj.obj
 0001:000c3b50       ?GetObjTileColor@CSceneObj@@QAEKXZ 004c4b50 f   SceneObj.obj
 0001:000c3b90       ?IsBoxVisible@CSceneObj@@QAE_NUD3DXVECTOR3@@0AAK@Z 004c4b90 f   SceneObj.obj
 0001:000c40b0       ?IsBoxVisible_LineWithPlane@CSceneObj@@QAE_NUD3DXVECTOR3@@0AAK@Z 004c50b0 f   SceneObj.obj
 0001:000c4d20       ?MoveLight@CSceneObj@@QAEXPAUD3DXVECTOR3@@@Z 004c5d20 f   SceneObj.obj
 0001:000c5060       ?Render@CSceneObj@@UAEXXZ  004c6060 f   SceneObj.obj
 0001:000c5350       ?Reset@SceneLight@@QAEXXZ  004c6350 f i SceneObj.obj
 0001:000c53b0       ?SetSceneLightInfo@CSceneObj@@QAEXH@Z 004c63b0 f   SceneObj.obj
 0001:000c5570       ?UpdateLight@CSceneObj@@QAEXXZ 004c6570 f   SceneObj.obj
 0001:000c56f0       ?UpdateObjFadeInFadeOut@CSceneObj@@QAEHPBUD3DXVECTOR3@@0@Z 004c66f0 f   SceneObj.obj
 0001:000c5900       ?_Create@CSceneObj@@EAEHHH@Z 004c6900 f   SceneObj.obj
 0001:000c5a40       ?_UpdateHeight@CSceneObj@@MAEXXZ 004c6a40 f   SceneObj.obj
 0001:000c5ae0       ?_UpdatePos@CSceneObj@@MAEXXZ 004c6ae0 f   SceneObj.obj
 0001:000c5be0       ?_UpdateValid@CSceneObj@@MAEXH@Z 004c6be0 f   SceneObj.obj
 0001:000c5c30       ??1?$_Tree@V?$_Tset_traits@UReallyBigObjectInfo@@U?$less@UReallyBigObjectInfo@@@std@@V?$allocator@UReallyBigObjectInfo@@@3@$0A@@std@@@std@@QAE@XZ 004c6c30 f i SceneObjFile.obj
 0001:000c5c90       ??1?$_Tree_comp_alloc@V?$_Tset_traits@UReallyBigObjectInfo@@U?$less@UReallyBigObjectInfo@@@std@@V?$allocator@UReallyBigObjectInfo@@@3@$0A@@std@@@std@@QAE@XZ 004c6c90 f i SceneObjFile.obj
 0001:000c5cd0       ??1?$set@UReallyBigObjectInfo@@U?$less@UReallyBigObjectInfo@@@std@@V?$allocator@UReallyBigObjectInfo@@@3@@std@@QAE@XZ 004c6cd0 f i SceneObjFile.obj
 0001:000c5d30       ??E?$_Tree_const_iterator@V?$_Tree_val@U?$_Tree_simple_types@UReallyBigObjectInfo@@@std@@@std@@@std@@QAEAAV01@XZ 004c6d30 f i SceneObjFile.obj
 0001:000c5d90       ?ConvertObjFileVer@CSceneObjFile@@QAEJPAD_N@Z 004c6d90 f   SceneObjFile.obj
 0001:000c62f0       ?Init@CSceneObjFile@@QAEJPAD_N@Z 004c72f0 f   SceneObjFile.obj
 0001:000c6940       ?ReadSectionObjInfo@CSceneObjFile@@QAEJHPAUSSceneObjInfo@@PAJ@Z 004c7940 f   SceneObjFile.obj
 0001:000c6a20       ?TrimDirectory@CSceneObjFile@@QAEJPAD_N@Z 004c7a20 f   SceneObjFile.obj
 0001:000c6e80       ?TrimFile@CSceneObjFile@@QAEJPAD_N@Z 004c7e80 f   SceneObjFile.obj
 0001:000c7290       ?WriteSectionObjInfo@CSceneObjFile@@QAEJHPAUSSceneObjInfo@@J@Z 004c8290 f   SceneObjFile.obj
 0001:000c7450       ?_Buyheadnode@?$_Tree_comp_alloc@V?$_Tset_traits@UReallyBigObjectInfo@@U?$less@UReallyBigObjectInfo@@@std@@V?$allocator@UReallyBigObjectInfo@@@3@$0A@@std@@@std@@QAEPAU?$_Tree_node@UReallyBigObjectInfo@@PAX@2@XZ 004c8450 f i SceneObjFile.obj
 0001:000c74d0       ?_Erase@?$_Tree@V?$_Tset_traits@UReallyBigObjectInfo@@U?$less@UReallyBigObjectInfo@@@std@@V?$allocator@UReallyBigObjectInfo@@@3@$0A@@std@@@std@@IAEXPAU?$_Tree_node@UReallyBigObjectInfo@@PAX@2@@Z 004c84d0 f i SceneObjFile.obj
 0001:000c7510       ?clear@?$_Tree@V?$_Tset_traits@UReallyBigObjectInfo@@U?$less@UReallyBigObjectInfo@@@std@@V?$allocator@UReallyBigObjectInfo@@@3@$0A@@std@@@std@@QAEXXZ 004c8510 f i SceneObjFile.obj
 0001:000c75a0       ?end_RBO@CSceneObjFile@@QAEXXZ 004c85a0 f   SceneObjFile.obj
 0001:000c76e0       ?RenderEffectMap@CGameScene@@QAEXXZ 004c86e0 f   SceneRender.obj
 0001:000c7740       ?RenderSMallMap@CGameScene@@QAEXXZ 004c8740 f   SceneRender.obj
 0001:000c7f90       ?_Render@CGameScene@@MAEXXZ 004c8f90 f   SceneRender.obj
 0001:000c9100       ?_RenderUI@CGameScene@@MAEXXZ 004ca100 f   SceneRender.obj
 0001:000c91d0       ?__SceneTranspObjRenderProc@@YAJPAVdrIPrimitive@LightEngine@@PAX@Z 004ca1d0 f   SceneRender.obj
 0001:000c93d0       ?CHA_SetClientAttr@@YAHHHMM@Z 004ca3d0 f   SceneScript.obj
 0001:000c9410       ?CameraEnableRotate@@YAHHH@Z 004ca410 f   SceneScript.obj
 0001:000c9430       ?CameraRangeFOV@@YAHHMM@Z  004ca430 f   SceneScript.obj
 0001:000c9460       ?CameraRangeXY@@YAHHMM@Z   004ca460 f   SceneScript.obj
 0001:000c9490       ?CameraRangeZ@@YAHHMM@Z    004ca490 f   SceneScript.obj
 0001:000c94c0       ?CameraShowSize1024@@YAHHHH@Z 004ca4c0 f   SceneScript.obj
 0001:000c94f0       ?CameraShowSize@@YAHHHH@Z  004ca4f0 f   SceneScript.obj
 0001:000c9520       ?MPInitLua_Scene1024@@YAXXZ 004ca520 f   SceneScript.obj
 0001:000c9660       ?MPInitLua_Scene@@YAXXZ    004ca660 f   SceneScript.obj
 0001:000c97a0       ?SN_CreateScene@@YAHHPAD0HHHHH@Z 004ca7a0 f   SceneScript.obj
 0001:000c9910       ?SN_SetAttackChaColor@@YAHHHH@Z 004ca910 f   SceneScript.obj
 0001:000c9930       ?SN_SetIsShow3DCursor@@YAHH@Z 004ca930 f   SceneScript.obj
 0001:000c9950       ?SN_SetIsShowMinimap@@YAHH@Z 004ca950 f   SceneScript.obj
 0001:000c9970       ?SN_SetTerrainShowCenter@@YAHHHH@Z 004ca970 f   SceneScript.obj
 0001:000c99e0       ??0CSceneSign@@QAE@XZ      004ca9e0 f   SceneSign.obj
 0001:000c9a00       ??1CSceneSign@@QAE@XZ      004caa00 f   SceneSign.obj
 0001:000c9a10       ?FrameMove@CSceneSign@@QAEXK@Z 004caa10 f   SceneSign.obj
 0001:000c9b40       ?Hide@CSceneSign@@QAEXXZ   004cab40 f   SceneSign.obj
 0001:000c9bb0       ?Init@CSceneSign@@QAE_NPAVCGameScene@@@Z 004cabb0 f   SceneSign.obj
 0001:000c9d00       ?Show@CSceneSign@@QAEXHHH@Z 004cad00 f   SceneSign.obj
 0001:000c9da0       ?Show@CSceneSign@@QAEXPAVCCharacter@@@Z 004cada0 f   SceneSign.obj
 0001:000c9f50       ??0CScript@@QAE@XZ         004caf50 f   Script.obj
 0001:000ca080       ??0CScriptMgr@@QAE@XZ      004cb080 f   Script.obj
 0001:000ca090       ??1CScript@@UAE@XZ         004cb090 f   Script.obj
 0001:000ca120       ??1CScriptMgr@@QAE@XZ      004cb120 f   Script.obj
 0001:000ca160       ??_ECScript@@UAEPAXI@Z     004cb160 f i Script.obj
 0001:000ca160       ??_GCScript@@UAEPAXI@Z     004cb160 f i Script.obj
 0001:000ca200       ?Clear@CScriptMgr@@QAE_NXZ 004cb200 f   Script.obj
 0001:000ca240       ?DoString@CScriptMgr@@QAA_NPBD0ZZ 004cb240 f   Script.obj
 0001:000ca6a0       ?Init@CScriptMgr@@QAE_NXZ  004cb6a0 f   Script.obj
 0001:000ca7a0       ?LoadScript@CScriptMgr@@QAE_NXZ 004cb7a0 f   Script.obj
 0001:000ca7c0       ??0SehExceptionAccessViolation@@QAE@ABV0@@Z 004cb7c0 f i SehException.obj
 0001:000ca820       ??0SehExceptionAccessViolation@@QAE@QAU_EXCEPTION_POINTERS@@V?$basic_string@DU?$char_traits@D@std@@V?$allocator@D@2@@std@@@Z 004cb820 f i SehException.obj
 0001:000ca8b0       ??0SehExceptionBase@@QAE@ABV0@@Z 004cb8b0 f i SehException.obj
 0001:000ca970       ??0SehExceptionBase@@QAE@QAU_EXCEPTION_POINTERS@@V?$basic_string@DU?$char_traits@D@std@@V?$allocator@D@2@@std@@@Z 004cb970 f i SehException.obj
 0001:000caa30       ??0SehExceptionDivideByZero@@QAE@ABV0@@Z 004cba30 f i SehException.obj
 0001:000caa90       ??0SehExceptionDivideByZero@@QAE@QAU_EXCEPTION_POINTERS@@V?$basic_string@DU?$char_traits@D@std@@V?$allocator@D@2@@std@@@Z 004cba90 f i SehException.obj
 0001:000cab20       ??0SehExceptionInvalidHandle@@QAE@ABV0@@Z 004cbb20 f i SehException.obj
 0001:000cab80       ??0SehExceptionInvalidHandle@@QAE@QAU_EXCEPTION_POINTERS@@V?$basic_string@DU?$char_traits@D@std@@V?$allocator@D@2@@std@@@Z 004cbb80 f i SehException.obj
 0001:000cac10       ??1?$basic_iostream@DU?$char_traits@D@std@@@std@@UAE@XZ 004cbc10 f i SehException.obj
 0001:000cacb0       ??1SehExceptionAccessViolation@@UAE@XZ 004cbcb0 f i SehException.obj
 0001:000cad30       ??1SehExceptionBase@@UAE@XZ 004cbd30 f i SehException.obj
 0001:000cada0       ??1SehExceptionDivideByZero@@UAE@XZ 004cbda0 f i SehException.obj
 0001:000cae20       ??1SehExceptionInvalidHandle@@UAE@XZ 004cbe20 f i SehException.obj
 0001:000caea0       ??6?$basic_ostream@DU?$char_traits@D@std@@@std@@QAEAAV01@K@Z 004cbea0 f i SehException.obj
 0001:000cb070       ??_D?$basic_stringstream@DU?$char_traits@D@std@@V?$allocator@D@2@@std@@QAEXXZ 004cc070 f i SehException.obj
 0001:000cb102       ??_E?$basic_iostream@DU?$char_traits@D@std@@@std@@$4PPPPPPPM@A@AEPAXI@Z 004cc102 f i SehException.obj
 0001:000cb10a       ??_E?$basic_stringstream@DU?$char_traits@D@std@@V?$allocator@D@2@@std@@$4PPPPPPPM@A@AEPAXI@Z 004cc10a f i SehException.obj
 0001:000cb120       ??_G?$basic_iostream@DU?$char_traits@D@std@@@std@@UAEPAXI@Z 004cc120 f i SehException.obj
 0001:000cb120       ??_E?$basic_iostream@DU?$char_traits@D@std@@@std@@UAEPAXI@Z 004cc120 f i SehException.obj
 0001:000cb1a0       ??_E?$basic_stringstream@DU?$char_traits@D@std@@V?$allocator@D@2@@std@@UAEPAXI@Z 004cc1a0 f i SehException.obj
 0001:000cb1a0       ??_G?$basic_stringstream@DU?$char_traits@D@std@@V?$allocator@D@2@@std@@UAEPAXI@Z 004cc1a0 f i SehException.obj
 0001:000cb1d0       ??_ESehExceptionAccessViolation@@UAEPAXI@Z 004cc1d0 f i SehException.obj
 0001:000cb1d0       ??_GSehExceptionAccessViolation@@UAEPAXI@Z 004cc1d0 f i SehException.obj
 0001:000cb260       ??_ESehExceptionBase@@UAEPAXI@Z 004cc260 f i SehException.obj
 0001:000cb260       ??_GSehExceptionBase@@UAEPAXI@Z 004cc260 f i SehException.obj
 0001:000cb2e0       ??_ESehExceptionDivideByZero@@UAEPAXI@Z 004cc2e0 f i SehException.obj
 0001:000cb2e0       ??_GSehExceptionDivideByZero@@UAEPAXI@Z 004cc2e0 f i SehException.obj
 0001:000cb370       ??_ESehExceptionInvalidHandle@@UAEPAXI@Z 004cc370 f i SehException.obj
 0001:000cb370       ??_GSehExceptionInvalidHandle@@UAEPAXI@Z 004cc370 f i SehException.obj
 0001:000cb400       ?GetContext@SehExceptionBase@@UBEABU_CONTEXT@@XZ 004cc400 f i SehException.obj
 0001:000cb410       ?GetExceptionRecord@SehExceptionBase@@UBEABU_EXCEPTION_RECORD@@XZ 004cc410 f i SehException.obj
 0001:000cb420       ?GetRegisterInfo@SehExceptionBase@@QAE?AV?$basic_string@DU?$char_traits@D@std@@V?$allocator@D@2@@std@@XZ 004cc420 f   SehException.obj
 0001:000cb5e0       ?InitializeSehTranslator@SehExceptionBase@@SAXXZ 004cc5e0 f   SehException.obj
 0001:000cb640       ?InvalidParameterHandler@@YGXPB_W00II@Z 004cc640 f   SehException.obj
 0001:000cb710       ?MyDump@@YA?AV?$basic_string@DU?$char_traits@D@std@@V?$allocator@D@2@@std@@PADPAXH@Z 004cc710 f   SehException.obj
 0001:000cb940       ?TransFunc@SehExceptionBase@@SAXIPAU_EXCEPTION_POINTERS@@@Z 004cc940 f   SehException.obj
 0001:000cba70       ?UnExcept@@YGJPAU_EXCEPTION_POINTERS@@@Z 004cca70 f   SehException.obj
 0001:000cbb20       ?_exception_code@SehExceptionBase@@UBEKXZ 004ccb20 f i SehException.obj
 0001:000cbb30       ?name@SehExceptionBase@@SA?AV?$basic_string@DU?$char_traits@D@std@@V?$allocator@D@2@@std@@K@Z 004ccb30 f   SehException.obj
 0001:000cc0b0       ?what@SehExceptionBase@@UBEPBDXZ 004cd0b0 f i SehException.obj
 0001:000cc0c0       ??$?HDU?$char_traits@D@std@@V?$allocator@D@1@@std@@YA?AV?$basic_string@DU?$char_traits@D@std@@V?$allocator@D@2@@0@$$QAV10@0@Z 004cd0c0 f i SelectChaScene.obj
 0001:000cc1c0       ??$?HDU?$char_traits@D@std@@V?$allocator@D@1@@std@@YA?AV?$basic_string@DU?$char_traits@D@std@@V?$allocator@D@2@@0@$$QAV10@ABV10@@Z 004cd1c0 f i SelectChaScene.obj
 0001:000cc260       ??$_Emplace_reallocate@ABQAUChaFont@CSelectChaScene@@@?$vector@PAUChaFont@CSelectChaScene@@V?$allocator@PAUChaFont@CSelectChaScene@@@std@@@std@@QAEPAPAUChaFont@CSelectChaScene@@QAPAU23@ABQAU23@@Z 004cd260 f i SelectChaScene.obj
 0001:000cc420       ??$_Emplace_reallocate@H@?$vector@HV?$allocator@H@std@@@std@@QAEPAHQAH$$QAH@Z 004cd420 f i SelectChaScene.obj
 0001:000cc5e0       ??0CSelectChaScene@@QAE@AAUstSceneInitParam@@@Z 004cd5e0 f   SelectChaScene.obj
 0001:000cca10       ??0ChaFont@CSelectChaScene@@QAE@XZ 004cda10 f i SelectChaScene.obj
 0001:000ccaa0       ??1?$vector@PAUChaFont@CSelectChaScene@@V?$allocator@PAUChaFont@CSelectChaScene@@@std@@@std@@QAE@XZ 004cdaa0 f i SelectChaScene.obj
 0001:000ccb30       ??_ECSelectChaScene@@UAEPAXI@Z 004cdb30 f i SelectChaScene.obj
 0001:000ccb30       ??_GCSelectChaScene@@UAEPAXI@Z 004cdb30 f i SelectChaScene.obj
 0001:000ccc30       ?CreateCha@CSelectChaScene@@QAE_NABV?$basic_string@DU?$char_traits@D@std@@V?$allocator@D@2@@std@@HPAUstNetChangeChaPart@@@Z 004cdc30 f   SelectChaScene.obj
 0001:000ccdf0       ?DelCurrentSelCha@CSelectChaScene@@QAEXXZ 004cddf0 f   SelectChaScene.obj
 0001:000cce60       ?GetChaCount@CSelectChaScene@@QAEHXZ 004cde60 f   SelectChaScene.obj
 0001:000cce90       ?GetCurrScene@CSelectChaScene@@SAAAV1@XZ 004cde90 f   SelectChaScene.obj
 0001:000cceb0       ?LoadingCall@CSelectChaScene@@UAEXXZ 004cdeb0 f   SelectChaScene.obj
 0001:000cd000       ?SelectChaError@CSelectChaScene@@QAEXHPBD@Z 004ce000 f   SelectChaScene.obj
 0001:000cd050       ?SelectCharacters@CSelectChaScene@@QAE_NPAUNetChaBehave@@H@Z 004ce050 f   SelectChaScene.obj
 0001:000cd1e0       ?SendDelChaToServer@CSelectChaScene@@QAEXQBD@Z 004ce1e0 f   SelectChaScene.obj
 0001:000cd210       ?SetMainCha@CSelectChaScene@@UAEXH@Z 004ce210 f   SelectChaScene.obj
 0001:000cd220       ?ShowWelcomeNotice@CSelectChaScene@@QAEX_N@Z 004ce220 f   SelectChaScene.obj
 0001:000cd240       ?UpdateButton@CSelectChaScene@@QAEXXZ 004ce240 f   SelectChaScene.obj
 0001:000cd2f0       ?_Clear@CSelectChaScene@@MAE_NXZ 004ce2f0 f   SelectChaScene.obj
 0001:000cd380       ?_Erase@?$_Tree@V?$_Tmap_traits@HKU?$less@H@std@@V?$allocator@U?$pair@$$CBHK@std@@@2@$0A@@std@@@std@@IAEXPAU?$_Tree_node@U?$pair@$$CBHK@std@@PAX@2@@Z 004ce380 f i SelectChaScene.obj
 0001:000cd3c0       ?_FrameMove@CSelectChaScene@@MAEXK@Z 004ce3c0 f   SelectChaScene.obj
 0001:000cd3d0       ?_Init@CSelectChaScene@@MAE_NXZ 004ce3d0 f   SelectChaScene.obj
 0001:000cd960       ?_InitUI@CSelectChaScene@@QAE_NXZ 004ce960 f   SelectChaScene.obj
 0001:000cdb90       ?_KeyDownEvent@CSelectChaScene@@MAEXH@Z 004ceb90 f   SelectChaScene.obj
 0001:000cdc00       ?_MouseButtonDB@CSelectChaScene@@MAE_NH@Z 004cec00 f   SelectChaScene.obj
 0001:000cdc50       ?_MouseButtonDown@CSelectChaScene@@MAE_NH@Z 004cec50 f   SelectChaScene.obj
 0001:000cdde0       ?_Render@CSelectChaScene@@MAEXXZ 004cede0 f   SelectChaScene.obj
 0001:000ce0c0       ?_RenderUI@CSelectChaScene@@MAEXXZ 004cf0c0 f   SelectChaScene.obj
 0001:000ceb20       ?_SelChaFrmMouseEvent@CSelectChaScene@@KAXPAVCCompent@GUI@@HHHK@Z 004cfb20 f   SelectChaScene.obj
 0001:000ceea0       ?_Xlength@?$vector@PAUChaFont@CSelectChaScene@@V?$allocator@PAUChaFont@CSelectChaScene@@@std@@@std@@CAXXZ 004cfea0 f i SelectChaScene.obj
 0001:000ceeb0       ?_evtChaNameAlterMouseEvent@CSelectChaScene@@KAXPAVCCompent@GUI@@HHHK@Z 004cfeb0 f   SelectChaScene.obj
 0001:000cefb0       ?_evtCreateOKNoticeEvent@CSelectChaScene@@KAXPAVCCompent@GUI@@HHHK@Z 004cffb0 f   SelectChaScene.obj
 0001:000cf0b0       ?_evtWelcomeNoticeEvent@CSelectChaScene@@KAXPAVCCompent@GUI@@HHHK@Z 004d00b0 f   SelectChaScene.obj
 0001:000cf1b0       ?deallocate@?$allocator@PAUChaFont@CSelectChaScene@@@std@@QAEXQAPAUChaFont@CSelectChaScene@@I@Z 004d01b0 f i SelectChaScene.obj
 0001:000cf1f0       ??$_Resize@V<lambda_3edcca8e3ef09e6a7858a0099e2569f4>@@@?$vector@PAVdrITex@LightEngine@@V?$allocator@PAVdrITex@LightEngine@@@std@@@std@@AAEXIV<lambda_3edcca8e3ef09e6a7858a0099e2569f4>@@@Z 004d01f0 f i SMallMap.obj
 0001:000cf3c0       ??$_Resize@V<lambda_41cf2654fb7f54282f884164b4804166>@@@?$vector@KV?$allocator@K@std@@@std@@AAEXIV<lambda_41cf2654fb7f54282f884164b4804166>@@@Z 004d03c0 f i SMallMap.obj
 0001:000cf590       ??$_Resize@V<lambda_7888a2ea41a3303f2d4a262c9820e4b1>@@@?$vector@UtagRECT@@V?$allocator@UtagRECT@@@std@@@std@@AAEXIV<lambda_7888a2ea41a3303f2d4a262c9820e4b1>@@@Z 004d0590 f i SMallMap.obj
 0001:000cf770       ??0CAniClock@@QAE@XZ       004d0770 f   SMallMap.obj
 0001:000cf790       ??0CBigMap@@QAE@XZ         004d0790 f   SMallMap.obj
 0001:000cfc80       ??0CCharacter2D@@QAE@XZ    004d0c80 f   SMallMap.obj
 0001:000cfd70       ??0CSMallWnd@@QAE@XZ       004d0d70 f   SMallMap.obj
 0001:000cfda0       ??0Ctemp@@QAE@XZ           004d0da0 f   SMallMap.obj
 0001:000cfe30       ??1CAniClock@@QAE@XZ       004d0e30 f   SMallMap.obj
 0001:000cfe80       ??1CBigMap@@QAE@XZ         004d0e80 f   SMallMap.obj
 0001:000cff10       ??1CCharacter2D@@QAE@XZ    004d0f10 f   SMallMap.obj
 0001:000cff40       ??1CSMallWnd@@UAE@XZ       004d0f40 f   SMallMap.obj
 0001:000cffc0       ??1Ctemp@@QAE@XZ           004d0fc0 f   SMallMap.obj
 0001:000d0010       ??R<lambda_7888a2ea41a3303f2d4a262c9820e4b1>@@QBEPAUtagRECT@@PAU1@I@Z 004d1010 f i SMallMap.obj
 0001:000d0050       ??_GCSMallWnd@@UAEPAXI@Z   004d1050 f i SMallMap.obj
 0001:000d0050       ??_ECSMallWnd@@UAEPAXI@Z   004d1050 f i SMallMap.obj
 0001:000d00f0       ?Create@CAniClock@@QAE_NHK@Z 004d10f0 f   SMallMap.obj
 0001:000d0490       ?Create@CCharacter2D@@QAEXUtagRECT@@@Z 004d1490 f   SMallMap.obj
 0001:000d0550       ?Create@CSMallWnd@@QAE_NPAUIDirect3DDevice8@@UtagRECT@@PAVCGameScene@@H@Z 004d1550 f   SMallMap.obj
 0001:000d0690       ?FrameMove@CAniClock@@UAEXK@Z 004d1690 f   SMallMap.obj
 0001:000d09a0       ?FrameMove@CSMallWnd@@UAEXK@Z 004d19a0 f   SMallMap.obj
 0001:000d09b0       ?GetTex@CMiniPack@@QAEXPAPAVdrITex@LightEngine@@HH@Z 004d19b0 f i SMallMap.obj
 0001:000d0aa0       ?Init@CSMNpc@@QAEHXZ       004d1aa0 f i SMallMap.obj
 0001:000d0d20       ?InitScene@CLargerMap@@MAEXXZ 004d1d20 f   SMallMap.obj
 0001:000d11f0       ?InitScene@CMinimap@@MAEXXZ 004d21f0 f   SMallMap.obj
 0001:000d1590       ?InitScene@CSMallWnd@@MAEXXZ 004d2590 f i SMallMap.obj
 0001:000d15a0       ?LoadCha@CCharacter2D@@QAEXK@Z 004d25a0 f   SMallMap.obj
 0001:000d19f0       ?MoveTo@CSMallWnd@@QAEXAAUD3DXVECTOR3@@0MMH@Z 004d29f0 f   SMallMap.obj
 0001:000d1ac0       ?Play@CAniClock@@QAEXK@Z   004d2ac0 f   SMallMap.obj
 0001:000d1ae0       ?Render@CAniClock@@QAEXHH@Z 004d2ae0 f   SMallMap.obj
 0001:000d1da0       ?Render@CBigMap@@QAEXXZ    004d2da0 f   SMallMap.obj
 0001:000d2010       ?Render@CCharacter2D@@QAEXXZ 004d3010 f   SMallMap.obj
 0001:000d2120       ?Render@CSMNpc@@QAEXXZ     004d3120 f   SMallMap.obj
 0001:000d2170       ?Render@CSMallWnd@@UAEXXZ  004d3170 f   SMallMap.obj
 0001:000d2220       ?RenderMask@CLargerMap@@MAEXXZ 004d3220 f   SMallMap.obj
 0001:000d2230       ?RenderMask@CMinimap@@MAEXXZ 004d3230 f   SMallMap.obj
 0001:000d23d0       ?RenderMask@CSMallWnd@@MAEXXZ 004d33d0 f i SMallMap.obj
 0001:000d23e0       ?RenderScene@CLargerMap@@MAEXXZ 004d33e0 f   SMallMap.obj
 0001:000d2b20       ?RenderScene@CMinimap@@MAEXXZ 004d3b20 f   SMallMap.obj
 0001:000d3700       ?RenderScene@CSMallWnd@@MAEXXZ 004d4700 f i SMallMap.obj
 0001:000d3710       ?ResetTime@CAniClock@@IAEXK@Z 004d4710 f   SMallMap.obj
 0001:000d39d0       ?Show@CLargerMap@@QAEX_N@Z 004d49d0 f   SMallMap.obj
 0001:000d3ad0       ?UpdataFace@CCharacter2D@@QAEXAAUstNetTeamChaPart@@@Z 004d4ad0 f   SMallMap.obj
 0001:000d3b40       ?Update@CAniClock@@QAEXXZ  004d4b40 f   SMallMap.obj
 0001:000d3b50       ?Update@CLargerMap@@QAEXHH@Z 004d4b50 f   SMallMap.obj
 0001:000d4610       ?_Getal@?$_Vector_alloc@U?$_Vec_base_types@KV?$allocator@K@std@@@std@@@std@@QAEAAV?$allocator@K@2@XZ 004d5610 f i SMallMap.obj
 0001:000d4620       ?_Getal@?$_Vector_alloc@U?$_Vec_base_types@PAVdrITex@LightEngine@@V?$allocator@PAVdrITex@LightEngine@@@std@@@std@@@std@@QAEAAV?$allocator@PAVdrITex@LightEngine@@@2@XZ 004d5620 f i SMallMap.obj
 0001:000d4630       ?_Getal@?$_Vector_alloc@U?$_Vec_base_types@UtagRECT@@V?$allocator@UtagRECT@@@std@@@std@@@std@@QAEAAV?$allocator@UtagRECT@@@2@XZ 004d5630 f i SMallMap.obj
 0001:000d4640       ?_Xlength@?$vector@PAVdrITex@LightEngine@@V?$allocator@PAVdrITex@LightEngine@@@std@@@std@@CAXXZ 004d5640 f i SMallMap.obj
 0001:000d4650       ?_Xlength@?$vector@UtagRECT@@V?$allocator@UtagRECT@@@std@@@std@@CAXXZ 004d5650 f i SMallMap.obj
 0001:000d4660       ?deallocate@?$allocator@PAVdrITex@LightEngine@@@std@@QAEXQAPAVdrITex@LightEngine@@I@Z 004d5660 f i SMallMap.obj
 0001:000d46a0       ?deallocate@?$allocator@UtagRECT@@@std@@QAEXQAUtagRECT@@I@Z 004d56a0 f i SMallMap.obj
 0001:000d46e0       ?setAngle@CSMNpc@@QAEXH@Z  004d56e0 f i SMallMap.obj
 0001:000d4a30       ?GetFileDir@@YA?AV?$basic_string@DU?$char_traits@D@std@@V?$allocator@D@2@@std@@ABV12@_N@Z 004d5a30 f   SoundCommon.obj
 0001:000d4b90       ?MkDir@@YAXABV?$basic_string@DU?$char_traits@D@std@@V?$allocator@D@2@@std@@@Z 004d5b90 f   SoundCommon.obj
 0001:000d4d10       ??0CAttackState@@QAE@PAVCActor@@@Z 004d5d10 f   STAttack.obj
 0001:000d4ee0       ??0CTraceAttackState@@QAE@PAVCActor@@@Z 004d5ee0 f   STAttack.obj
 0001:000d50d0       ??0CWaitAttackState@@QAE@PAVCActor@@@Z 004d60d0 f   STAttack.obj
 0001:000d51e0       ??1CAttackState@@UAE@XZ    004d61e0 f   STAttack.obj
 0001:000d5270       ??1CWaitAttackState@@UAE@XZ 004d6270 f   STAttack.obj
 0001:000d52e0       ??_ECAttackState@@UAEPAXI@Z 004d62e0 f i STAttack.obj
 0001:000d52e0       ??_GCAttackState@@UAEPAXI@Z 004d62e0 f i STAttack.obj
 0001:000d5380       ??_ECTraceAttackState@@UAEPAXI@Z 004d6380 f i STAttack.obj
 0001:000d5380       ??_GCTraceAttackState@@UAEPAXI@Z 004d6380 f i STAttack.obj
 0001:000d5450       ??_GCWaitAttackState@@UAEPAXI@Z 004d6450 f i STAttack.obj
 0001:000d5450       ??_ECWaitAttackState@@UAEPAXI@Z 004d6450 f i STAttack.obj
 0001:000d54d0       ?ActionBegin@CAttackState@@UAEXK@Z 004d64d0 f   STAttack.obj
 0001:000d54f0       ?ActionBegin@CWaitAttackState@@UAEXK@Z 004d64f0 f   STAttack.obj
 0001:000d5510       ?ActionEnd@CAttackState@@UAEXK@Z 004d6510 f   STAttack.obj
 0001:000d5540       ?ActionEnd@CWaitAttackState@@UAEXK@Z 004d6540 f   STAttack.obj
 0001:000d56e0       ?ActionFrame@CAttackState@@UAEXKH@Z 004d66e0 f   STAttack.obj
 0001:000d5710       ?ActionFrame@CWaitAttackState@@UAEXKH@Z 004d6710 f   STAttack.obj
 0001:000d5c30       ?BeforeNewState@CTraceAttackState@@UAEXXZ 004d6c30 f i STAttack.obj
 0001:000d5c40       ?CalcSkillSpeed@CWaitAttackState@@IAEXXZ 004d6c40 f   STAttack.obj
 0001:000d5d30       ?Cancel@CAttackState@@UAEXXZ 004d6d30 f   STAttack.obj
 0001:000d5d70       ?CheckTrace@CTraceAttackState@@IAEXXZ 004d6d70 f   STAttack.obj
 0001:000d6150       ?End@CWaitAttackState@@UAEXXZ 004d7150 f   STAttack.obj
 0001:000d6160       ?FrameMove@CAttackState@@UAEXXZ 004d7160 f   STAttack.obj
 0001:000d62d0       ?FrameMove@CWaitAttackState@@UAEXXZ 004d72d0 f   STAttack.obj
 0001:000d6330       ?GetExplain@CAttackState@@UAEPBDXZ 004d7330 f i STAttack.obj
 0001:000d6340       ?GetExplain@CTraceAttackState@@UAEPBDXZ 004d7340 f i STAttack.obj
 0001:000d6350       ?GetExplain@CWaitAttackState@@UAEPBDXZ 004d7350 f i STAttack.obj
 0001:000d6360       ?GetJobMax@CSkillRecord@@QAEHH@Z 004d7360 f i STAttack.obj
 0001:000d63c0       ?IsAllowUse@CAttackState@@UAE_NXZ 004d73c0 f   STAttack.obj
 0001:000d6440       ?MoveEnd@CActionState@@UAEXHHH@Z 004d7440 f i STAttack.obj
 0001:000d6450       ?MoveEnd@CAttackState@@UAEXHHH@Z 004d7450 f   STAttack.obj
 0001:000d64a0       ?MoveEnd@CTraceAttackState@@UAEXHHH@Z 004d74a0 f   STAttack.obj
 0001:000d6500       ?MoveEnd@CWaitAttackState@@UAEXHHH@Z 004d7500 f   STAttack.obj
 0001:000d6510       ?PushPoint@CActionState@@UAEXHH@Z 004d7510 f i STAttack.obj
 0001:000d6520       ?PushPoint@CAttackState@@UAEXHH@Z 004d7520 f   STAttack.obj
 0001:000d65f0       ?ServerEnd@CTraceAttackState@@UAEXH@Z 004d75f0 f   STAttack.obj
 0001:000d6620       ?ServerEnd@CWaitAttackState@@UAEXH@Z 004d7620 f   STAttack.obj
 0001:000d6640       ?SetServerID@CWaitAttackState@@UAEXH@Z 004d7640 f   STAttack.obj
 0001:000d6660       ?SetSkill@CWaitAttackState@@QAEXPAVCSkillRecord@@@Z 004d7660 f   STAttack.obj
 0001:000d66b0       ?SetTarget@CWaitAttackState@@QAEXPAVCCharacter@@@Z 004d76b0 f   STAttack.obj
 0001:000d66e0       ?StartFailed@CTraceAttackState@@MAEXXZ 004d76e0 f   STAttack.obj
 0001:000d66f0       ?_End@CAttackState@@MAEXXZ 004d76f0 f   STAttack.obj
 0001:000d6710       ?_End@CTraceAttackState@@MAEXXZ 004d7710 f   STAttack.obj
 0001:000d6740       ?_End@CWaitAttackState@@MAEXXZ 004d7740 f   STAttack.obj
 0001:000d6750       ?_GetPoseID@CWaitAttackState@@IAEHXZ 004d7750 f i STAttack.obj
 0001:000d67d0       ?_IsAllowCancel@CAttackState@@MAE_NXZ 004d77d0 f   STAttack.obj
 0001:000d67f0       ?_IsAllowCancel@CWaitAttackState@@MAE_NXZ 004d77f0 f i STAttack.obj
 0001:000d6800       ?_Start@CAttackState@@MAE_NXZ 004d7800 f   STAttack.obj
 0001:000d6de0       ?_Start@CWaitAttackState@@MAE_NXZ 004d7de0 f   STAttack.obj
 0001:000d6e00       ?_StartActor@CWaitAttackState@@MAEXXZ 004d7e00 f   STAttack.obj
 0001:000d6e70       ?_UseSkill@CAttackState@@MAEXXZ 004d7e70 f   STAttack.obj
 0001:000d7030       ?_UseSkill@CWaitAttackState@@MAEXXZ 004d8030 f   STAttack.obj
 0001:000d71a0       ?End@CSteadyFrame@@QAEXXZ  004d81a0 f   SteadyFrame.obj
 0001:000d71c0       ?Exit@CSteadyFrame@@QAEXXZ 004d81c0 f   SteadyFrame.obj
 0001:000d7210       ?Init@CSteadyFrame@@QAE_NXZ 004d8210 f   SteadyFrame.obj
 0001:000d7260       ?Run@CSteadyFrame@@QAE_NXZ 004d8260 f   SteadyFrame.obj
 0001:000d7290       ?_GetShowWhat@@YA?AW4EShowWhat@@XZ 004d8290 f   SteadyFrame.obj
 0001:000d72f0       ?_Sleep@CSteadyFrame@@AAEXXZ 004d82f0 f   SteadyFrame.obj
 0001:000d7570       ?_SleepThreadProc@CSteadyFrame@@CGKPAX@Z 004d8570 f i SteadyFrame.obj
 0001:000d7580       ??$_Buynode@UNeedPath@COneMoveState@@@?$_List_buy@UNeedPath@COneMoveState@@V?$allocator@UNeedPath@COneMoveState@@@std@@@std@@QAEPAU?$_List_node@UNeedPath@COneMoveState@@PAX@1@PAU21@0$$QAUNeedPath@COneMoveState@@@Z 004d8580 f i STMove.obj
 0001:000d7610       ??0CMoveState@@QAE@PAVCActor@@@Z 004d8610 f   STMove.obj
 0001:000d76e0       ??0COneMoveState@@QAE@PAVCActor@@@Z 004d86e0 f   STMove.obj
 0001:000d7820       ??0CWaitMoveState@@QAE@PAVCActor@@@Z 004d8820 f   STMove.obj
 0001:000d78b0       ??1?$_List_alloc@U?$_List_base_types@UNeedPath@COneMoveState@@V?$allocator@UNeedPath@COneMoveState@@@std@@@std@@@std@@QAE@XZ 004d88b0 f i STMove.obj
 0001:000d78f0       ??1?$_List_alloc@U?$_List_base_types@UtagPOINT@@V?$allocator@UtagPOINT@@@std@@@std@@@std@@QAE@XZ 004d88f0 f i STMove.obj
 0001:000d7930       ??1?$_List_buy@UNeedPath@COneMoveState@@V?$allocator@UNeedPath@COneMoveState@@@std@@@std@@QAE@XZ 004d8930 f i STMove.obj
 0001:000d7980       ??1?$_List_buy@UtagPOINT@@V?$allocator@UtagPOINT@@@std@@@std@@QAE@XZ 004d8980 f i STMove.obj
 0001:000d79d0       ??1?$list@UNeedPath@COneMoveState@@V?$allocator@UNeedPath@COneMoveState@@@std@@@std@@QAE@XZ 004d89d0 f i STMove.obj
 0001:000d7a50       ??1?$list@UtagPOINT@@V?$allocator@UtagPOINT@@@std@@@std@@QAE@XZ 004d8a50 f i STMove.obj
 0001:000d7ad0       ??1CMoveList@@QAE@XZ       004d8ad0 f i STMove.obj
 0001:000d7b20       ??1CWaitMoveState@@UAE@XZ  004d8b20 f   STMove.obj
 0001:000d7b90       ??_GCMoveState@@UAEPAXI@Z  004d8b90 f i STMove.obj
 0001:000d7b90       ??_ECMoveState@@UAEPAXI@Z  004d8b90 f i STMove.obj
 0001:000d7c20       ??_GCOneMoveState@@UAEPAXI@Z 004d8c20 f i STMove.obj
 0001:000d7c20       ??_ECOneMoveState@@UAEPAXI@Z 004d8c20 f i STMove.obj
 0001:000d7cd0       ??_ECWaitMoveState@@UAEPAXI@Z 004d8cd0 f i STMove.obj
 0001:000d7cd0       ??_GCWaitMoveState@@UAEPAXI@Z 004d8cd0 f i STMove.obj
 0001:000d7d50       ?AddPath@COneMoveState@@QAE_NHH_N@Z 004d8d50 f   STMove.obj
 0001:000d7db0       ?Cancel@CMoveState@@UAEXXZ 004d8db0 f   STMove.obj
 0001:000d7df0       ?Cancel@COneMoveState@@UAEXXZ 004d8df0 f   STMove.obj
 0001:000d7e50       ?Cancel@CServerMoveState@@UAEXXZ 004d8e50 f   STMove.obj
 0001:000d7e80       ?Cancel@CWaitMoveState@@UAEXXZ 004d8e80 f i STMove.obj
 0001:000d7e90       ?ChaRun@CWaitMoveState@@QAEXXZ 004d8e90 f   STMove.obj
 0001:000d7f60       ?CompartMoveList@COneMoveState@@SAXAAVCMoveList@@AAV?$S_BVECTOR@UD3DXVECTOR3@@@@H@Z 004d8f60 f   STMove.obj
 0001:000d8360       ?ContinueMove@COneMoveState@@QAE_NHH_N0@Z 004d9360 f   STMove.obj
 0001:000d8680       ?FrameMove@CMoveState@@UAEXXZ 004d9680 f   STMove.obj
 0001:000d8710       ?FrameMove@COneMoveState@@UAEXXZ 004d9710 f   STMove.obj
 0001:000d88a0       ?FrameMove@CServerMoveState@@UAEXXZ 004d98a0 f   STMove.obj
 0001:000d88d0       ?FrameMove@CWaitMoveState@@UAEXXZ 004d98d0 f   STMove.obj
 0001:000d8900       ?GetExplain@COneMoveState@@UAEPBDXZ 004d9900 f i STMove.obj
 0001:000d8910       ?GetExplain@CWaitMoveState@@UAEPBDXZ 004d9910 f i STMove.obj
 0001:000d8920       ?GetTargetDistance@CCharacter@@QAEHXZ 004d9920 f i STMove.obj
 0001:000d89a0       ?IsAllowMove@CWaitMoveState@@IAE_NXZ 004d99a0 f   STMove.obj
 0001:000d89f0       ?MoveEnd@CMoveState@@UAEXHHH@Z 004d99f0 f   STMove.obj
 0001:000d8aa0       ?MoveEnd@COneMoveState@@UAEXHHH@Z 004d9aa0 f   STMove.obj
 0001:000d8b20       ?MoveEnd@CServerMoveState@@UAEXHHH@Z 004d9b20 f   STMove.obj
 0001:000d8b30       ?PreMove@CServerMoveState@@QAEXXZ 004d9b30 f   STMove.obj
 0001:000d8d50       ?PushPoint@CMoveState@@UAEXHH@Z 004d9d50 f   STMove.obj
 0001:000d8df0       ?PushPoint@COneMoveState@@UAEXHH@Z 004d9df0 f   STMove.obj
 0001:000d8f60       ?PushPoint@CServerMoveState@@UAEXHH@Z 004d9f60 f   STMove.obj
 0001:000d8ff0       ?PushPoint@CWaitMoveState@@UAEXHH@Z 004d9ff0 f   STMove.obj
 0001:000d9000       ?RenderCameraInfo@CWaitMoveState@@SAXXZ 004da000 f   STMove.obj
 0001:000d9250       ?RenderPing@CWaitMoveState@@SAXXZ 004da250 f   STMove.obj
 0001:000d9300       ?SendInfo@COneMoveState@@IAE_NXZ 004da300 f   STMove.obj
 0001:000d9680       ?SetPreMoveTime@CWaitMoveState@@SAXJ@Z 004da680 f   STMove.obj
 0001:000d97e0       ?StartMove@COneMoveState@@IAE_NHH_N@Z 004da7e0 f   STMove.obj
 0001:000d99c0       ?SynchroPos@COneMoveState@@IAEXHH@Z 004da9c0 f   STMove.obj
 0001:000d9a40       ?WriteInfo@CMoveState@@IAEXAAV?$S_BVECTOR@UD3DXVECTOR3@@@@AAUstNetMoveInfo@@@Z 004daa40 f   STMove.obj
 0001:000d9b40       ?_Buynode0@?$_List_alloc@U?$_List_base_types@UNeedPath@COneMoveState@@V?$allocator@UNeedPath@COneMoveState@@@std@@@std@@@std@@QAEPAU?$_List_node@UNeedPath@COneMoveState@@PAX@2@PAU32@0@Z 004dab40 f i STMove.obj
 0001:000d9bd0       ?_Buynode0@?$_List_alloc@U?$_List_base_types@UtagPOINT@@V?$allocator@UtagPOINT@@@std@@@std@@@std@@QAEPAU?$_List_node@UtagPOINT@@PAX@2@PAU32@0@Z 004dabd0 f i STMove.obj
 0001:000d9c60       ?_End@CActionState@@MAEXXZ 004dac60 f i STMove.obj
 0001:000d9c70       ?_End@CMoveState@@MAEXXZ   004dac70 f   STMove.obj
 0001:000d9ca0       ?_End@COneMoveState@@MAEXXZ 004daca0 f   STMove.obj
 0001:000d9cb0       ?_End@CServerMoveState@@MAEXXZ 004dacb0 f   STMove.obj
 0001:000d9cc0       ?_IsAllowCancel@CMoveState@@MAE_NXZ 004dacc0 f   STMove.obj
 0001:000d9cf0       ?_IsAllowCancel@CWaitMoveState@@MAE_NXZ 004dacf0 f i STMove.obj
 0001:000d9d00       ?_Start@CMoveState@@MAE_NXZ 004dad00 f   STMove.obj
 0001:000d9ef0       ?_Start@COneMoveState@@MAE_NXZ 004daef0 f   STMove.obj
 0001:000d9fa0       ?_Start@CServerMoveState@@MAE_NXZ 004dafa0 f   STMove.obj
 0001:000da2b0       ?_Start@CWaitMoveState@@MAE_NXZ 004db2b0 f   STMove.obj
 0001:000da2c0       ?_SynchroServer@CMoveState@@IAEXXZ 004db2c0 f   STMove.obj
 0001:000da350       ?clear@?$list@UNeedPath@COneMoveState@@V?$allocator@UNeedPath@COneMoveState@@@std@@@std@@QAEXXZ 004db350 f i STMove.obj
 0001:000da3c0       ?deallocate@?$allocator@U?$_List_node@UNeedPath@COneMoveState@@PAX@std@@@std@@QAEXQAU?$_List_node@UNeedPath@COneMoveState@@PAX@2@I@Z 004db3c0 f i STMove.obj
 0001:000da400       ?deallocate@?$allocator@U?$_List_node@UtagPOINT@@PAX@std@@@std@@QAEXQAU?$_List_node@UtagPOINT@@PAX@2@I@Z 004db400 f i STMove.obj
 0001:000da440       ??0CAdmiralState@@QAE@PAVCActor@@@Z 004db440 f   STNpcTalk.obj
 0001:000da4a0       ??0CEventState@@QAE@PAVCActor@@@Z 004db4a0 f   STNpcTalk.obj
 0001:000da510       ??0CFeedState@@QAE@PAVCActor@@@Z 004db510 f   STNpcTalk.obj
 0001:000da570       ??0CFeteState@@QAE@PAVCActor@@@Z 004db570 f   STNpcTalk.obj
 0001:000da5d0       ??0CNpcState@@QAE@PAVCActor@@@Z 004db5d0 f   STNpcTalk.obj
 0001:000da640       ??0CPickState@@QAE@PAVCActor@@@Z 004db640 f   STNpcTalk.obj
 0001:000da6b0       ??0CRepairState@@QAE@PAVCActor@@@Z 004db6b0 f   STNpcTalk.obj
 0001:000da710       ??0CShopState@@QAE@PAVCActor@@@Z 004db710 f   STNpcTalk.obj
 0001:000da780       ??_ECAdmiralState@@UAEPAXI@Z 004db780 f i STNpcTalk.obj
 0001:000da780       ??_GCAdmiralState@@UAEPAXI@Z 004db780 f i STNpcTalk.obj
 0001:000da7e0       ??_ECEventState@@UAEPAXI@Z 004db7e0 f i STNpcTalk.obj
 0001:000da7e0       ??_GCEventState@@UAEPAXI@Z 004db7e0 f i STNpcTalk.obj
 0001:000da840       ??_GCFeedState@@UAEPAXI@Z  004db840 f i STNpcTalk.obj
 0001:000da840       ??_ECFeedState@@UAEPAXI@Z  004db840 f i STNpcTalk.obj
 0001:000da8a0       ??_GCFeteState@@UAEPAXI@Z  004db8a0 f i STNpcTalk.obj
 0001:000da8a0       ??_ECFeteState@@UAEPAXI@Z  004db8a0 f i STNpcTalk.obj
 0001:000da900       ??_GCNpcState@@UAEPAXI@Z   004db900 f i STNpcTalk.obj
 0001:000da900       ??_ECNpcState@@UAEPAXI@Z   004db900 f i STNpcTalk.obj
 0001:000da960       ??_GCPickState@@UAEPAXI@Z  004db960 f i STNpcTalk.obj
 0001:000da960       ??_ECPickState@@UAEPAXI@Z  004db960 f i STNpcTalk.obj
 0001:000da9c0       ??_GCRepairState@@UAEPAXI@Z 004db9c0 f i STNpcTalk.obj
 0001:000da9c0       ??_ECRepairState@@UAEPAXI@Z 004db9c0 f i STNpcTalk.obj
 0001:000daa20       ??_ECShopState@@UAEPAXI@Z  004dba20 f i STNpcTalk.obj
 0001:000daa20       ??_GCShopState@@UAEPAXI@Z  004dba20 f i STNpcTalk.obj
 0001:000daa80       ?Cancel@CAdmiralState@@UAEXXZ 004dba80 f i STNpcTalk.obj
 0001:000daa90       ?Cancel@CFeedState@@UAEXXZ 004dba90 f i STNpcTalk.obj
 0001:000daaa0       ?Cancel@CFeteState@@UAEXXZ 004dbaa0 f i STNpcTalk.obj
 0001:000daab0       ?Cancel@CRepairState@@UAEXXZ 004dbab0 f i STNpcTalk.obj
 0001:000daac0       ?End@CAdmiralState@@MAEXXZ 004dbac0 f   STNpcTalk.obj
 0001:000daae0       ?End@CFeedState@@MAEXXZ    004dbae0 f   STNpcTalk.obj
 0001:000dab00       ?End@CFeteState@@MAEXXZ    004dbb00 f   STNpcTalk.obj
 0001:000dab20       ?End@CRepairState@@MAEXXZ  004dbb20 f   STNpcTalk.obj
 0001:000dab40       ?GetExplain@CAdmiralState@@UAEPBDXZ 004dbb40 f i STNpcTalk.obj
 0001:000dab50       ?GetExplain@CEventState@@UAEPBDXZ 004dbb50 f i STNpcTalk.obj
 0001:000dab60       ?GetExplain@CFeedState@@UAEPBDXZ 004dbb60 f i STNpcTalk.obj
 0001:000dab70       ?GetExplain@CFeteState@@UAEPBDXZ 004dbb70 f i STNpcTalk.obj
 0001:000dab80       ?GetExplain@CNpcState@@UAEPBDXZ 004dbb80 f i STNpcTalk.obj
 0001:000dab90       ?GetExplain@CPickState@@UAEPBDXZ 004dbb90 f i STNpcTalk.obj
 0001:000daba0       ?GetExplain@CRepairState@@UAEPBDXZ 004dbba0 f i STNpcTalk.obj
 0001:000dabb0       ?GetExplain@CShopState@@UAEPBDXZ 004dbbb0 f i STNpcTalk.obj
 0001:000dabc0       ?MouseRightDown@CAdmiralState@@UAEXXZ 004dbbc0 f i STNpcTalk.obj
 0001:000dabd0       ?MouseRightDown@CFeedState@@UAEXXZ 004dbbd0 f i STNpcTalk.obj
 0001:000dabe0       ?MouseRightDown@CFeteState@@UAEXXZ 004dbbe0 f i STNpcTalk.obj
 0001:000dabf0       ?MouseRightDown@CRepairState@@UAEXXZ 004dbbf0 f i STNpcTalk.obj
 0001:000dac00       ?_Start@CAdmiralState@@MAE_NXZ 004dbc00 f   STNpcTalk.obj
 0001:000dac30       ?_Start@CEventState@@MAE_NXZ 004dbc30 f   STNpcTalk.obj
 0001:000dacf0       ?_Start@CFeedState@@MAE_NXZ 004dbcf0 f   STNpcTalk.obj
 0001:000dad20       ?_Start@CFeteState@@MAE_NXZ 004dbd20 f   STNpcTalk.obj
 0001:000dad50       ?_Start@CNpcState@@MAE_NXZ 004dbd50 f   STNpcTalk.obj
 0001:000dade0       ?_Start@CPickState@@MAE_NXZ 004dbde0 f   STNpcTalk.obj
 0001:000daed0       ?_Start@CRepairState@@MAE_NXZ 004dbed0 f   STNpcTalk.obj
 0001:000daf00       ?_Start@CShopState@@MAE_NXZ 004dbf00 f   STNpcTalk.obj
 0001:000daf70       ??0CEquipState@@QAE@PAVCActor@@@Z 004dbf70 f   STPose.obj
 0001:000db030       ??0CInsertState@@QAE@PAVCActor@@@Z 004dc030 f   STPose.obj
 0001:000db0a0       ??0CPoseState@@QAE@PAVCActor@@@Z 004dc0a0 f   STPose.obj
 0001:000db110       ??_ECEquipState@@UAEPAXI@Z 004dc110 f i STPose.obj
 0001:000db110       ??_GCEquipState@@UAEPAXI@Z 004dc110 f i STPose.obj
 0001:000db190       ??_ECInsertState@@UAEPAXI@Z 004dc190 f i STPose.obj
 0001:000db190       ??_GCInsertState@@UAEPAXI@Z 004dc190 f i STPose.obj
 0001:000db1f0       ??_GCPoseState@@UAEPAXI@Z  004dc1f0 f i STPose.obj
 0001:000db1f0       ??_ECPoseState@@UAEPAXI@Z  004dc1f0 f i STPose.obj
 0001:000db250       ?ActionEnd@CPoseState@@UAEXK@Z 004dc250 f   STPose.obj
 0001:000db270       ?BeforeNewState@CPoseState@@UAEXXZ 004dc270 f i STPose.obj
 0001:000db280       ?Cancel@CInsertState@@UAEXXZ 004dc280 f   STPose.obj
 0001:000db2f0       ?Cancel@CPoseState@@UAEXXZ 004dc2f0 f i STPose.obj
 0001:000db300       ?FrameMove@CPoseState@@UAEXXZ 004dc300 f i STPose.obj
 0001:000db310       ?GetExplain@CEquipState@@UAEPBDXZ 004dc310 f i STPose.obj
 0001:000db320       ?GetExplain@CInsertState@@UAEPBDXZ 004dc320 f i STPose.obj
 0001:000db330       ?GetExplain@CPoseState@@UAEPBDXZ 004dc330 f i STPose.obj
 0001:000db340       ?IsKeepPose@CPoseState@@UAE_NXZ 004dc340 f i STPose.obj
 0001:000db350       ?SetUnfixData@CEquipState@@QAEXAAUstNetItemUnfix@@@Z 004dc350 f   STPose.obj
 0001:000db380       ?SetUseItemData@CEquipState@@QAEXAAUstNetUseItem@@@Z 004dc380 f   STPose.obj
 0001:000db3a0       ?_IsAllowCancel@CPoseState@@MAE_NXZ 004dc3a0 f i STPose.obj
 0001:000db3b0       ?_Start@CEquipState@@MAE_NXZ 004dc3b0 f   STPose.obj
 0001:000db400       ?_Start@CInsertState@@MAE_NXZ 004dc400 f   STPose.obj
 0001:000db510       ?_Start@CPoseState@@MAE_NXZ 004dc510 f   STPose.obj
 0001:000db580       ??0CReadyDieState@@QAE@PAVCActor@@@Z 004dc580 f   STReadyDie.obj
 0001:000db620       ??_ECReadyDieState@@UAEPAXI@Z 004dc620 f i STReadyDie.obj
 0001:000db620       ??_GCReadyDieState@@UAEPAXI@Z 004dc620 f i STReadyDie.obj
 0001:000db6a0       ?ActionEnd@CReadyDieState@@UAEXK@Z 004dc6a0 f   STReadyDie.obj
 0001:000db6d0       ?ActionFrame@CReadyDieState@@UAEXKH@Z 004dc6d0 f   STReadyDie.obj
 0001:000db720       ?FrameMove@CReadyDieState@@UAEXXZ 004dc720 f   STReadyDie.obj
 0001:000db7f0       ?GetExplain@CReadyDieState@@UAEPBDXZ 004dc7f0 f i STReadyDie.obj
 0001:000db800       ?_End@CReadyDieState@@MAEXXZ 004dc800 f   STReadyDie.obj
 0001:000db810       ?_IsAllowCancel@CReadyDieState@@MAE_NXZ 004dc810 f i STReadyDie.obj
 0001:000db820       ?_Start@CReadyDieState@@MAE_NXZ 004dc820 f   STReadyDie.obj
 0001:000dbbd0       ??0CSeatState@@QAE@PAVCActor@@@Z 004dcbd0 f   STSeat.obj
 0001:000dbc60       ??_ECSeatState@@UAEPAXI@Z  004dcc60 f i STSeat.obj
 0001:000dbc60       ??_GCSeatState@@UAEPAXI@Z  004dcc60 f i STSeat.obj
 0001:000dbcc0       ?BeforeNewState@CSeatState@@UAEXXZ 004dccc0 f i STSeat.obj
 0001:000dbcd0       ?FrameMove@CSeatState@@UAEXXZ 004dccd0 f   STSeat.obj
 0001:000dbd30       ?GetExplain@CSeatState@@UAEPBDXZ 004dcd30 f i STSeat.obj
 0001:000dbd40       ?_End@CSeatState@@MAEXXZ   004dcd40 f   STSeat.obj
 0001:000dbe90       ?_IsAllowCancel@CSeatState@@MAE_NXZ 004dce90 f i STSeat.obj
 0001:000dbea0       ?_Start@CSeatState@@MAE_NXZ 004dcea0 f   STSeat.obj
 0001:000dc070       ??$_Buynode@ABUtagPOINT@@@?$_List_buy@UtagPOINT@@V?$allocator@UtagPOINT@@@std@@@std@@QAEPAU?$_List_node@UtagPOINT@@PAX@1@PAU21@0ABUtagPOINT@@@Z 004dd070 f i STStateObj.obj
 0001:000dc100       ??0CActionState@@QAE@PAVCActor@@@Z 004dd100 f   STStateObj.obj
 0001:000dc140       ??1CActionState@@MAE@XZ    004dd140 f   STStateObj.obj
 0001:000dc150       ??_ECActionState@@MAEPAXI@Z 004dd150 f i STStateObj.obj
 0001:000dc150       ??_GCActionState@@MAEPAXI@Z 004dd150 f i STStateObj.obj
 0001:000dc180       ?Cancel@CActionState@@UAEXXZ 004dd180 f   STStateObj.obj
 0001:000dc1b0       ?Clear@CMoveList@@QAEXI@Z  004dd1b0 f   STStateObj.obj
 0001:000dc220       ?End@CActionState@@MAEXXZ  004dd220 f   STStateObj.obj
 0001:000dc230       ?FrameMove@CActionState@@MAEXXZ 004dd230 f   STStateObj.obj
 0001:000dc240       ?GetExplain@CActionState@@UAEPBDXZ 004dd240 f i STStateObj.obj
 0001:000dc250       ?GetListDistance@CMoveList@@QAEHHH@Z 004dd250 f   STStateObj.obj
 0001:000dc2f0       ?GotoFront@CMoveList@@QAEXPAVCCharacter@@@Z 004dd2f0 f   STStateObj.obj
 0001:000dc370       ?PushPoint@CMoveList@@QAEXHH@Z 004dd370 f   STStateObj.obj
 0001:000dc4b0       ?Start@CActionState@@QAEXXZ 004dd4b0 f   STStateObj.obj
 0001:000dc500       ?_IsAllowCancel@CActionState@@MAE_NXZ 004dd500 f   STStateObj.obj
 0001:000dc520       ?_Start@CActionState@@MAE_NXZ 004dd520 f i STStateObj.obj
 0001:000dc530       ??$_Emplace_reallocate@ABQAUsTalkMsg@CTalkSessionForm@@@?$vector@PAUsTalkMsg@CTalkSessionForm@@V?$allocator@PAUsTalkMsg@CTalkSessionForm@@@std@@@std@@QAEPAPAUsTalkMsg@CTalkSessionForm@@QAPAU23@ABQAU23@@Z 004dd530 f i TalkSessionFormMgr.obj
 0001:000dc6f0       ??$_Emplace_reallocate@ABQAVCSessionMember@@@?$vector@PAVCSessionMember@@V?$allocator@PAVCSessionMember@@@std@@@std@@QAEPAPAVCSessionMember@@QAPAV2@ABQAV2@@Z 004dd6f0 f i TalkSessionFormMgr.obj
 0001:000dc8b0       ??$_Emplace_reallocate@ABQAVCTalkSessionForm@@@?$vector@PAVCTalkSessionForm@@V?$allocator@PAVCTalkSessionForm@@@std@@@std@@QAEPAPAVCTalkSessionForm@@QAPAV2@ABQAV2@@Z 004dd8b0 f i TalkSessionFormMgr.obj
 0001:000dca70       ??0CTalkSessionForm@@QAE@KW4eTalkSessionStyle@@@Z 004dda70 f   TalkSessionFormMgr.obj
 0001:000dd850       ??1?$vector@PAUsTalkMsg@CTalkSessionForm@@V?$allocator@PAUsTalkMsg@CTalkSessionForm@@@std@@@std@@QAE@XZ 004de850 f i TalkSessionFormMgr.obj
 0001:000dd8e0       ??1?$vector@PAVCSessionMember@@V?$allocator@PAVCSessionMember@@@std@@@std@@QAE@XZ 004de8e0 f i TalkSessionFormMgr.obj
 0001:000dd970       ??1CTalkSessionForm@@QAE@XZ 004de970 f   TalkSessionFormMgr.obj
 0001:000ddb20       ?AddMembers@CTalkSessionForm@@QAEXQAPAUstNetSessCreate@@H@Z 004deb20 f   TalkSessionFormMgr.obj
 0001:000ddc80       ?AddToSession@CTalkSessionFormMgr@@SA_NKPAUstNetSessCreate@@@Z 004dec80 f   TalkSessionFormMgr.obj
 0001:000ddcd0       ?ApplySession@CTalkSessionFormMgr@@SAXQAPAVCMember@GUI@@H@Z 004decd0 f   TalkSessionFormMgr.obj
 0001:000dde90       ?ApplySession@CTalkSessionFormMgr@@SAXQAUsApplyMember@1@@Z 004dee90 f   TalkSessionFormMgr.obj
 0001:000de0f0       ?ChangeStyle@CTalkSessionForm@@QAE_NW4eTalkSessionStyle@@@Z 004df0f0 f   TalkSessionFormMgr.obj
 0001:000de460       ?ClearAll@CTalkSessionFormMgr@@SAXXZ 004df460 f   TalkSessionFormMgr.obj
 0001:000de4f0       ?ClearMsg@CTalkSessionForm@@AAEXXZ 004df4f0 f   TalkSessionFormMgr.obj
 0001:000de5c0       ?CloseSessionForm@CTalkSessionFormMgr@@SAXK@Z 004df5c0 f   TalkSessionFormMgr.obj
 0001:000de650       ?CreateHiddenSessionForm@CTalkSessionFormMgr@@SAPAVCTalkSessionForm@@KQAPAUstNetSessCreate@@H@Z 004df650 f   TalkSessionFormMgr.obj
 0001:000deba0       ?CreateSessionForm@CTalkSessionFormMgr@@SAPAVCTalkSessionForm@@KQAPAUstNetSessCreate@@H@Z 004dfba0 f   TalkSessionFormMgr.obj
 0001:000df1d0       ?GetMsg@CTalkSessionForm@@QAEXKV?$basic_string@DU?$char_traits@D@std@@V?$allocator@D@2@@std@@@Z 004e01d0 f   TalkSessionFormMgr.obj
 0001:000df640       ?GetSessionFormByID@CTalkSessionFormMgr@@SAPAVCTalkSessionForm@@K@Z 004e0640 f   TalkSessionFormMgr.obj
 0001:000df670       ?GetSessionFormByName@CTalkSessionFormMgr@@SAPAVCTalkSessionForm@@V?$basic_string@DU?$char_traits@D@std@@V?$allocator@D@2@@std@@H@Z 004e0670 f   TalkSessionFormMgr.obj
 0001:000df800       ?GetTotalMembers@CTalkSessionForm@@QAEHXZ 004e0800 f   TalkSessionFormMgr.obj
 0001:000df810       ?GuiFormEscCloseEvent@CTalkSessionForm@@CAXPAVCForm@GUI@@@Z 004e0810 f   TalkSessionFormMgr.obj
 0001:000df840       ?LeaveSession@CTalkSessionFormMgr@@SAXKK@Z 004e0840 f   TalkSessionFormMgr.obj
 0001:000df9c0       ?OnClickCloseSession@CTalkSessionFormMgr@@SAXPAVCTalkSessionForm@@@Z 004e09c0 f   TalkSessionFormMgr.obj
 0001:000dfa20       ?OnClickOpenSession@CTalkSessionFormMgr@@SAXPAVCItemObj@GUI@@@Z 004e0a20 f   TalkSessionFormMgr.obj
 0001:000dfa70       ?OnFlashSession@CTalkSessionFormMgr@@SAXXZ 004e0a70 f   TalkSessionFormMgr.obj
 0001:000dffe0       ?OnHotKeyShow@CTalkSessionFormMgr@@SA_NAADAAH@Z 004e0fe0 f   TalkSessionFormMgr.obj
 0001:000e0050       ?RefreshForm@CTalkSessionForm@@QAEXXZ 004e1050 f   TalkSessionFormMgr.obj
 0001:000e12d0       ?RefreshSessionMember@CTalkSessionFormMgr@@SAXKPBD@Z 004e22d0 f   TalkSessionFormMgr.obj
 0001:000e1350       ?SendBufferMsg@CTalkSessionForm@@QAEXXZ 004e2350 f   TalkSessionFormMgr.obj
 0001:000e1460       ?SessionReceiveMsg@CTalkSessionFormMgr@@SAXKKV?$basic_string@DU?$char_traits@D@std@@V?$allocator@D@2@@std@@@Z 004e2460 f   TalkSessionFormMgr.obj
 0001:000e16b0       ?_Error@@YA_NPBD00@Z       004e26b0 f   TalkSessionFormMgr.obj
 0001:000e16d0       ?_OnFaceLostFocus@CTalkSessionForm@@CAXPAVCGuiData@GUI@@@Z 004e26d0 f   TalkSessionFormMgr.obj
 0001:000e16e0       ?_OnHotKey@CTalkSessionForm@@CA_NPAVCForm@GUI@@D@Z 004e26e0 f   TalkSessionFormMgr.obj
 0001:000e1720       ?_OnMouseCleanText@CTalkSessionForm@@CAXPAVCGuiData@GUI@@HHK@Z 004e2720 f   TalkSessionFormMgr.obj
 0001:000e1750       ?_OnMouseCloseButton@CTalkSessionForm@@CAXPAVCGuiData@GUI@@HHK@Z 004e2750 f   TalkSessionFormMgr.obj
 0001:000e1780       ?_OnMouseFaceListButton@CTalkSessionForm@@CAXPAVCGuiData@GUI@@HHK@Z 004e2780 f   TalkSessionFormMgr.obj
 0001:000e1830       ?_OnMouseInformButton@CTalkSessionForm@@CAXPAVCGuiData@GUI@@HHK@Z 004e2830 f   TalkSessionFormMgr.obj
 0001:000e1860       ?_OnMouseMinimizeButton@CTalkSessionForm@@CAXPAVCGuiData@GUI@@HHK@Z 004e2860 f   TalkSessionFormMgr.obj
 0001:000e1880       ?_OnMouseNormalButton@CTalkSessionForm@@CAXPAVCGuiData@GUI@@HHK@Z 004e2880 f   TalkSessionFormMgr.obj
 0001:000e18b0       ?_OnMouseQuitButton@CTalkSessionForm@@CAXPAVCGuiData@GUI@@HHK@Z 004e28b0 f   TalkSessionFormMgr.obj
 0001:000e1910       ?_OnMouseRightPlayerMenu@CTalkSessionForm@@CAXPAVCGuiData@GUI@@HHK@Z 004e2910 f   TalkSessionFormMgr.obj
 0001:000e1a10       ?_OnMouseSaveButton@CTalkSessionForm@@CAXPAVCGuiData@GUI@@HHK@Z 004e2a10 f   TalkSessionFormMgr.obj
 0001:000e2150       ?_OnMouseSelectFace@CTalkSessionForm@@CAXPAVCGuiData@GUI@@@Z 004e3150 f   TalkSessionFormMgr.obj
 0001:000e22b0       ?_OnMouseSendButton@CTalkSessionForm@@CAXPAVCGuiData@GUI@@HHK@Z 004e32b0 f   TalkSessionFormMgr.obj
 0001:000e2490       ?_OnPlayerSelect@CTalkSessionForm@@CAXPAVCGuiData@GUI@@HHK@Z 004e3490 f   TalkSessionFormMgr.obj
 0001:000e2590       ?_OnTimerInformShowing@CTalkSessionForm@@CAXPAVCGuiTime@GUI@@@Z 004e3590 f   TalkSessionFormMgr.obj
 0001:000e2650       ?_Xlength@?$vector@PAUsTalkMsg@CTalkSessionForm@@V?$allocator@PAUsTalkMsg@CTalkSessionForm@@@std@@@std@@CAXXZ 004e3650 f i TalkSessionFormMgr.obj
 0001:000e2660       ?_Xlength@?$vector@PAVCSessionMember@@V?$allocator@PAVCSessionMember@@@std@@@std@@CAXXZ 004e3660 f i TalkSessionFormMgr.obj
 0001:000e2670       ?_Xlength@?$vector@PAVCTalkSessionForm@@V?$allocator@PAVCTalkSessionForm@@@std@@@std@@CAXXZ 004e3670 f i TalkSessionFormMgr.obj
 0001:000e2680       ?deallocate@?$allocator@PAUsTalkMsg@CTalkSessionForm@@@std@@QAEXQAPAUsTalkMsg@CTalkSessionForm@@I@Z 004e3680 f i TalkSessionFormMgr.obj
 0001:000e26c0       ?deallocate@?$allocator@PAVCSessionMember@@@std@@QAEXQAPAVCSessionMember@@I@Z 004e36c0 f i TalkSessionFormMgr.obj
 0001:000e2700       ?deallocate@?$allocator@PAVCTalkSessionForm@@@std@@QAEXQAPAVCTalkSessionForm@@I@Z 004e3700 f i TalkSessionFormMgr.obj
 0001:000e2740       ?hasFlashSession@CTalkSessionFormMgr@@SA_NXZ 004e3740 f   TalkSessionFormMgr.obj
 0001:000e2770       ?hasMember@CTalkSessionForm@@QAE_NV?$basic_string@DU?$char_traits@D@std@@V?$allocator@D@2@@std@@@Z 004e3770 f   TalkSessionFormMgr.obj
 0001:000e2820       _sprintf                   004e3820 f i TalkSessionFormMgr.obj
 0001:000e2860       ??$_Emplace_reallocate@ABQAU_sFormNode@CTeamInviteFormMgr@@@?$vector@PAU_sFormNode@CTeamInviteFormMgr@@V?$allocator@PAU_sFormNode@CTeamInviteFormMgr@@@std@@@std@@QAEPAPAU_sFormNode@CTeamInviteFormMgr@@QAPAU23@ABQAU23@@Z 004e3860 f i TeamInviteFormMgr.obj
 0001:000e2a20       ?AddInviteForm@CTeamInviteFormMgr@@SA_NKV?$basic_string@DU?$char_traits@D@std@@V?$allocator@D@2@@std@@@Z 004e3a20 f   TeamInviteFormMgr.obj
 0001:000e2d30       ?RemoveInviteForm@CTeamInviteFormMgr@@SA_NK@Z 004e3d30 f   TeamInviteFormMgr.obj
 0001:000e2e00       ?_MainMousePlayerGroupEvent@CTeamInviteFormMgr@@CAXPAVCCompent@GUI@@HHHK@Z 004e3e00 f   TeamInviteFormMgr.obj
 0001:000e2fc0       ?_Xlength@?$vector@PAU_sFormNode@CTeamInviteFormMgr@@V?$allocator@PAU_sFormNode@CTeamInviteFormMgr@@@std@@@std@@CAXXZ 004e3fc0 f i TeamInviteFormMgr.obj
 0001:000e2fd0       ?deallocate@?$allocator@PAU_sFormNode@CTeamInviteFormMgr@@@std@@QAEXQAPAU_sFormNode@CTeamInviteFormMgr@@I@Z 004e3fd0 f i TeamInviteFormMgr.obj
 0001:000e3010       ?ConvertNumToChinese@@YA?AV?$basic_string@DU?$char_traits@D@std@@V?$allocator@D@2@@std@@H@Z 004e4010 f   Tools.obj
 0001:000e3870       ??0C3DCompent@GUI@@QAE@AAVCForm@1@@Z 004e4870 f   UI3DCompent.obj
 0001:000e3900       ??_GC3DCompent@GUI@@UAEPAXI@Z 004e4900 f i UI3DCompent.obj
 0001:000e3900       ??_EC3DCompent@GUI@@UAEPAXI@Z 004e4900 f i UI3DCompent.obj
 0001:000e3970       ?Clone@C3DCompent@GUI@@UAEPAVCGuiData@2@XZ 004e4970 f i UI3DCompent.obj
 0001:000e3a30       ?Clone@C3DCompent@GUI@@UAE_NPAVCGuiData@2@@Z 004e4a30 f i UI3DCompent.obj
 0001:000e3aa0       ?DragRender@CGuiData@GUI@@UAEXXZ 004e4aa0 f i UI3DCompent.obj
 0001:000e3ab0       ?Find@CCompent@GUI@@UAEPAV12@PBD@Z 004e4ab0 f i UI3DCompent.obj
 0001:000e3ac0       ?FrameMove@CCompent@GUI@@UAEXK@Z 004e4ac0 f i UI3DCompent.obj
 0001:000e3ad0       ?GetForm@CCompent@GUI@@UAEPAVCForm@2@XZ 004e4ad0 f i UI3DCompent.obj
 0001:000e3ae0       ?GetHitCommand@CCompent@GUI@@UAEPAV12@HH@Z 004e4ae0 f i UI3DCompent.obj
 0001:000e3af0       ?GetImage@CGuiData@GUI@@UAEPAVCGuiPic@2@XZ 004e4af0 f i UI3DCompent.obj
 0001:000e3b00       ?GetUseCommantEvent@CCompent@GUI@@UAEP6AXPAVCCommandObj@2@AA_N@ZXZ 004e4b00 f i UI3DCompent.obj
 0001:000e3b10       ?Init@CGuiData@GUI@@UAEXXZ 004e4b10 f i UI3DCompent.obj
 0001:000e3b20       ?IsFrameMove@CCompent@GUI@@UAE_NXZ 004e4b20 f i UI3DCompent.obj
 0001:000e3b30       ?IsHandleMouse@C3DCompent@GUI@@UAE_NXZ 004e4b30 f i UI3DCompent.obj
 0001:000e3b40       ?MouseRun@C3DCompent@GUI@@UAE_NHHK@Z 004e4b40 f   UI3DCompent.obj
 0001:000e3c20       ?MouseScroll@CGuiData@GUI@@UAE_NH@Z 004e4c20 f i UI3DCompent.obj
 0001:000e3c30       ?OnChar@CCompent@GUI@@UAE_ND@Z 004e4c30 f i UI3DCompent.obj
 0001:000e3c40       ?OnKeyDown@CCompent@GUI@@UAE_NH@Z 004e4c40 f i UI3DCompent.obj
 0001:000e3c50       ?OnLost@CCompent@GUI@@UAEXXZ 004e4c50 f i UI3DCompent.obj
 0001:000e3c60       ?Refresh@C3DCompent@GUI@@UAEXXZ 004e4c60 f   UI3DCompent.obj
 0001:000e3ce0       ?Render@C3DCompent@GUI@@UAEXXZ 004e4ce0 f   UI3DCompent.obj
 0001:000e3d00       ?Reset@CGuiData@GUI@@UAEXXZ 004e4d00 f i UI3DCompent.obj
 0001:000e3d10       ?SetAlpha@CGuiData@GUI@@UAEXE@Z 004e4d10 f i UI3DCompent.obj
 0001:000e3d20       ?SetCaption@CGuiData@GUI@@UAEXPBD@Z 004e4d20 f i UI3DCompent.obj
 0001:000e3d30       ?SetCommand@CCompent@GUI@@UAE?AW4eAccept@2@PAVCCommandObj@2@HH@Z 004e4d30 f i UI3DCompent.obj
 0001:000e3d40       ?SetIsEnabled@CGuiData@GUI@@UAEX_N@Z 004e4d40 f i UI3DCompent.obj
 0001:000e3d50       ?SetMargin@CGuiData@GUI@@UAEXHHHH@Z 004e4d50 f i UI3DCompent.obj
 0001:000e3d60       ?SetTextColor@CGuiData@GUI@@UAEXK@Z 004e4d60 f i UI3DCompent.obj
 0001:000e3d70       ?CloseForm@CBankMgr@GUI@@MAEXXZ 004e4d70 f   UIBankForm.obj
 0001:000e3da0       ?Init@CBankMgr@GUI@@MAE_NXZ 004e4da0 f   UIBankForm.obj
 0001:000e3eb0       ?PopFromBank@CBankMgr@GUI@@QAE_NAAVCGoodsGrid@2@0HAAVCCommandObj@2@@Z 004e4eb0 f   UIBankForm.obj
 0001:000e3fa0       ?PushToBank@CBankMgr@GUI@@QAE_NAAVCGoodsGrid@2@0HAAVCCommandObj@2@@Z 004e4fa0 f   UIBankForm.obj
 0001:000e41a0       ?ShowBank@CBankMgr@GUI@@QAEXXZ 004e51a0 f   UIBankForm.obj
 0001:000e4260       ?_MoveItemsEvent@CBankMgr@GUI@@CAXPAVCCompent@2@HHHK@Z 004e5260 f   UIBankForm.obj
 0001:000e42a0       ?_evtBankToBank@CBankMgr@GUI@@CAXPAVCGuiData@2@HHAA_N@Z 004e52a0 f   UIBankForm.obj
 0001:000e4300       ?_evtOnClose@CBankMgr@GUI@@CAXPAVCForm@2@AA_N@Z 004e5300 f   UIBankForm.obj
 0001:000e4330       ??0CBoat@GUI@@QAE@XZ       004e5330 f   UIBoatForm.obj
 0001:000e4350       ?AddBoat@CBoatMgr@GUI@@QAE_NPAVCCharacter@@@Z 004e5350 f   UIBoatForm.obj
 0001:000e4390       ?ChangeMainCha@CBoatMgr@GUI@@QAEPAVCCharacter@@I@Z 004e5390 f   UIBoatForm.obj
 0001:000e4450       ?Clear@CBoatMgr@GUI@@QAEXXZ 004e5450 f   UIBoatForm.obj
 0001:000e4480       ?End@CBoatMgr@GUI@@MAEXXZ  004e5480 f   UIBoatForm.obj
 0001:000e4490       ?FindBoat@CBoatMgr@GUI@@QAEPAVCBoat@2@I@Z 004e5490 f   UIBoatForm.obj
 0001:000e44d0       ?FindCha@CBoatMgr@GUI@@QAEPAVCCharacter@@I@Z 004e54d0 f   UIBoatForm.obj
 0001:000e4510       ?FindCha@CBoatMgr@GUI@@QAEPAVCCharacter@@PAVCGoodsGrid@2@@Z 004e5510 f   UIBoatForm.obj
 0001:000e4550       ?FindGoodsGrid@CBoatMgr@GUI@@QAEPAVCGoodsGrid@2@I@Z 004e5550 f   UIBoatForm.obj
 0001:000e45a0       ?Init@CBoat@GUI@@QAE_NHPAVCForm@2@P6AXPAVCGuiData@2@PAVCCommandObj@2@HAA_N@Z@Z 004e55a0 f   UIBoatForm.obj
 0001:000e4670       ?Init@CBoatMgr@GUI@@MAE_NXZ 004e5670 f   UIBoatForm.obj
 0001:000e4840       ?_evtEscClose@CBoat@GUI@@CAXPAVCForm@2@@Z 004e5840 f   UIBoatForm.obj
 0001:000e4870       ?_evtHoldGridRMouse@CBoat@GUI@@CAXPAVCGuiData@2@PAVCCommandObj@2@H@Z 004e5870 f   UIBoatForm.obj
 0001:000e48b0       ??$_Resize@V<lambda_57203ef481475913a4d65d59672bfce6>@@@?$vector@PAUSBoothItem@CBoothMgr@GUI@@V?$allocator@PAUSBoothItem@CBoothMgr@GUI@@@std@@@std@@AAEXIV<lambda_57203ef481475913a4d65d59672bfce6>@@@Z 004e58b0 f i UIBoothForm.obj
 0001:000e4a80       ??0CBoothMgr@GUI@@QAE@XZ   004e5a80 f   UIBoothForm.obj
 0001:000e4b20       ??1?$vector@PAUSBoothItem@CBoothMgr@GUI@@V?$allocator@PAUSBoothItem@CBoothMgr@GUI@@@std@@@std@@QAE@XZ 004e5b20 f i UIBoothForm.obj
 0001:000e4bb0       ??1CBoothMgr@GUI@@UAE@XZ   004e5bb0 f   UIBoothForm.obj
 0001:000e4c20       ??1CUIInterface@GUI@@UAE@XZ 004e5c20 f i UIBoothForm.obj
 0001:000e4c30       ??_GCBoothMgr@GUI@@UAEPAXI@Z 004e5c30 f i UIBoothForm.obj
 0001:000e4c30       ??_ECBoothMgr@GUI@@UAEPAXI@Z 004e5c30 f i UIBoothForm.obj
 0001:000e4cb0       ??_GCUIInterface@GUI@@UAEPAXI@Z 004e5cb0 f i UIBoothForm.obj
 0001:000e4cb0       ??_ECUIInterface@GUI@@UAEPAXI@Z 004e5cb0 f i UIBoothForm.obj
 0001:000e4ce0       ?AddBoothItem@CBoothMgr@GUI@@AAEXPAUSBoothItem@12@@Z 004e5ce0 f   UIBoothForm.obj
 0001:000e4e70       ?AddTradeBoothBoat@CBoothMgr@GUI@@QAEXHKHKAAUNET_CHARTRADE_BOATDATA@@@Z 004e5e70 f   UIBoothForm.obj
 0001:000e4ed0       ?AddTradeBoothGood@CBoothMgr@GUI@@QAEXHKHKAAUSItemGrid@@@Z 004e5ed0 f   UIBoothForm.obj
 0001:000e4f30       ?AddTradeBoothItem@CBoothMgr@GUI@@QAEXHKHK@Z 004e5f30 f   UIBoothForm.obj
 0001:000e5010       ?ClearBoothItems@CBoothMgr@GUI@@AAEXXZ 004e6010 f   UIBoothForm.obj
 0001:000e5060       ?CloseBoothUI@CBoothMgr@GUI@@AAEXXZ 004e6060 f   UIBoothForm.obj
 0001:000e50d0       ?CloseForm@CBoothMgr@GUI@@MAEXXZ 004e60d0 f   UIBoothForm.obj
 0001:000e5100       ?CloseForm@CUIInterface@GUI@@MAEXXZ 004e6100 f i UIBoothForm.obj
 0001:000e5110       ?End@CBoothMgr@GUI@@MAEXXZ 004e6110 f   UIBoothForm.obj
 0001:000e5120       ?End@CUIInterface@GUI@@MAEXXZ 004e6120 f i UIBoothForm.obj
 0001:000e5130       ?FrameMove@CUIInterface@GUI@@MAEXK@Z 004e6130 f i UIBoothForm.obj
 0001:000e5140       ?Init@CBoothMgr@GUI@@MAE_NXZ 004e6140 f   UIBoothForm.obj
 0001:000e5320       ?Init@CUIInterface@GUI@@MAE_NXZ 004e6320 f i UIBoothForm.obj
 0001:000e5330       ?IsCanReadBook@CReadBookMgr@GUI@@SA_NPAVCCharacter@@@Z 004e6330 f   UIBoothForm.obj
 0001:000e53b0       ?LoadingCall@CUIInterface@GUI@@MAEXXZ 004e63b0 f i UIBoothForm.obj
 0001:000e53c0       ?OpenBoothUI@CBoothMgr@GUI@@AAEXXZ 004e63c0 f   UIBoothForm.obj
 0001:000e5430       ?PopFromBooth@CBoothMgr@GUI@@QAE_NAAVCGoodsGrid@2@0HAAVCCommandObj@2@@Z 004e6430 f   UIBoothForm.obj
 0001:000e5620       ?PullBoothSuccess@CBoothMgr@GUI@@QAEXXZ 004e6620 f   UIBoothForm.obj
 0001:000e56f0       ?PushToBooth@CBoothMgr@GUI@@QAE_NAAVCGoodsGrid@2@0HAAVCCommandObj@2@@Z 004e66f0 f   UIBoothForm.obj
 0001:000e5910       ?RemoveBoothItemByNum@CBoothMgr@GUI@@AAEXPAUSBoothItem@12@H@Z 004e6910 f   UIBoothForm.obj
 0001:000e59e0       ?RemoveTradeBoothItem@CBoothMgr@GUI@@QAEXKHH@Z 004e69e0 f   UIBoothForm.obj
 0001:000e5a10       ?SetupBoothSuccess@CBoothMgr@GUI@@QAEXXZ 004e6a10 f   UIBoothForm.obj
 0001:000e5a50       ?ShowReadBookForm@CReadBookMgr@GUI@@SA_NXZ 004e6a50 f   UIBoothForm.obj
 0001:000e5a80       ?ShowSetupBoothForm@CBoothMgr@GUI@@QAEXH@Z 004e6a80 f   UIBoothForm.obj
 0001:000e5be0       ?ShowTradeBoothForm@CBoothMgr@GUI@@QAEXKPBDH@Z 004e6be0 f   UIBoothForm.obj
 0001:000e5cd0       ?SwitchMap@CUIInterface@GUI@@MAEXXZ 004e6cd0 f i UIBoothForm.obj
 0001:000e5ce0       ?_BuyAGoodEvent@CBoothMgr@GUI@@CAXPAVCCompent@2@HHHK@Z 004e6ce0 f   UIBoothForm.obj
 0001:000e5d40       ?_BuyGoodsEvent@CBoothMgr@GUI@@CAXPAVCCompent@2@HHHK@Z 004e6d40 f   UIBoothForm.obj
 0001:000e5dc0       ?_Getal@?$_Vector_alloc@U?$_Vec_base_types@PAUSBoothItem@CBoothMgr@GUI@@V?$allocator@PAUSBoothItem@CBoothMgr@GUI@@@std@@@std@@@std@@QAEAAV?$allocator@PAUSBoothItem@CBoothMgr@GUI@@@2@XZ 004e6dc0 f i UIBoothForm.obj
 0001:000e5dd0       ?_InquireSetupPushItemNumEvent@CBoothMgr@GUI@@CAXPAVCCompent@2@HHHK@Z 004e6dd0 f   UIBoothForm.obj
 0001:000e5ea0       ?_InquireSetupPushItemPriceEvent@CBoothMgr@GUI@@CAXPAVCCompent@2@HHHK@Z 004e6ea0 f   UIBoothForm.obj
 0001:000e5f80       ?_MainBoothOnCloseEvent@CBoothMgr@GUI@@CAXPAVCForm@2@AA_N@Z 004e6f80 f   UIBoothForm.obj
 0001:000e6050       ?_MainMouseBoothEvent@CBoothMgr@GUI@@CAXPAVCCompent@2@HHHK@Z 004e7050 f   UIBoothForm.obj
 0001:000e62f0       ?_Xlength@?$vector@PAUSBoothItem@CBoothMgr@GUI@@V?$allocator@PAUSBoothItem@CBoothMgr@GUI@@@std@@@std@@CAXXZ 004e72f0 f i UIBoothForm.obj
 0001:000e6300       ?_evtMsgBox@CReadBookMgr@GUI@@CAXPAVCCompent@2@HHHK@Z 004e7300 f   UIBoothForm.obj
 0001:000e6330       ?_evtSelectBox@CReadBookMgr@GUI@@CAXPAVCCompent@2@HHHK@Z 004e7330 f   UIBoothForm.obj
 0001:000e6390       ?deallocate@?$allocator@PAUSBoothItem@CBoothMgr@GUI@@@std@@QAEXQAPAUSBoothItem@CBoothMgr@GUI@@I@Z 004e7390 f i UIBoothForm.obj
 0001:000e63d0       ??$_Emplace_reallocate@ABQAUItemInfo_T@CBourseMgr@GUI@@@?$vector@PAUItemInfo_T@CBourseMgr@GUI@@V?$allocator@PAUItemInfo_T@CBourseMgr@GUI@@@std@@@std@@QAEPAPAUItemInfo_T@CBourseMgr@GUI@@QAPAU234@ABQAU234@@Z 004e73d0 f i UIBourseForm.obj
 0001:000e6590       ??$_Emplace_reallocate@ABUstBlackTrade@@@?$vector@UstBlackTrade@@V?$allocator@UstBlackTrade@@@std@@@std@@QAEPAUstBlackTrade@@QAU2@ABU2@@Z 004e7590 f i UIBourseForm.obj
 0001:000e6790       ??0CBourseMgr@GUI@@QAE@XZ  004e7790 f   UIBourseForm.obj
 0001:000e6830       ??1?$vector@PAUItemInfo_T@CBourseMgr@GUI@@V?$allocator@PAUItemInfo_T@CBourseMgr@GUI@@@std@@@std@@QAE@XZ 004e7830 f i UIBourseForm.obj
 0001:000e68c0       ??_GCBourseMgr@GUI@@UAEPAXI@Z 004e78c0 f i UIBourseForm.obj
 0001:000e68c0       ??_ECBourseMgr@GUI@@UAEPAXI@Z 004e78c0 f i UIBourseForm.obj
 0001:000e6940       ?BuyItem@CBourseMgr@GUI@@QAEXAAVCGoodsGrid@2@AAVCCommandObj@2@H@Z 004e7940 f   UIBourseForm.obj
 0001:000e6bf0       ?ClearItemList@CBourseMgr@GUI@@AAEXAAV?$vector@PAUItemInfo_T@CBourseMgr@GUI@@V?$allocator@PAUItemInfo_T@CBourseMgr@GUI@@@std@@@std@@@Z 004e7bf0 f   UIBourseForm.obj
 0001:000e6c50       ?CloseForm@CBlackTradeMgr@GUI@@MAEXXZ 004e7c50 f   UIBourseForm.obj
 0001:000e6c60       ?CloseForm@CBourseMgr@GUI@@MAEXXZ 004e7c60 f   UIBourseForm.obj
 0001:000e6c80       ?End@CBourseMgr@GUI@@MAEXXZ 004e7c80 f   UIBourseForm.obj
 0001:000e6c90       ?ExchangeAnswerProc@CBlackTradeMgr@GUI@@QAEX_NPAUstBlackTrade@@@Z 004e7c90 f   UIBourseForm.obj
 0001:000e6ec0       ?GetBuyGoodsGrid@CBourseMgr@GUI@@QAEPAVCGoodsGrid@2@XZ 004e7ec0 f   UIBourseForm.obj
 0001:000e6ed0       ?GetShipRoomGoodsGrid@CBourseMgr@GUI@@QAEPAVCGoodsGrid@2@XZ 004e7ed0 f   UIBourseForm.obj
 0001:000e6ee0       ?Init@CBlackTradeMgr@GUI@@MAE_NXZ 004e7ee0 f   UIBourseForm.obj
 0001:000e6ff0       ?Init@CBourseMgr@GUI@@MAE_NXZ 004e7ff0 f   UIBourseForm.obj
 0001:000e7130       ?RefreshSaleGrid@CBlackTradeMgr@GUI@@AAEXXZ 004e8130 f   UIBourseForm.obj
 0001:000e71e0       ?SailToBuy@CBlackTradeMgr@GUI@@QAE_NAAVCGoodsGrid@2@0HAAVCCommandObj@2@@Z 004e81e0 f   UIBourseForm.obj
 0001:000e7260       ?SaleGoods@CBourseMgr@GUI@@QAE_NAAVCItemCommand@2@H@Z 004e8260 f   UIBourseForm.obj
 0001:000e73b0       ?SetItem@CBlackTradeMgr@GUI@@QAEXPAUstBlackTrade@@@Z 004e83b0 f   UIBourseForm.obj
 0001:000e75a0       ?SetItems@CBourseMgr@GUI@@AAEXXZ 004e85a0 f   UIBourseForm.obj
 0001:000e78a0       ?SetNpcID@CBlackTradeMgr@GUI@@QAEXK@Z 004e88a0 f   UIBourseForm.obj
 0001:000e78c0       ?ShowBlackTradeForm@CBlackTradeMgr@GUI@@QAEX_N@Z 004e88c0 f   UIBourseForm.obj
 0001:000e78e0       ?ShowBourse@CBourseMgr@GUI@@QAEXABU_NET_TRADEINFO@@EKK@Z 004e88e0 f   UIBourseForm.obj
 0001:000e7b80       ?UpdateOneGood@CBourseMgr@GUI@@QAEXEEGGK@Z 004e8b80 f   UIBourseForm.obj
 0001:000e7c00       ?_BuyGoodsEvent@CBourseMgr@GUI@@KAXPAVCCompent@2@HHHK@Z 004e8c00 f   UIBourseForm.obj
 0001:000e7c40       ?_MainMouseSeaTradeEvent@CBourseMgr@GUI@@KAXPAVCCompent@2@HHHK@Z 004e8c40 f   UIBourseForm.obj
 0001:000e7ce0       ?_SaleAGoodEvent@CBourseMgr@GUI@@KAXPAVCCompent@2@HHHK@Z 004e8ce0 f   UIBourseForm.obj
 0001:000e7d10       ?_SaleGoodsEvent@CBourseMgr@GUI@@KAXPAVCCompent@2@HHHK@Z 004e8d10 f   UIBourseForm.obj
 0001:000e7d50       ?_TradeExchangeEvent@CBlackTradeMgr@GUI@@CAXPAVCCompent@2@HHHK@Z 004e8d50 f   UIBourseForm.obj
 0001:000e7de0       ?_Xlength@?$vector@PAUItemInfo_T@CBourseMgr@GUI@@V?$allocator@PAUItemInfo_T@CBourseMgr@GUI@@@std@@@std@@CAXXZ 004e8de0 f i UIBourseForm.obj
 0001:000e7df0       ?_Xlength@?$vector@UstBlackTrade@@V?$allocator@UstBlackTrade@@@std@@@std@@CAXXZ 004e8df0 f i UIBourseForm.obj
 0001:000e7e00       ?__gui_event_sale_drag_before@CBourseMgr@GUI@@KAXPAVCGuiData@2@PAVCCommandObj@2@HAA_N@Z 004e8e00 f   UIBourseForm.obj
 0001:000e7e90       ?_evtCloseForm@CBlackTradeMgr@GUI@@CAXPAVCForm@2@AA_N@Z 004e8e90 f   UIBourseForm.obj
 0001:000e7f00       ?deallocate@?$allocator@PAUItemInfo_T@CBourseMgr@GUI@@@std@@QAEXQAPAUItemInfo_T@CBourseMgr@GUI@@I@Z 004e8f00 f i UIBourseForm.obj
 0001:000e7f40       ?deallocate@?$allocator@UstBlackTrade@@@std@@QAEXQAUstBlackTrade@@I@Z 004e8f40 f i UIBourseForm.obj
 0001:000e7f80       ??$_Emplace_reallocate@ABQAVCForm@GUI@@@?$vector@PAVCForm@GUI@@V?$allocator@PAVCForm@GUI@@@std@@@std@@QAEPAPAVCForm@GUI@@QAPAV23@ABQAV23@@Z 004e8f80 f i UIBoxForm.obj
 0001:000e8140       ??1?$vector@PAVCForm@GUI@@V?$allocator@PAVCForm@GUI@@@std@@@std@@QAE@XZ 004e9140 f i UIBoxForm.obj
 0001:000e81d0       ?CloseAllBox@CBoxMgr@GUI@@SAXXZ 004e91d0 f   UIBoxForm.obj
 0001:000e8210       ?End@CBoxMgr@GUI@@MAEXXZ   004e9210 f   UIBoxForm.obj
 0001:000e8250       ?FrameMove@CBoxMgr@GUI@@MAEXK@Z 004e9250 f   UIBoxForm.obj
 0001:000e8570       ?GetNumber@stNumBox@GUI@@QAEHXZ 004e9570 f   UIBoxForm.obj
 0001:000e85b0       ?GetTradeNum@stTradeBox@GUI@@QAEHXZ 004e95b0 f   UIBoxForm.obj
 0001:000e85f0       ?Init@CBoxMgr@GUI@@MAE_NXZ 004e95f0 f   UIBoxForm.obj
 0001:000e8920       ?Init@CHideForm@GUI@@QAEXPAVCForm@2@@Z 004e9920 f i UIBoxForm.obj
 0001:000e8950       ?ShowMsgBox@CBoxMgr@GUI@@SAPAUstMsgBox@2@P6AXPAVCCompent@2@HHHK@ZPBD_N@Z 004e9950 f   UIBoxForm.obj
 0001:000e8a50       ?ShowMsgTime@CBoxMgr@GUI@@SAPAUstMsgTimeBox@2@P6AXPAVCCompent@2@HHHK@ZPBDH@Z 004e9a50 f   UIBoxForm.obj
 0001:000e8b70       ?ShowNumberBox@CBoxMgr@GUI@@SAPAUstNumBox@2@P6AXPAVCCompent@2@HHHK@ZHPBD_N3@Z 004e9b70 f   UIBoxForm.obj
 0001:000e8d50       ?ShowPasswordBox@CBoxMgr@GUI@@SAPAUstPasswordBox@2@P6AXPAVCCompent@2@HHHK@ZPBD2_N@Z 004e9d50 f   UIBoxForm.obj
 0001:000e8ec0       ?ShowSelectBox@CBoxMgr@GUI@@SAPAUstSelectBox@2@P6AXPAVCCompent@2@HHHK@ZPBD_N@Z 004e9ec0 f   UIBoxForm.obj
 0001:000e9000       ?ShowTradeBox@CBoxMgr@GUI@@SAPAUstTradeBox@2@P6AXPAVCCompent@2@HHHK@ZMHPBD@Z 004ea000 f   UIBoxForm.obj
 0001:000e91f0       ?_ClearBox@CBoxMgr@GUI@@CAXAAVCHideForm@2@@Z 004ea1f0 f   UIBoxForm.obj
 0001:000e9250       ?_FindForm@CBoxMgr@GUI@@AAEPAVCForm@2@PBD@Z 004ea250 f   UIBoxForm.obj
 0001:000e92a0       ?_Xlength@?$vector@PAVCForm@GUI@@V?$allocator@PAVCForm@GUI@@@std@@@std@@CAXXZ 004ea2a0 f i UIBoxForm.obj
 0001:000e92b0       ?deallocate@?$allocator@PAVCForm@GUI@@@std@@QAEXQAPAVCForm@GUI@@I@Z 004ea2b0 f i UIBoxForm.obj
 0001:000e92f0       ??0CChaQeryInfo@GUI@@QAE@XZ 004ea2f0 f   UIChaInfo.obj
 0001:000e93b0       ??1?$_List_alloc@U?$_List_base_types@UstQueryResoultPersonInfo@@V?$allocator@UstQueryResoultPersonInfo@@@std@@@std@@@std@@QAE@XZ 004ea3b0 f i UIChaInfo.obj
 0001:000e9410       ??1?$_List_buy@UstQueryResoultPersonInfo@@V?$allocator@UstQueryResoultPersonInfo@@@std@@@std@@QAE@XZ 004ea410 f i UIChaInfo.obj
 0001:000e9470       ??1?$list@UstQueryResoultPersonInfo@@V?$allocator@UstQueryResoultPersonInfo@@@std@@@std@@QAE@XZ 004ea470 f i UIChaInfo.obj
 0001:000e9520       ??_GCChaQeryInfo@GUI@@UAEPAXI@Z 004ea520 f i UIChaInfo.obj
 0001:000e9520       ??_ECChaQeryInfo@GUI@@UAEPAXI@Z 004ea520 f i UIChaInfo.obj
 0001:000e9590       ?ClearQueryRFrmData@CChaQeryInfo@GUI@@QAEXXZ 004ea590 f   UIChaInfo.obj
 0001:000e95a0       ?End@CChaQeryInfo@GUI@@UAEXXZ 004ea5a0 f   UIChaInfo.obj
 0001:000e95b0       ?FrameMove@CChaQeryInfo@GUI@@UAEXK@Z 004ea5b0 f   UIChaInfo.obj
 0001:000e95c0       ?Init@CChaQeryInfo@GUI@@UAE_NXZ 004ea5c0 f   UIChaInfo.obj
 0001:000e9fc0       ?SetQueryRFrmData@CChaQeryInfo@GUI@@QAE_NPAUstQueryResoultPersonInfo@@H@Z 004eafc0 f   UIChaInfo.obj
 0001:000ea090       ?SetSearchFrmData@CChaQeryInfo@GUI@@QAE_NPAUstPersonInfo@@PAVCMember@2@@Z 004eb090 f   UIChaInfo.obj
 0001:000ea4e0       ?SetShowQRChaInfo@CChaQeryInfo@GUI@@QAEX_N@Z 004eb4e0 f   UIChaInfo.obj
 0001:000ea4f0       ?UpdateInfo@CChaQeryInfo@GUI@@QAEXXZ 004eb4f0 f   UIChaInfo.obj
 0001:000eade0       ?_Buynode0@?$_List_alloc@U?$_List_base_types@UstQueryResoultPersonInfo@@V?$allocator@UstQueryResoultPersonInfo@@@std@@@std@@@std@@QAEPAU?$_List_node@UstQueryResoultPersonInfo@@PAX@2@PAU32@0@Z 004ebde0 f i UIChaInfo.obj
 0001:000eae80       ?_evQFrm@CChaQeryInfo@GUI@@CAXPAVCGuiData@2@HHK@Z 004ebe80 f   UIChaInfo.obj
 0001:000eaec0       ?_evSFrm@CChaQeryInfo@GUI@@CAXPAVCGuiData@2@HHK@Z 004ebec0 f   UIChaInfo.obj
 0001:000eaed0       ?deallocate@?$allocator@U?$_List_node@UstQueryResoultPersonInfo@@PAX@std@@@std@@QAEXQAU?$_List_node@UstQueryResoultPersonInfo@@PAX@2@I@Z 004ebed0 f i UIChaInfo.obj
 0001:000eaf10       ??0CChat@GUI@@QAE@XZ       004ebf10 f   UIChat.obj
 0001:000eafd0       ??0sApplyMember@CTalkSessionFormMgr@@QAE@XZ 004ebfd0 f i UIChat.obj
 0001:000eb020       ??1?$vector@U?$pair@V?$basic_string@DU?$char_traits@D@std@@V?$allocator@D@2@@std@@PAVCTreeGridNode@GUI@@@std@@V?$allocator@U?$pair@V?$basic_string@DU?$char_traits@D@std@@V?$allocator@D@2@@std@@PAVCTreeGridNode@GUI@@@std@@@2@@std@@QAE@XZ 004ec020 f i UIChat.obj
 0001:000eb0f0       ??1sApplyMember@CTalkSessionFormMgr@@QAE@XZ 004ec0f0 f i UIChat.obj
 0001:000eb140       ??Y?$basic_string@DU?$char_traits@D@std@@V?$allocator@D@2@@std@@QAEAAV01@QBD@Z 004ec140 f i UIChat.obj
 0001:000eb170       ??_ECChat@GUI@@UAEPAXI@Z   004ec170 f i UIChat.obj
 0001:000eb170       ??_GCChat@GUI@@UAEPAXI@Z   004ec170 f i UIChat.obj
 0001:000eb1e0       ?CaptainConfirm@CChat@GUI@@QAEXK@Z 004ec1e0 f   UIChat.obj
 0001:000eb220       ?ChangeFrndGroup@CChat@GUI@@QAEXPBD0@Z 004ec220 f   UIChat.obj
 0001:000eb310       ?ClearTeam@CChat@GUI@@QAEXXZ 004ec310 f   UIChat.obj
 0001:000eb330       ?DelFrndGroup@CChat@GUI@@QAEXPBD@Z 004ec330 f   UIChat.obj
 0001:000eb540       ?End@CChat@GUI@@UAEXXZ     004ec540 f   UIChat.obj
 0001:000eb5b0       ?Init@CChat@GUI@@UAE_NXZ   004ec5b0 f   UIChat.obj
 0001:000ec720       ?MasterAsk@CChat@GUI@@QAEXPBDK@Z 004ed720 f   UIChat.obj
 0001:000ec7b0       ?PrenticeAsk@CChat@GUI@@QAEXPBDK@Z 004ed7b0 f   UIChat.obj
 0001:000ec840       ?RefreshTeam@CChat@GUI@@QAEXXZ 004ed840 f   UIChat.obj
 0001:000ec970       ?RefreshTeamData@CChat@GUI@@QAEXPAVCMember@2@@Z 004ed970 f   UIChat.obj
 0001:000eca90       ?ResetSelfInfo@CChat@GUI@@QAEXPBUstPersonInfo@@@Z 004eda90 f   UIChat.obj
 0001:000ed300       ?SetHint@CHintGraph@GUI@@QAEXPBD@Z 004ee300 f i UIChat.obj
 0001:000ed330       ?SortOnlineFrnd@CChat@GUI@@QAEXXZ 004ee330 f   UIChat.obj
 0001:000ede50       ?TeamSend@CChat@GUI@@QAEHKPAXK@Z 004eee50 f   UIChat.obj
 0001:000ee4a0       ?_Error@CChat@GUI@@CA_NPBD00@Z 004ef4a0 f i UIChat.obj
 0001:000ee4c0       ?_MainMouseClick@CChat@GUI@@CAXPAVCGuiData@2@HHK@Z 004ef4c0 f   UIChat.obj
 0001:000eec10       ?_MemberMouseDownEvent@CChat@GUI@@CAXPAVCGuiData@2@HHK@Z 004efc10 f   UIChat.obj
 0001:000eedf0       ?_OnCaptainAskConfirm@CChat@GUI@@CAXPAVCCompent@2@HHHK@Z 004efdf0 f   UIChat.obj
 0001:000eee30       ?_OnFrndDeleteConfirm@CChat@GUI@@CAXPAVCCompent@2@HHHK@Z 004efe30 f   UIChat.obj
 0001:000eee60       ?_OnMasterAskConfirm@CChat@GUI@@CAXPAVCCompent@2@HHHK@Z 004efe60 f   UIChat.obj
 0001:000eeea0       ?_OnMasterDeleteConfirm@CChat@GUI@@CAXPAVCCompent@2@HHHK@Z 004efea0 f   UIChat.obj
 0001:000eeed0       ?_OnMouseFrndMenu@CChat@GUI@@CAXPAVCGuiData@2@HHK@Z 004efed0 f   UIChat.obj
 0001:000ef150       ?_OnMouseGroupMenu@CChat@GUI@@CAXPAVCGuiData@2@HHK@Z 004f0150 f   UIChat.obj
 0001:000ef390       ?_OnMouseMasterMenu@CChat@GUI@@CAXPAVCGuiData@2@HHK@Z 004f0390 f   UIChat.obj
 0001:000ef750       ?_OnMouseRoadMenu@CChat@GUI@@CAXPAVCGuiData@2@HHK@Z 004f0750 f   UIChat.obj
 0001:000ef960       ?_OnMouseSessMenu@CChat@GUI@@CAXPAVCGuiData@2@HHK@Z 004f0960 f   UIChat.obj
 0001:000efa90       ?_OnMouseStudentMenu@CChat@GUI@@CAXPAVCGuiData@2@HHK@Z 004f0a90 f   UIChat.obj
 0001:000efe10       ?_OnStudentAskConfirm@CChat@GUI@@CAXPAVCCompent@2@HHHK@Z 004f0e10 f   UIChat.obj
 0001:000efe50       ?_OnStudentDeleteConfirm@CChat@GUI@@CAXPAVCCompent@2@HHHK@Z 004f0e50 f   UIChat.obj
 0001:000efe80       ?_OnTimerFlash@CChat@GUI@@CAXPAVCGuiTime@2@@Z 004f0e80 f   UIChat.obj
 0001:000eff60       ?_RenderEvent@CChat@GUI@@CAXPAVC3DCompent@2@HH@Z 004f0f60 f   UIChat.obj
 0001:000eff80       ?_UpdateFrndInfo@CChat@GUI@@SA_NPAVCMember@2@@Z 004f0f80 f   UIChat.obj
 0001:000f0370       ?_UpdateSelfInfo@CChat@GUI@@SA_NXZ 004f1370 f   UIChat.obj
 0001:000f05c0       ?_evtAddFrnd@CChat@GUI@@CAXPAVCGuiData@2@HHK@Z 004f15c0 f   UIChat.obj
 0001:000f0760       ?_evtChangeMotto@CChat@GUI@@CAXPAVCGuiData@2@HHK@Z 004f1760 f   UIChat.obj
 0001:000f1200       ?_evtChangeStyle@CChat@GUI@@CAXPAVCGuiData@2@HHK@Z 004f2200 f   UIChat.obj
 0001:000f1370       ?_evtGostMainEditMotto@CChat@GUI@@CAXPAVCGuiData@2@HHK@Z 004f2370 f   UIChat.obj
 0001:000f1390       ?_evtQQMainAddFrnd@CChat@GUI@@CAXPAVCGuiData@2@HHK@Z 004f2390 f   UIChat.obj
 0001:000f13b0       ?_evtQQMainEditMotto@CChat@GUI@@CAXPAVCGuiData@2@HHK@Z 004f23b0 f   UIChat.obj
 0001:000f1550       ?_evtQQMainShow@CChat@GUI@@CAXPAVCGuiData@2@@Z 004f2550 f   UIChat.obj
 0001:000f15f0       ??0CCheckBox@GUI@@QAE@AAVCForm@1@@Z 004f25f0 f   UICheckBox.obj
 0001:000f16e0       ??0CCheckGroup@GUI@@QAE@AAVCForm@1@@Z 004f26e0 f   UICheckBox.obj
 0001:000f1770       ??_ECCheckBox@GUI@@UAEPAXI@Z 004f2770 f i UICheckBox.obj
 0001:000f1770       ??_GCCheckBox@GUI@@UAEPAXI@Z 004f2770 f i UICheckBox.obj
 0001:000f1830       ??_ECCheckGroup@GUI@@UAEPAXI@Z 004f2830 f i UICheckBox.obj
 0001:000f1830       ??_GCCheckGroup@GUI@@UAEPAXI@Z 004f2830 f i UICheckBox.obj
 0001:000f1890       ?Clone@CCheckBox@GUI@@UAEPAVCGuiData@2@XZ 004f2890 f i UICheckBox.obj
 0001:000f1990       ?Clone@CCheckBox@GUI@@UAE_NPAVCGuiData@2@@Z 004f2990 f i UICheckBox.obj
 0001:000f1a30       ?Clone@CCheckGroup@GUI@@UAEPAVCGuiData@2@XZ 004f2a30 f i UICheckBox.obj
 0001:000f1ad0       ?Clone@CCheckGroup@GUI@@UAE_NPAVCGuiData@2@@Z 004f2ad0 f i UICheckBox.obj
 0001:000f1b10       ?GetImage@CCheckBox@GUI@@UAEPAVCGuiPic@2@XZ 004f2b10 f i UICheckBox.obj
 0001:000f1b20       ?Init@CCheckGroup@GUI@@UAEXXZ 004f2b20 f   UICheckBox.obj
 0001:000f1b50       ?IsHandleMouse@CCheckBox@GUI@@UAE_NXZ 004f2b50 f i UICheckBox.obj
 0001:000f1b60       ?IsHandleMouse@CCheckGroup@GUI@@UAE_NXZ 004f2b60 f i UICheckBox.obj
 0001:000f1b70       ?MouseRun@CCheckBox@GUI@@UAE_NHHK@Z 004f2b70 f   UICheckBox.obj
 0001:000f1c50       ?Refresh@CCheckBox@GUI@@UAEXXZ 004f2c50 f   UICheckBox.obj
 0001:000f1d90       ?Render@CCheckBox@GUI@@UAEXXZ 004f2d90 f   UICheckBox.obj
 0001:000f1ea0       ?SetActiveIndex@CCheckGroup@GUI@@QAEXH@Z 004f2ea0 f   UICheckBox.obj
 0001:000f1ed0       ?SetAlpha@CCheckBox@GUI@@UAEXE@Z 004f2ed0 f i UICheckBox.obj
 0001:000f1ee0       ?SetCaption@CCheckBox@GUI@@UAEXPBD@Z 004f2ee0 f i UICheckBox.obj
 0001:000f1f10       ?SetCommand@CContainer@GUI@@UAE?AW4eAccept@2@PAVCCommandObj@2@HH@Z 004f2f10 f i UICheckBox.obj
 0001:000f1f20       ?SetTextColor@CCheckBox@GUI@@UAEXK@Z 004f2f20 f i UICheckBox.obj
 0001:000f1f30       ?_CheckChange@CCheckGroup@GUI@@CAXPAVCGuiData@2@@Z 004f2f30 f i UICheckBox.obj
 0001:000f1f60       ?_SetSelf@CCheckGroup@GUI@@AAEXXZ 004f2f60 f   UICheckBox.obj
 0001:000f1fe0       ?_UpdataActive@CCheckGroup@GUI@@AAEXPAVCCheckBox@2@@Z 004f2fe0 f   UICheckBox.obj
 0001:000f20a0       ??1CGraph@GUI@@UAE@XZ      004f30a0 f i UICheckBoxItem.obj
 0001:000f2130       ??_GCGraph@GUI@@UAEPAXI@Z  004f3130 f i UICheckBoxItem.obj
 0001:000f2130       ??_ECGraph@GUI@@UAEPAXI@Z  004f3130 f i UICheckBoxItem.obj
 0001:000f21d0       ??_GCItemObj@GUI@@UAEPAXI@Z 004f31d0 f i UICheckBoxItem.obj
 0001:000f21d0       ??_ECItemObj@GUI@@UAEPAXI@Z 004f31d0 f i UICheckBoxItem.obj
 0001:000f2200       ?Clone@CGraph@GUI@@UAEPAV12@XZ 004f3200 f i UICheckBoxItem.obj
 0001:000f22c0       ?Clone@CGraph@GUI@@UAE_NPAVCItemObj@2@@Z 004f32c0 f i UICheckBoxItem.obj
 0001:000f2310       ?Clone@CItemObj@GUI@@UAEPAV12@XZ 004f3310 f i UICheckBoxItem.obj
 0001:000f2330       ?Clone@CItemObj@GUI@@UAE_NPAV12@@Z 004f3330 f i UICheckBoxItem.obj
 0001:000f2340       ?GetHeight@CGraph@GUI@@UAEHXZ 004f3340 f i UICheckBoxItem.obj
 0001:000f2360       ?GetHeight@CItemObj@GUI@@UAEHXZ 004f3360 f i UICheckBoxItem.obj
 0001:000f2370       ?GetString@CItemObj@GUI@@UAEPBDXZ 004f3370 f i UICheckBoxItem.obj
 0001:000f2380       ?GetWidth@CGraph@GUI@@UAEHXZ 004f3380 f i UICheckBoxItem.obj
 0001:000f23a0       ?GetWidth@CItemObj@GUI@@UAEHXZ 004f33a0 f i UICheckBoxItem.obj
 0001:000f23b0       ?HasHint@CItemObj@GUI@@UAE_NXZ 004f33b0 f i UICheckBoxItem.obj
 0001:000f23c0       ?ReadyForHint@CItemObj@GUI@@UAEXHHPAVCCompent@2@@Z 004f33c0 f i UICheckBoxItem.obj
 0001:000f23d0       ?Render@CGraph@GUI@@UAEXHH@Z 004f33d0 f i UICheckBoxItem.obj
 0001:000f2400       ?Render@CItemObj@GUI@@UAEXHH@Z 004f3400 f i UICheckBoxItem.obj
 0001:000f2410       ?RenderHint@CItemObj@GUI@@UAEXHH@Z 004f3410 f i UICheckBoxItem.obj
 0001:000f2420       ?SetColor@CItemObj@GUI@@UAEXK@Z 004f3420 f i UICheckBoxItem.obj
 0001:000f2430       ?SetString@CItemObj@GUI@@UAEXPBD@Z 004f3430 f i UICheckBoxItem.obj
 0001:000f2440       ?SetWidth@CItemObj@GUI@@UAEXH@Z 004f3440 f i UICheckBoxItem.obj
 0001:000f2450       ??0CCloneForm@GUI@@QAE@XZ  004f3450 f   UICloneForm.obj
 0001:000f24c0       ??1CCloneForm@GUI@@QAE@XZ  004f34c0 f   UICloneForm.obj
 0001:000f2510       ?Clone@CCloneForm@GUI@@QAEPAVCForm@2@XZ 004f3510 f   UICloneForm.obj
 0001:000f2660       ?CloseAll@CHideForm@GUI@@QAEXXZ 004f3660 f   UICloneForm.obj
 0001:000f2690       ?GetHide@CHideForm@GUI@@QAEPAVCForm@2@XZ 004f3690 f   UICloneForm.obj
 0001:000f27f0       ?Release@CCloneForm@GUI@@QAE_NPAVCForm@2@@Z 004f37f0 f   UICloneForm.obj
 0001:000f2860       ??0CCombo@GUI@@QAE@AAVCForm@1@@Z 004f3860 f   UICombo.obj
 0001:000f2970       ??_GCCombo@GUI@@UAEPAXI@Z  004f3970 f i UICombo.obj
 0001:000f2970       ??_ECCombo@GUI@@UAEPAXI@Z  004f3970 f i UICombo.obj
 0001:000f29e0       ?Clone@CCombo@GUI@@UAEPAVCGuiData@2@XZ 004f39e0 f i UICombo.obj
 0001:000f2b40       ?Clone@CCombo@GUI@@UAE_NPAVCGuiData@2@@Z 004f3b40 f i UICombo.obj
 0001:000f2be0       ?Init@CCombo@GUI@@UAEXXZ   004f3be0 f   UICombo.obj
 0001:000f2ca0       ?IsHandleMouse@CCombo@GUI@@UAE_NXZ 004f3ca0 f i UICombo.obj
 0001:000f2cb0       ?MouseRun@CCombo@GUI@@UAE_NHHK@Z 004f3cb0 f   UICombo.obj
 0001:000f2e00       ?MouseScroll@CCombo@GUI@@UAE_NH@Z 004f3e00 f   UICombo.obj
 0001:000f2e30       ?OnActive@CCombo@GUI@@UAEXXZ 004f3e30 f   UICombo.obj
 0001:000f2e50       ?OnChar@CCombo@GUI@@UAE_NE@Z 004f3e50 f   UICombo.obj
 0001:000f2e90       ?OnKeyDown@CCombo@GUI@@UAE_NE@Z 004f3e90 f   UICombo.obj
 0001:000f2ec0       ?OnLost@CCombo@GUI@@UAEXXZ 004f3ec0 f   UICombo.obj
 0001:000f2ee0       ?Refresh@CCombo@GUI@@UAEXXZ 004f3ee0 f   UICombo.obj
 0001:000f2f10       ?Render@CCombo@GUI@@UAEXXZ 004f3f10 f   UICombo.obj
 0001:000f2f40       ?SetAlpha@CCombo@GUI@@UAEXE@Z 004f3f40 f   UICombo.obj
 0001:000f2f80       ?SetListStyle@CCombo@GUI@@QAEXW4eListStyle@12@@Z 004f3f80 f   UICombo.obj
 0001:000f2fa0       ?_OnButtonClick@CCombo@GUI@@KAXPAVCGuiData@2@HHK@Z 004f3fa0 f i UICombo.obj
 0001:000f2fe0       ?_OnListDown@CCombo@GUI@@KAXPAVCGuiData@2@HHK@Z 004f3fe0 f i UICombo.obj
 0001:000f3010       ?_OnListSelectChange@CCombo@GUI@@KAXPAVCGuiData@2@@Z 004f4010 f i UICombo.obj
 0001:000f3060       ?_SetSelf@CCombo@GUI@@IAEXXZ 004f4060 f   UICombo.obj
 0001:000f30c0       ??1CCommandObj@GUI@@UAE@XZ 004f40c0 f   UICommand.obj
 0001:000f3130       ??_GCCommandObj@GUI@@UAEPAXI@Z 004f4130 f i UICommand.obj
 0001:000f3130       ??_ECCommandObj@GUI@@UAEPAXI@Z 004f4130 f i UICommand.obj
 0001:000f31c0       ?AddHint@CCommandObj@GUI@@MAEXHHH@Z 004f41c0 f i UICommand.obj
 0001:000f31d0       ?Clone@CCommandObj@GUI@@UAEPAV12@XZ 004f41d0 f i UICommand.obj
 0001:000f3290       ?Clone@CCommandObj@GUI@@UAE_NPAVCItemObj@2@@Z 004f4290 f i UICommand.obj
 0001:000f3300       ?Error@CCommandObj@GUI@@MAEXXZ 004f4300 f i UICommand.obj
 0001:000f3310       ?Exec@CCommandObj@GUI@@QAE_NXZ 004f4310 f   UICommand.obj
 0001:000f3380       ?GetIsPile@CCommandObj@GUI@@UAE_NXZ 004f4380 f i UICommand.obj
 0001:000f3390       ?GetIsSolid@CCommandObj@GUI@@UAE_NXZ 004f4390 f i UICommand.obj
 0001:000f33a0       ?GetIsValid@CCommandObj@GUI@@UAE_NXZ 004f43a0 f i UICommand.obj
 0001:000f33b0       ?GetName@CCommandObj@GUI@@UAEPBDXZ 004f43b0 f i UICommand.obj
 0001:000f33c0       ?GetPrice@CCommandObj@GUI@@UAEHXZ 004f43c0 f i UICommand.obj
 0001:000f33d0       ?GetTotalNum@CCommandObj@GUI@@UAEHXZ 004f43d0 f i UICommand.obj
 0001:000f33e0       ?HasHint@CCommandObj@GUI@@UAE_NXZ 004f43e0 f i UICommand.obj
 0001:000f33f0       ?IsAllowEquip@CCommandObj@GUI@@UAE_NXZ 004f43f0 f i UICommand.obj
 0001:000f3400       ?IsAllowThrow@CCommandObj@GUI@@UAE_NXZ 004f4400 f i UICommand.obj
 0001:000f3410       ?IsAllowUse@CCommandObj@GUI@@UAE_NXZ 004f4410 f i UICommand.obj
 0001:000f3420       ?IsAtOnce@CCommandObj@GUI@@MAE_NXZ 004f4420 f i UICommand.obj
 0001:000f3430       ?IsDragFast@CCommandObj@GUI@@UAE_NXZ 004f4430 f i UICommand.obj
 0001:000f3440       ?MouseDown@CCommandObj@GUI@@UAE_NXZ 004f4440 f i UICommand.obj
 0001:000f3450       ?OwnDefRender@CCommandObj@GUI@@UAEXHHHH@Z 004f4450 f i UICommand.obj
 0001:000f3460       ?ReadyForHint@CCommandObj@GUI@@UAEXHHPAVCCompent@2@@Z 004f4460 f   UICommand.obj
 0001:000f3550       ?ReadyUse@CCommandObj@GUI@@MAE_NXZ 004f4550 f i UICommand.obj
 0001:000f3560       ?RenderEnergy@CCommandObj@GUI@@UAEXHH@Z 004f4560 f i UICommand.obj
 0001:000f3570       ?RenderHint@CCommandObj@GUI@@UAEXHH@Z 004f4570 f   UICommand.obj
 0001:000f3580       ?SaleRender@CCommandObj@GUI@@UAEXHHHH@Z 004f4580 f i UICommand.obj
 0001:000f3590       ?SetIsFast@CCommandObj@GUI@@QAEX_N@Z 004f4590 f   UICommand.obj
 0001:000f35b0       ?SetIsSolid@CCommandObj@GUI@@UAEX_N@Z 004f45b0 f i UICommand.obj
 0001:000f35c0       ?SetIsValid@CCommandObj@GUI@@UAEX_N@Z 004f45c0 f i UICommand.obj
 0001:000f35d0       ?SetTotalNum@CCommandObj@GUI@@UAEXH@Z 004f45d0 f i UICommand.obj
 0001:000f35e0       ?StartCommand@CCommandObj@GUI@@UAE_NXZ 004f45e0 f i UICommand.obj
 0001:000f35f0       ?UseCommand@CCommandObj@GUI@@UAE_NXZ 004f45f0 f   UICommand.obj
 0001:000f3600       ?_Exec@CCommandObj@GUI@@AAE_NXZ 004f4600 f   UICommand.obj
 0001:000f3640       ??0CCommandCompent@GUI@@QAE@AAVCForm@1@@Z 004f4640 f   UICommandCompent.obj
 0001:000f36a0       ??0CCommandCompent@GUI@@QAE@ABV01@@Z 004f46a0 f   UICommandCompent.obj
 0001:000f3700       ??4CCommandCompent@GUI@@QAEAAV01@ABV01@@Z 004f4700 f   UICommandCompent.obj
 0001:000f3720       ??_GCCommandCompent@GUI@@UAEPAXI@Z 004f4720 f i UICommandCompent.obj
 0001:000f3720       ??_ECCommandCompent@GUI@@UAEPAXI@Z 004f4720 f i UICommandCompent.obj
 0001:000f3780       ?Clone@CCommandCompent@GUI@@UAEPAVCGuiData@2@XZ 004f4780 f i UICommandCompent.obj
 0001:000f3810       ?Clone@CCommandCompent@GUI@@UAE_NPAVCGuiData@2@@Z 004f4810 f i UICommandCompent.obj
 0001:000f3850       ?GetHitCommand@CCommandCompent@GUI@@UAEPAVCCompent@2@HH@Z 004f4850 f   UICommandCompent.obj
 0001:000f38a0       ?IsHandleMouse@CCommandCompent@GUI@@UAE_NXZ 004f48a0 f i UICommandCompent.obj
 0001:000f38b0       ?Render@CGuiData@GUI@@UAEXXZ 004f48b0 f i UICommandCompent.obj
 0001:000f38c0       ??$_Emplace_reallocate@ABQAVCCompent@GUI@@@?$vector@PAVCCompent@GUI@@V?$allocator@PAVCCompent@GUI@@@std@@@std@@QAEPAPAVCCompent@GUI@@QAPAV23@ABQAV23@@Z 004f48c0 f i UICompent.obj
 0001:000f3a80       ??0CCompent@GUI@@QAE@AAVCForm@1@@Z 004f4a80 f   UICompent.obj
 0001:000f3b10       ??0CCompent@GUI@@QAE@ABV01@@Z 004f4b10 f   UICompent.obj
 0001:000f3bb0       ??0CContainer@GUI@@QAE@AAVCForm@1@@Z 004f4bb0 f   UICompent.obj
 0001:000f3c90       ??0CContainer@GUI@@QAE@ABV01@@Z 004f4c90 f   UICompent.obj
 0001:000f3d40       ??1?$vector@PAVCCompent@GUI@@V?$allocator@PAVCCompent@GUI@@@std@@@std@@QAE@XZ 004f4d40 f i UICompent.obj
 0001:000f3dd0       ??1CCompent@GUI@@UAE@XZ    004f4dd0 f   UICompent.obj
 0001:000f3e20       ??1CContainer@GUI@@UAE@XZ  004f4e20 f   UICompent.obj
 0001:000f3ea0       ??4CCompent@GUI@@QAEAAV01@ABV01@@Z 004f4ea0 f   UICompent.obj
 0001:000f3f00       ??4CContainer@GUI@@QAEAAV01@ABV01@@Z 004f4f00 f   UICompent.obj
 0001:000f3f60       ??_ECCompent@GUI@@UAEPAXI@Z 004f4f60 f i UICompent.obj
 0001:000f3f60       ??_GCCompent@GUI@@UAEPAXI@Z 004f4f60 f i UICompent.obj
 0001:000f3fd0       ??_GCContainer@GUI@@UAEPAXI@Z 004f4fd0 f i UICompent.obj
 0001:000f3fd0       ??_ECContainer@GUI@@UAEPAXI@Z 004f4fd0 f i UICompent.obj
 0001:000f4070       ?AddCompent@CContainer@GUI@@QAE_NPAVCCompent@2@@Z 004f5070 f   UICompent.obj
 0001:000f4120       ?AddForm@CCompent@GUI@@QAEXXZ 004f5120 f   UICompent.obj
 0001:000f4150       ?Clone@CCompent@GUI@@UAEPAVCGuiData@2@XZ 004f5150 f i UICompent.obj
 0001:000f41d0       ?Clone@CCompent@GUI@@UAE_NPAVCGuiData@2@@Z 004f51d0 f i UICompent.obj
 0001:000f4250       ?Clone@CContainer@GUI@@UAEPAVCGuiData@2@XZ 004f5250 f i UICompent.obj
 0001:000f4330       ?Clone@CContainer@GUI@@UAE_NPAVCGuiData@2@@Z 004f5330 f i UICompent.obj
 0001:000f43c0       ?Find@CContainer@GUI@@UAEPAVCCompent@2@PBD@Z 004f53c0 f   UICompent.obj
 0001:000f4430       ?ForEach@CContainer@GUI@@QAEXP6AXPAVCCompent@2@I@Z@Z 004f5430 f   UICompent.obj
 0001:000f4470       ?FrameMove@CContainer@GUI@@UAEXK@Z 004f5470 f   UICompent.obj
 0001:000f44b0       ?GetHintCompent@CCompent@GUI@@UAEPAV12@HH@Z 004f54b0 f   UICompent.obj
 0001:000f4500       ?GetHintCompent@CContainer@GUI@@UAEPAVCCompent@2@HH@Z 004f5500 f   UICompent.obj
 0001:000f4580       ?GetHitCommand@CContainer@GUI@@UAEPAVCCompent@2@HH@Z 004f5580 f   UICompent.obj
 0001:000f45d0       ?Init@CContainer@GUI@@UAEXXZ 004f55d0 f   UICompent.obj
 0001:000f4600       ?IsHandleMouse@CCompent@GUI@@UAE_NXZ 004f5600 f i UICompent.obj
 0001:000f4610       ?MouseRun@CCompent@GUI@@UAE_NHHK@Z 004f5610 f   UICompent.obj
 0001:000f46c0       ?MouseRun@CContainer@GUI@@UAE_NHHK@Z 004f56c0 f   UICompent.obj
 0001:000f4720       ?OnActive@CCompent@GUI@@UAEXXZ 004f5720 f   UICompent.obj
 0001:000f4740       ?Refresh@CCompent@GUI@@UAEXXZ 004f5740 f   UICompent.obj
 0001:000f4900       ?Refresh@CContainer@GUI@@UAEXXZ 004f5900 f   UICompent.obj
 0001:000f4aa0       ?Render@CContainer@GUI@@UAEXXZ 004f5aa0 f   UICompent.obj
 0001:000f4ad0       ?SetActive@CCompent@GUI@@SAXPAV12@@Z 004f5ad0 f   UICompent.obj
 0001:000f4b10       ?SetAlign@CCompent@GUI@@UAEXW4eCompentAlign@2@@Z 004f5b10 f   UICompent.obj
 0001:000f4b30       ?SetAlpha@CContainer@GUI@@UAEXE@Z 004f5b30 f   UICompent.obj
 0001:000f4b70       ?SetIsDrag@CCompent@GUI@@UAEX_N@Z 004f5b70 f   UICompent.obj
 0001:000f4b90       ?SetIsShow@CCompent@GUI@@UAEX_N@Z 004f5b90 f   UICompent.obj
 0001:000f4bd0       ?SetNullFocus@CCompent@GUI@@UAEXXZ 004f5bd0 f   UICompent.obj
 0001:000f4bf0       ?SetParent@CCompent@GUI@@UAEXPAVCGuiData@2@@Z 004f5bf0 f   UICompent.obj
 0001:000f4c10       ?_AddForm@CCompent@GUI@@MAEXXZ 004f5c10 f   UICompent.obj
 0001:000f4c40       ?_SetSelf@CContainer@GUI@@AAEXABV12@@Z 004f5c40 f   UICompent.obj
 0001:000f4cd0       ?_Xlength@?$vector@PAVCCompent@GUI@@V?$allocator@PAVCCompent@GUI@@@std@@@std@@CAXXZ 004f5cd0 f i UICompent.obj
 0001:000f4ce0       ?deallocate@?$allocator@PAVCCompent@GUI@@@std@@QAEXQAPAVCCompent@GUI@@I@Z 004f5ce0 f i UICompent.obj
 0001:000f4d20       ??$?8DU?$char_traits@D@std@@V?$allocator@D@1@@std@@YA_NABV?$basic_string@DU?$char_traits@D@std@@V?$allocator@D@2@@0@0@Z 004f5d20 f i UICozeForm.obj
 0001:000f4d60       ??$?HDU?$char_traits@D@std@@V?$allocator@D@1@@std@@YA?AV?$basic_string@DU?$char_traits@D@std@@V?$allocator@D@2@@0@ABV10@0@Z 004f5d60 f i UICozeForm.obj
 0001:000f4e20       ??$_Buynode@ABUsTextInfo@CCharMsg@@@?$_List_buy@UsTextInfo@CCharMsg@@V?$allocator@UsTextInfo@CCharMsg@@@std@@@std@@QAEPAU?$_List_node@UsTextInfo@CCharMsg@@PAX@1@PAU21@0ABUsTextInfo@CCharMsg@@@Z 004f5e20 f i UICozeForm.obj
 0001:000f4eb0       ??$_Buynode@PAVCCharMsg@@@?$_List_buy@PAVCCharMsg@@V?$allocator@PAVCCharMsg@@@std@@@std@@QAEPAU?$_List_node@PAVCCharMsg@@PAX@1@PAU21@0$$QAPAVCCharMsg@@@Z 004f5eb0 f i UICozeForm.obj
 0001:000f4f30       ??$_Traits_find@U?$char_traits@D@std@@@std@@YAIQBDII0I@Z 004f5f30 f i UICozeForm.obj
 0001:000f5020       ??$construct@UsTextInfo@CCharMsg@@ABU12@@?$_Default_allocator_traits@V?$allocator@U?$_List_node@UsTextInfo@CCharMsg@@PAX@std@@@std@@@std@@SAXAAV?$allocator@U?$_List_node@UsTextInfo@CCharMsg@@PAX@std@@@1@QAUsTextInfo@CCharMsg@@ABU34@@Z 004f6020 f i UICozeForm.obj
 0001:000f50b0       ??$count@V?$_String_iterator@V?$_String_val@U?$_Simple_types@D@std@@@std@@@std@@D@std@@YAHV?$_String_iterator@V?$_String_val@U?$_Simple_types@D@std@@@std@@@0@0ABD@Z 004f60b0 f i UICozeForm.obj
 0001:000f50f0       ??0CChannelSwitchForm@GUI@@QAE@XZ 004f60f0 f   UICozeForm.obj
 0001:000f5150       ??0CCharMsg@@QAE@XZ        004f6150 f   UICozeForm.obj
 0001:000f51c0       ??0CCozeForm@GUI@@QAE@XZ   004f61c0 f   UICozeForm.obj
 0001:000f52d0       ??0CItemEx@GUI@@QAE@PBDK@Z 004f62d0 f i UICozeForm.obj
 0001:000f5400       ??1?$_List_alloc@U?$_List_base_types@PAVCCharMsg@@V?$allocator@PAVCCharMsg@@@std@@@std@@@std@@QAE@XZ 004f6400 f i UICozeForm.obj
 0001:000f5440       ??1?$_List_alloc@U?$_List_base_types@UsTextInfo@CCharMsg@@V?$allocator@UsTextInfo@CCharMsg@@@std@@@std@@@std@@QAE@XZ 004f6440 f i UICozeForm.obj
 0001:000f5480       ??1?$_List_buy@PAVCCharMsg@@V?$allocator@PAVCCharMsg@@@std@@@std@@QAE@XZ 004f6480 f i UICozeForm.obj
 0001:000f54d0       ??1?$_List_buy@UsTextInfo@CCharMsg@@V?$allocator@UsTextInfo@CCharMsg@@@std@@@std@@QAE@XZ 004f64d0 f i UICozeForm.obj
 0001:000f5520       ??1CCardCase@@QAE@XZ       004f6520 f   UICozeForm.obj
 0001:000f5590       ??1CChannelSwitchForm@GUI@@UAE@XZ 004f6590 f   UICozeForm.obj
 0001:000f55e0       ??1CCharMsg@@QAE@XZ        004f65e0 f   UICozeForm.obj
 0001:000f5690       ??1CCozeForm@GUI@@UAE@XZ   004f6690 f   UICozeForm.obj
 0001:000f5760       ??1sChannelInfo@CCharMsg@@QAE@XZ 004f6760 f i UICozeForm.obj
 0001:000f57b0       ??1sTextInfo@CCharMsg@@QAE@XZ 004f67b0 f i UICozeForm.obj
 0001:000f5820       ??_GCChannelSwitchForm@GUI@@UAEPAXI@Z 004f6820 f i UICozeForm.obj
 0001:000f5820       ??_ECChannelSwitchForm@GUI@@UAEPAXI@Z 004f6820 f i UICozeForm.obj
 0001:000f5890       ??_GCCozeForm@GUI@@UAEPAXI@Z 004f6890 f i UICozeForm.obj
 0001:000f5890       ??_ECCozeForm@GUI@@UAEPAXI@Z 004f6890 f i UICozeForm.obj
 0001:000f5970       ??_ECItemEx@GUI@@UAEPAXI@Z 004f6970 f i UICozeForm.obj
 0001:000f5970       ??_GCItemEx@GUI@@UAEPAXI@Z 004f6970 f i UICozeForm.obj
 0001:000f5a10       ?AddCard@CCardCase@@QAEXV?$basic_string@DU?$char_traits@D@std@@V?$allocator@D@2@@std@@@Z 004f6a10 f   UICozeForm.obj
 0001:000f5b70       ?AddMsg@CCharMsg@@SAXW4eChannel@1@V?$basic_string@DU?$char_traits@D@std@@V?$allocator@D@2@@std@@1_N@Z 004f6b70 f   UICozeForm.obj
 0001:000f6290       ?AddToEdit@CCozeForm@GUI@@QAEXV?$basic_string@DU?$char_traits@D@std@@V?$allocator@D@2@@std@@@Z 004f7290 f   UICozeForm.obj
 0001:000f63d0       ?ChangePrivatePlayerName@CCozeForm@GUI@@IAEXV?$basic_string@DU?$char_traits@D@std@@V?$allocator@D@2@@std@@@Z 004f73d0 f   UICozeForm.obj
 0001:000f6960       ?ClearAllMsg@CCharMsg@@SAXXZ 004f7960 f   UICozeForm.obj
 0001:000f69c0       ?Clone@CItemEx@GUI@@UAEPAV12@XZ 004f79c0 f i UICozeForm.obj
 0001:000f6ae0       ?Clone@CItemEx@GUI@@UAE_NPAVCItemObj@2@@Z 004f7ae0 f i UICozeForm.obj
 0001:000f6b50       ?EventActionPanelSwitchClick@CCozeForm@GUI@@KAXPAVCGuiData@2@HHK@Z 004f7b50 f   UICozeForm.obj
 0001:000f6ba0       ?EventActionSelected@CCozeForm@GUI@@KAXPAVCGuiData@2@@Z 004f7ba0 f   UICozeForm.obj
 0001:000f6be0       ?EventBrowPanelSwitchClick@CCozeForm@GUI@@KAXPAVCGuiData@2@HHK@Z 004f7be0 f   UICozeForm.obj
 0001:000f6c30       ?EventBrowSelected@CCozeForm@GUI@@KAXPAVCGuiData@2@@Z 004f7c30 f   UICozeForm.obj
 0001:000f6cc0       ?EventCallingCardSwitchClick@CCozeForm@GUI@@KAXPAVCGuiData@2@HHK@Z 004f7cc0 f   UICozeForm.obj
 0001:000f6e60       ?EventCardSelected@CCozeForm@GUI@@KAXPAVCGuiData@2@@Z 004f7e60 f   UICozeForm.obj
 0001:000f6f70       ?EventChannelSwitchCheck@CCozeForm@GUI@@KAXPAVCGuiData@2@@Z 004f7f70 f   UICozeForm.obj
 0001:000f6fc0       ?EventEditMsg@CCozeForm@GUI@@KA_NPAVCGuiData@2@AAH@Z 004f7fc0 f   UICozeForm.obj
 0001:000f7110       ?EventFacePanelSwitchClick@CCozeForm@GUI@@KAXPAVCGuiData@2@HHK@Z 004f8110 f   UICozeForm.obj
 0001:000f7160       ?EventFaceSelected@CCozeForm@GUI@@KAXPAVCGuiData@2@@Z 004f8160 f   UICozeForm.obj
 0001:000f7210       ?EventGlobalKeyDownHandle@CCozeForm@GUI@@KA_NAAH@Z 004f8210 f   UICozeForm.obj
 0001:000f72b0       ?EventGuildCheckChange@CChannelSwitchForm@GUI@@KAXPAVCGuiData@2@@Z 004f82b0 f   UICozeForm.obj
 0001:000f72e0       ?EventLostFocus@CChannelSwitchForm@GUI@@KAXPAVCGuiData@2@@Z 004f82e0 f   UICozeForm.obj
 0001:000f7330       ?EventMainListKeyDown@CCozeForm@GUI@@KAXPAVCGuiData@2@HHK@Z 004f8330 f   UICozeForm.obj
 0001:000f7460       ?EventMainPageDragBegin@CCozeForm@GUI@@KAXPAVCGuiData@2@HHK@Z 004f8460 f   UICozeForm.obj
 0001:000f7480       ?EventMainPageDragEnd@CCozeForm@GUI@@KAXPAVCGuiData@2@HHK@Z 004f8480 f   UICozeForm.obj
 0001:000f74f0       ?EventMainPageDragging@CCozeForm@GUI@@KAXPAVCGuiData@2@HHK@Z 004f84f0 f   UICozeForm.obj
 0001:000f75f0       ?EventPrivateCheckChange@CChannelSwitchForm@GUI@@KAXPAVCGuiData@2@@Z 004f85f0 f   UICozeForm.obj
 0001:000f7620       ?EventPublishSendMsg1@CCozeForm@GUI@@KAXPAVCGuiData@2@@Z 004f8620 f   UICozeForm.obj
 0001:000f7730       ?EventPublishSendMsg@CCozeForm@GUI@@KAXPAVCGuiData@2@@Z 004f8730 f   UICozeForm.obj
 0001:000f7840       ?EventPublishShowForm@CCozeForm@GUI@@KAXPAVCForm@2@AA_N@Z 004f8840 f   UICozeForm.obj
 0001:000f7860       ?EventSendChannelChange@CCozeForm@GUI@@KAXPAVCGuiData@2@@Z 004f8860 f   UICozeForm.obj
 0001:000f7d10       ?EventSendChannelSwitchClick@CCozeForm@GUI@@KAXPAVCGuiData@2@HHK@Z 004f8d10 f   UICozeForm.obj
 0001:000f7d50       ?EventSendMsg@CCozeForm@GUI@@KAXPAVCGuiData@2@@Z 004f8d50 f   UICozeForm.obj
 0001:000f7d60       ?EventSightCheckChange@CChannelSwitchForm@GUI@@KAXPAVCGuiData@2@@Z 004f8d60 f   UICozeForm.obj
 0001:000f7d90       ?EventSystemCheckChange@CChannelSwitchForm@GUI@@KAXPAVCGuiData@2@@Z 004f8d90 f   UICozeForm.obj
 0001:000f7ec0       ?EventSystemPageDragBegin@CCozeForm@GUI@@KAXPAVCGuiData@2@HHK@Z 004f8ec0 f   UICozeForm.obj
 0001:000f7ee0       ?EventSystemPageDragEnd@CCozeForm@GUI@@KAXPAVCGuiData@2@HHK@Z 004f8ee0 f   UICozeForm.obj
 0001:000f7f20       ?EventSystemPageDragging@CCozeForm@GUI@@KAXPAVCGuiData@2@HHK@Z 004f8f20 f   UICozeForm.obj
 0001:000f7fb0       ?EventTeamCheckChange@CChannelSwitchForm@GUI@@KAXPAVCGuiData@2@@Z 004f8fb0 f   UICozeForm.obj
 0001:000f7fe0       ?EventTradeCheckChange@CChannelSwitchForm@GUI@@KAXPAVCGuiData@2@@Z 004f8fe0 f   UICozeForm.obj
 0001:000f8010       ?EventWorldCheckChange@CChannelSwitchForm@GUI@@KAXPAVCGuiData@2@@Z 004f9010 f   UICozeForm.obj
 0001:000f8040       ?GetCardInfo@CCardCase@@QAE?AV?$basic_string@DU?$char_traits@D@std@@V?$allocator@D@2@@std@@XZ 004f9040 f   UICozeForm.obj
 0001:000f80f0       ?GetChannelColor@CCharMsg@@SAKW4eChannel@1@@Z 004f90f0 f   UICozeForm.obj
 0001:000f8140       ?GetChannelCommand@CCharMsg@@SA?AV?$basic_string@DU?$char_traits@D@std@@V?$allocator@D@2@@std@@G@Z 004f9140 f   UICozeForm.obj
 0001:000f81b0       ?GetChannelIndex@CCharMsg@@SAGW4eChannel@1@@Z 004f91b0 f   UICozeForm.obj
 0001:000f81e0       ?GetChannelName@CCharMsg@@SA?AV?$basic_string@DU?$char_traits@D@std@@V?$allocator@D@2@@std@@W4eChannel@1@@Z 004f91e0 f   UICozeForm.obj
 0001:000f84a0       ?GetChannelShowName@CCharMsg@@SA?AV?$basic_string@DU?$char_traits@D@std@@V?$allocator@D@2@@std@@W4eChannel@1@@Z 004f94a0 f   UICozeForm.obj
 0001:000f85a0       ?GetHeight@CItemEx@GUI@@UAEHXZ 004f95a0 f i UICozeForm.obj
 0001:000f85b0       ?GetInstance@CCozeForm@GUI@@SAPAV12@XZ 004f95b0 f   UICozeForm.obj
 0001:000f85c0       ?GetMsgInfo@CCharMsg@@QAE?AUsTextInfo@1@XZ 004f95c0 f   UICozeForm.obj
 0001:000f8780       ?GetString@CItemEx@GUI@@UAEPBDXZ 004f9780 f i UICozeForm.obj
 0001:000f8790       ?GetWidth@CItemEx@GUI@@UAEHXZ 004f9790 f i UICozeForm.obj
 0001:000f87b0       ?Init@CChannelSwitchForm@GUI@@MAE_NXZ 004f97b0 f   UICozeForm.obj
 0001:000f8a40       ?Init@CCozeForm@GUI@@MAE_NXZ 004f9a40 f   UICozeForm.obj
 0001:000f9200       ?IsMouseOnList@CCozeForm@GUI@@QAE_NHH@Z 004fa200 f   UICozeForm.obj
 0001:000f92e0       ?ModifyShowChannel@CCharMsg@@QAE_NW4eChannel@1@_N1@Z 004fa2e0 f   UICozeForm.obj
 0001:000f9410       ?MoveToNextMsg@CCharMsg@@QAE_NXZ 004fa410 f   UICozeForm.obj
 0001:000f9560       ?OnGuildMsg@CCozeForm@GUI@@QAEXV?$basic_string@DU?$char_traits@D@std@@V?$allocator@D@2@@std@@0@Z 004fa560 f   UICozeForm.obj
 0001:000f9610       ?OnPrivateMsg@CCozeForm@GUI@@QAEXV?$basic_string@DU?$char_traits@D@std@@V?$allocator@D@2@@std@@00@Z 004fa610 f   UICozeForm.obj
 0001:000f98f0       ?OnPrivateNameSet@CCozeForm@GUI@@QAEXV?$basic_string@DU?$char_traits@D@std@@V?$allocator@D@2@@std@@@Z 004fa8f0 f   UICozeForm.obj
 0001:000f9a80       ?OnPublishMsg1@CCozeForm@GUI@@QAEXV?$basic_string@DU?$char_traits@D@std@@V?$allocator@D@2@@std@@H@Z 004faa80 f   UICozeForm.obj
 0001:000f9b90       ?OnPublishMsg@CCozeForm@GUI@@QAEXV?$basic_string@DU?$char_traits@D@std@@V?$allocator@D@2@@std@@0@Z 004fab90 f   UICozeForm.obj
 0001:000f9cd0       ?OnResetAll@CCozeForm@GUI@@QAEXXZ 004facd0 f   UICozeForm.obj
 0001:000f9da0       ?OnSideMsg@CCozeForm@GUI@@QAEXV?$basic_string@DU?$char_traits@D@std@@V?$allocator@D@2@@std@@0@Z 004fada0 f   UICozeForm.obj
 0001:000f9e40       ?OnSightMsg@CCozeForm@GUI@@QAEXPAVCCharacter@@V?$basic_string@DU?$char_traits@D@std@@V?$allocator@D@2@@std@@@Z 004fae40 f   UICozeForm.obj
 0001:000fa260       ?OnSystemMsg@CCozeForm@GUI@@QAEXV?$basic_string@DU?$char_traits@D@std@@V?$allocator@D@2@@std@@@Z 004fb260 f   UICozeForm.obj
 0001:000fa310       ?OnTeamMsg@CCozeForm@GUI@@QAEXKV?$basic_string@DU?$char_traits@D@std@@V?$allocator@D@2@@std@@@Z 004fb310 f   UICozeForm.obj
 0001:000fa4b0       ?OnTradeMsg@CCozeForm@GUI@@QAEXV?$basic_string@DU?$char_traits@D@std@@V?$allocator@D@2@@std@@0@Z 004fb4b0 f   UICozeForm.obj
 0001:000fa560       ?OnWorldMsg@CCozeForm@GUI@@QAEXV?$basic_string@DU?$char_traits@D@std@@V?$allocator@D@2@@std@@0@Z 004fb560 f   UICozeForm.obj
 0001:000fa610       ?ReplaceSpecialFace@CCozeForm@GUI@@IAEXAAV?$basic_string@DU?$char_traits@D@std@@V?$allocator@D@2@@std@@ABV34@1@Z 004fb610 f   UICozeForm.obj
 0001:000fa6b0       ?ResetPages@CCozeForm@GUI@@IAEXXZ 004fb6b0 f   UICozeForm.obj
 0001:000fb1b0       ?SendMsg@CCozeForm@GUI@@IAEXXZ 004fc1b0 f   UICozeForm.obj
 0001:000fbce0       ?SetChannelColor@CCharMsg@@SAXW4eChannel@1@K@Z 004fcce0 f   UICozeForm.obj
 0001:000fbd30       ?SetColor@CItemEx@GUI@@UAEXK@Z 004fcd30 f i UICozeForm.obj
 0001:000fbd40       ?SetHeight@CItemEx@GUI@@UAEXH@Z 004fcd40 f i UICozeForm.obj
 0001:000fbd50       ?SetString@CItemEx@GUI@@UAEXPBD@Z 004fcd50 f i UICozeForm.obj
 0001:000fbdb0       ?SwitchCheck@CChannelSwitchForm@GUI@@QAEXXZ 004fcdb0 f   UICozeForm.obj
 0001:000fbf20       ?UpdatePages@CCozeForm@GUI@@IAEXXZ 004fcf20 f   UICozeForm.obj
 0001:000fce80       ?_Buynode0@?$_List_alloc@U?$_List_base_types@PAVCCharMsg@@V?$allocator@PAVCCharMsg@@@std@@@std@@@std@@QAEPAU?$_List_node@PAVCCharMsg@@PAX@2@PAU32@0@Z 004fde80 f i UICozeForm.obj
 0001:000fcf10       ?_Buynode0@?$_List_alloc@U?$_List_base_types@UsTextInfo@CCharMsg@@V?$allocator@UsTextInfo@CCharMsg@@@std@@@std@@@std@@QAEPAU?$_List_node@UsTextInfo@CCharMsg@@PAX@2@PAU32@0@Z 004fdf10 f i UICozeForm.obj
 0001:000fcfa0       ?clear@?$list@UsTextInfo@CCharMsg@@V?$allocator@UsTextInfo@CCharMsg@@@std@@@std@@QAEXXZ 004fdfa0 f i UICozeForm.obj
 0001:000fd040       ?deallocate@?$allocator@U?$_List_node@PAVCCharMsg@@PAX@std@@@std@@QAEXQAU?$_List_node@PAVCCharMsg@@PAX@2@I@Z 004fe040 f i UICozeForm.obj
 0001:000fd080       ?deallocate@?$allocator@U?$_List_node@UsTextInfo@CCharMsg@@PAX@std@@@std@@QAEXQAU?$_List_node@UsTextInfo@CCharMsg@@PAX@2@I@Z 004fe080 f i UICozeForm.obj
 0001:000fd0c0       ?erase@?$basic_string@DU?$char_traits@D@std@@V?$allocator@D@2@@std@@QAEAAV12@II@Z 004fe0c0 f i UICozeForm.obj
 0001:000fd110       ?find@?$basic_string@DU?$char_traits@D@std@@V?$allocator@D@2@@std@@QBEIABV12@I@Z 004fe110 f i UICozeForm.obj
 0001:000fd150       ?replace@?$basic_string@DU?$char_traits@D@std@@V?$allocator@D@2@@std@@QAEAAV12@IIQBDI@Z 004fe150 f i UICozeForm.obj
 0001:000fd3d0       ?_ShowCursor@CCursor@GUI@@AAEXXZ 004fe3d0 f   UICursor.obj
 0001:000fd400       ??0CDoublePwdMgr@GUI@@QAE@XZ 004fe400 f   UIDoublePwdForm.obj
 0001:000fd460       ??_ECDoublePwdMgr@GUI@@UAEPAXI@Z 004fe460 f i UIDoublePwdForm.obj
 0001:000fd460       ??_GCDoublePwdMgr@GUI@@UAEPAXI@Z 004fe460 f i UIDoublePwdForm.obj
 0001:000fd4c0       ?CloseAllForm@CDoublePwdMgr@GUI@@QAEXXZ 004fe4c0 f   UIDoublePwdForm.obj
 0001:000fd560       ?CloseForm@CDoublePwdMgr@GUI@@MAEXXZ 004fe560 f   UIDoublePwdForm.obj
 0001:000fd570       ?GetCaption@CEdit@GUI@@QAEPBDXZ 004fe570 f i UIDoublePwdForm.obj
 0001:000fd590       ?Init@CDoublePwdMgr@GUI@@MAE_NXZ 004fe590 f   UIDoublePwdForm.obj
 0001:000fd810       ?RandomInputButton@CDoublePwdMgr@GUI@@IAEXXZ 004fe810 f   UIDoublePwdForm.obj
 0001:000fd900       ?ShowAlterForm@CDoublePwdMgr@GUI@@QAEXXZ 004fe900 f   UIDoublePwdForm.obj
 0001:000fd990       ?ShowCreateForm@CDoublePwdMgr@GUI@@QAEXXZ 004fe990 f   UIDoublePwdForm.obj
 0001:000fda40       ?ShowDoublePwdForm@CDoublePwdMgr@GUI@@QAEXXZ 004fea40 f   UIDoublePwdForm.obj
 0001:000fdab0       ?_evtAlterFromMouseEvent@CDoublePwdMgr@GUI@@CAXPAVCCompent@2@HHHK@Z 004feab0 f   UIDoublePwdForm.obj
 0001:000fdcf0       ?_evtCreateFromMouseEvent@CDoublePwdMgr@GUI@@CAXPAVCCompent@2@HHHK@Z 004fecf0 f   UIDoublePwdForm.obj
 0001:000fdf40       ?_evtDoublePwdFromMouseEvent@CDoublePwdMgr@GUI@@CAXPAVCCompent@2@HHHK@Z 004fef40 f   UIDoublePwdForm.obj
 0001:000fe1a0       ?_evtEditFocus@CDoublePwdMgr@GUI@@CAXPAVCGuiData@2@@Z 004ff1a0 f   UIDoublePwdForm.obj
 0001:000fe1d0       ?_evtFormClose@CDoublePwdMgr@GUI@@CAXPAVCForm@2@AA_N@Z 004ff1d0 f   UIDoublePwdForm.obj
 0001:000fe1e0       ?_evtInputFromMouseEvent@CDoublePwdMgr@GUI@@CAXPAVCCompent@2@HHHK@Z 004ff1e0 f   UIDoublePwdForm.obj
 0001:000fe370       ??0CDragTitle@GUI@@QAE@AAVCForm@1@@Z 004ff370 f   UIDragTitle.obj
 0001:000fe420       ??0CDragTitle@GUI@@QAE@ABV01@@Z 004ff420 f   UIDragTitle.obj
 0001:000fe4c0       ??4CDragTitle@GUI@@QAEAAV01@ABV01@@Z 004ff4c0 f   UIDragTitle.obj
 0001:000fe500       ??_GCDragTitle@GUI@@UAEPAXI@Z 004ff500 f i UIDragTitle.obj
 0001:000fe500       ??_ECDragTitle@GUI@@UAEPAXI@Z 004ff500 f i UIDragTitle.obj
 0001:000fe5b0       ?Clone@CDragTitle@GUI@@UAEPAVCGuiData@2@XZ 004ff5b0 f i UIDragTitle.obj
 0001:000fe680       ?Clone@CDragTitle@GUI@@UAE_NPAVCGuiData@2@@Z 004ff680 f i UIDragTitle.obj
 0001:000fe6e0       ?DragRender@CDragTitle@GUI@@UAEXXZ 004ff6e0 f   UIDragTitle.obj
 0001:000fe740       ?GetImage@CDragTitle@GUI@@UAEPAVCGuiPic@2@XZ 004ff740 f i UIDragTitle.obj
 0001:000fe750       ?IsHandleMouse@CDragTitle@GUI@@UAE_NXZ 004ff750 f i UIDragTitle.obj
 0001:000fe760       ?MouseRun@CDragTitle@GUI@@UAE_NHHK@Z 004ff760 f   UIDragTitle.obj
 0001:000fe7c0       ?Refresh@CDragTitle@GUI@@UAEXXZ 004ff7c0 f   UIDragTitle.obj
 0001:000fe7e0       ?Render@CDragTitle@GUI@@UAEXXZ 004ff7e0 f   UIDragTitle.obj
 0001:000fe810       ??0?$basic_istringstream@DU?$char_traits@D@std@@V?$allocator@D@2@@std@@QAE@ABV?$basic_string@DU?$char_traits@D@std@@V?$allocator@D@2@@1@H@Z 004ff810 f i UIEdit.obj
 0001:000fe9c0       ??0CEdit@GUI@@QAE@AAVCForm@1@@Z 004ff9c0 f   UIEdit.obj
 0001:000feb50       ??0CEdit@GUI@@QAE@ABV01@@Z 004ffb50 f   UIEdit.obj
 0001:000fec30       ??4CEdit@GUI@@QAEAAV01@ABV01@@Z 004ffc30 f   UIEdit.obj
 0001:000fec70       ??_D?$basic_istringstream@DU?$char_traits@D@std@@V?$allocator@D@2@@std@@QAEXXZ 004ffc70 f i UIEdit.obj
 0001:000fed15       ??_E?$basic_istringstream@DU?$char_traits@D@std@@V?$allocator@D@2@@std@@$4PPPPPPPM@A@AEPAXI@Z 004ffd15 f i UIEdit.obj
 0001:000fed20       ??_G?$basic_istringstream@DU?$char_traits@D@std@@V?$allocator@D@2@@std@@UAEPAXI@Z 004ffd20 f i UIEdit.obj
 0001:000fed20       ??_E?$basic_istringstream@DU?$char_traits@D@std@@V?$allocator@D@2@@std@@UAEPAXI@Z 004ffd20 f i UIEdit.obj
 0001:000fed50       ??_GCEdit@GUI@@UAEPAXI@Z   004ffd50 f i UIEdit.obj
 0001:000fed50       ??_ECEdit@GUI@@UAEPAXI@Z   004ffd50 f i UIEdit.obj
 0001:000fee10       ?Clone@CEdit@GUI@@UAEPAVCGuiData@2@XZ 004ffe10 f i UIEdit.obj
 0001:000fef20       ?Clone@CEdit@GUI@@UAE_NPAVCGuiData@2@@Z 004fff20 f i UIEdit.obj
 0001:000fef80       ?GetImage@CEdit@GUI@@UAEPAVCGuiPic@2@XZ 004fff80 f i UIEdit.obj
 0001:000fef90       ?GetWidth@CGuiFont@GUI@@QAEHPBD@Z 004fff90 f i UIEdit.obj
 0001:000fefc0       ?Init@CEdit@GUI@@UAEXXZ    004fffc0 f   UIEdit.obj
 0001:000ff070       ?OnActive@CEdit@GUI@@UAEXXZ 00500070 f   UIEdit.obj
 0001:000ff140       ?OnChar@CEdit@GUI@@UAE_ND@Z 00500140 f   UIEdit.obj
 0001:000ff290       ?OnKeyDown@CEdit@GUI@@UAE_NH@Z 00500290 f   UIEdit.obj
 0001:000ff2c0       ?OnLost@CEdit@GUI@@UAEXXZ  005002c0 f   UIEdit.obj
 0001:000ff2f0       ?Refresh@CEdit@GUI@@UAEXXZ 005002f0 f   UIEdit.obj
 0001:000ff330       ?RefreshCursor@CEdit@GUI@@QAEXXZ 00500330 f   UIEdit.obj
 0001:000ff360       ?RefreshText@CEdit@GUI@@QAEXXZ 00500360 f   UIEdit.obj
 0001:000ff3b0       ?RefreshText@CInputBox@@QAEPADXZ 005003b0 f i UIEdit.obj
 0001:000ff6a0       ?Render@CEdit@GUI@@UAEXXZ  005006a0 f   UIEdit.obj
 0001:000ffa10       ?Render@CGuiFont@GUI@@QAEXPBDHHK@Z 00500a10 f i UIEdit.obj
 0001:000ffad0       ?ReplaceSel@CEdit@GUI@@QAEXPBDH@Z 00500ad0 f   UIEdit.obj
 0001:000ffb00       ?SetAlpha@CEdit@GUI@@UAEXE@Z 00500b00 f   UIEdit.obj
 0001:000ffb30       ?SetCaption@CEdit@GUI@@UAEXPBD@Z 00500b30 f   UIEdit.obj
 0001:000ffc60       ?SetCursorTail@CInputBox@@QAEXXZ 00500c60 f i UIEdit.obj
 0001:000ffc90       ?SetText@CInputBox@@QAEPADPBD@Z 00500c90 f i UIEdit.obj
 0001:000ffcc0       ?SetTextColor@CEdit@GUI@@UAEXK@Z 00500cc0 f   UIEdit.obj
 0001:000ffcd0       ?_Copy@CEdit@GUI@@AAEXABV12@@Z 00500cd0 f   UIEdit.obj
 0001:000ffe40       ?_GetCursorPos@CEdit@GUI@@AAEXH@Z 00500e40 f   UIEdit.obj
 0001:000fff80       ??$_Emplace_reallocate@ABQAVCEditObj@GUI@@@?$vector@PAVCEditObj@GUI@@V?$allocator@PAVCEditObj@GUI@@@std@@@std@@QAEPAPAVCEditObj@GUI@@QAPAV23@ABQAV23@@Z 00500f80 f i UIEditData.obj
 0001:00100140       ??$_Emplace_reallocate@PAVCEditRow@GUI@@@?$vector@PAVCEditRow@GUI@@V?$allocator@PAVCEditRow@GUI@@@std@@@std@@QAEPAPAVCEditRow@GUI@@QAPAV23@$$QAPAV23@@Z 00501140 f i UIEditData.obj
 0001:00100300       ??0CEditArticle@GUI@@QAE@XZ 00501300 f   UIEditData.obj
 0001:00100410       ??0CEditSentence@GUI@@QAE@XZ 00501410 f   UIEditData.obj
 0001:001004c0       ??0CEditTextObj@GUI@@QAE@XZ 005014c0 f   UIEditData.obj
 0001:00100520       ??1?$vector@PAVCEditChar@GUI@@V?$allocator@PAVCEditChar@GUI@@@std@@@std@@QAE@XZ 00501520 f i UIEditData.obj
 0001:001005b0       ??1?$vector@PAVCEditObj@GUI@@V?$allocator@PAVCEditObj@GUI@@@std@@@std@@QAE@XZ 005015b0 f i UIEditData.obj
 0001:00100640       ??1CEditArticle@GUI@@UAE@XZ 00501640 f   UIEditData.obj
 0001:001006d0       ??1CEditObj@GUI@@UAE@XZ    005016d0 f i UIEditData.obj
 0001:001006e0       ??1CEditTextObj@GUI@@UAE@XZ 005016e0 f i UIEditData.obj
 0001:00100730       ??_GCEditArticle@GUI@@UAEPAXI@Z 00501730 f i UIEditData.obj
 0001:00100730       ??_ECEditArticle@GUI@@UAEPAXI@Z 00501730 f i UIEditData.obj
 0001:001007d0       ??_ECEditObj@GUI@@UAEPAXI@Z 005017d0 f i UIEditData.obj
 0001:001007d0       ??_GCEditObj@GUI@@UAEPAXI@Z 005017d0 f i UIEditData.obj
 0001:00100800       ??_ECEditSentence@GUI@@UAEPAXI@Z 00501800 f i UIEditData.obj
 0001:00100800       ??_GCEditSentence@GUI@@UAEPAXI@Z 00501800 f i UIEditData.obj
 0001:00100880       ??_GCEditTextObj@GUI@@UAEPAXI@Z 00501880 f i UIEditData.obj
 0001:00100880       ??_ECEditTextObj@GUI@@UAEPAXI@Z 00501880 f i UIEditData.obj
 0001:001008e0       ?AddCaption@CEditSentence@GUI@@UAEXPBD@Z 005018e0 f i UIEditData.obj
 0001:00100910       ?AddCaption@CEditTextObj@GUI@@UAEXPBD@Z 00501910 f i UIEditData.obj
 0001:00100920       ?Clear@CEditArticle@GUI@@UAEXXZ 00501920 f   UIEditData.obj
 0001:00100990       ?Clear@CEditObj@GUI@@UAEXXZ 00501990 f i UIEditData.obj
 0001:001009a0       ?ClearChilds@CEditObj@GUI@@UAEXXZ 005019a0 f i UIEditData.obj
 0001:001009b0       ?DelChar@CEditArticle@GUI@@QAE_NI@Z 005019b0 f   UIEditData.obj
 0001:00100a20       ?DelSelect@CEditArticle@GUI@@QAEXXZ 00501a20 f   UIEditData.obj
 0001:00100b40       ?GetCaption@CEditObj@GUI@@UAEPBDXZ 00501b40 f i UIEditData.obj
 0001:00100b50       ?GetCaption@CEditSentence@GUI@@UAEPBDXZ 00501b50 f i UIEditData.obj
 0001:00100b60       ?GetSize@CEditObj@GUI@@UAEXAAH0@Z 00501b60 f i UIEditData.obj
 0001:00100b70       ?GetSize@CEditSentence@GUI@@UAEXAAH0@Z 00501b70 f   UIEditData.obj
 0001:00100bc0       ?GetWordCount@CEditObj@GUI@@UAEKXZ 00501bc0 f i UIEditData.obj
 0001:00100bd0       ?Init@CEditArticle@GUI@@UAEXXZ 00501bd0 f   UIEditData.obj
 0001:00100be0       ?IsEmpty@CEditObj@GUI@@UAE_NXZ 00501be0 f i UIEditData.obj
 0001:00100bf0       ?OnKeyDown@CEditArticle@GUI@@QAEXH_N@Z 00501bf0 f   UIEditData.obj
 0001:00100db0       ?Parse@CEditControl@GUI@@UAEXPAVCEditStrategy@2@@Z 00501db0 f   UIEditData.obj
 0001:00100e50       ?Parse@CEditObj@GUI@@UAEXPAVCEditStrategy@2@@Z 00501e50 f   UIEditData.obj
 0001:00100e70       ?Parse@CEditTextObj@GUI@@UAEXPAVCEditStrategy@2@@Z 00501e70 f   UIEditData.obj
 0001:00100e80       ?PushUnit@CEditObj@GUI@@UAEXPAV12@@Z 00501e80 f i UIEditData.obj
 0001:00100e90       ?RefreshText@CEditArticle@GUI@@AAEXXZ 00501e90 f   UIEditData.obj
 0001:00100ed0       ?Render@CEditArticle@GUI@@UAEXXZ 00501ed0 f   UIEditData.obj
 0001:00100f80       ?Render@CEditObj@GUI@@UAEXXZ 00501f80 f i UIEditData.obj
 0001:00100f90       ?Render@CEditSentence@GUI@@UAEXXZ 00501f90 f   UIEditData.obj
 0001:00100fc0       ?Render@CGuiFont@GUI@@QAEXIPBDHHK@Z 00501fc0 f i UIEditData.obj
 0001:00101090       ?SetCaption@CEditSentence@GUI@@UAEXPBD@Z 00502090 f i UIEditData.obj
 0001:001010c0       ?SetCaption@CEditTextObj@GUI@@UAEXPBD@Z 005020c0 f i UIEditData.obj
 0001:001010d0       ?SetPos@CEditObj@GUI@@UAEXHH@Z 005020d0 f i UIEditData.obj
 0001:001010e0       ?SetPos@CEditSentence@GUI@@UAEXHH@Z 005020e0 f i UIEditData.obj
 0001:00101100       ?_AddObj@CEditArticle@GUI@@AAE_NPAVCEditObj@2@@Z 00502100 f   UIEditData.obj
 0001:00101220       ?_ToSelectMode@CEditArticle@GUI@@AAEXXZ 00502220 f i UIEditData.obj
 0001:00101240       ?_Xlength@?$vector@PAVCEditObj@GUI@@V?$allocator@PAVCEditObj@GUI@@@std@@@std@@CAXXZ 00502240 f i UIEditData.obj
 0001:00101250       ?_Xlength@?$vector@PAVCEditRow@GUI@@V?$allocator@PAVCEditRow@GUI@@@std@@@std@@CAXXZ 00502250 f i UIEditData.obj
 0001:00101260       ?deallocate@?$allocator@PAVCEditObj@GUI@@@std@@QAEXQAPAVCEditObj@GUI@@I@Z 00502260 f i UIEditData.obj
 0001:001012a0       ?deallocate@?$allocator@PAVCEditRow@GUI@@@std@@QAEXQAPAVCEditRow@GUI@@I@Z 005022a0 f i UIEditData.obj
 0001:001012e0       ??0CEditKey@GUI@@QAE@XZ    005022e0 f   UIEditKey.obj
 0001:001013f0       ??1?$vector@PAVCEditRow@GUI@@V?$allocator@PAVCEditRow@GUI@@@std@@@std@@QAE@XZ 005023f0 f i UIEditKey.obj
 0001:00101480       ??_GCEditChar@GUI@@UAEPAXI@Z 00502480 f i UIEditKey.obj
 0001:00101480       ??_ECEditChar@GUI@@UAEPAXI@Z 00502480 f i UIEditKey.obj
 0001:001014e0       ??_ECEditControl@GUI@@UAEPAXI@Z 005024e0 f i UIEditKey.obj
 0001:001014e0       ??_GCEditControl@GUI@@UAEPAXI@Z 005024e0 f i UIEditKey.obj
 0001:00101540       ?GetCaption@CEditChar@GUI@@UAEPBDXZ 00502540 f i UIEditKey.obj
 0001:00101550       ?GetWordCount@CEditChar@GUI@@UAEKXZ 00502550 f i UIEditKey.obj
 0001:00101560       ?GetWordCount@CEditControl@GUI@@UAEKXZ 00502560 f i UIEditKey.obj
 0001:00101570       ?Init@CEditKey@GUI@@QAEXXZ 00502570 f   UIEditKey.obj
 0001:001015d0       ?Render@CEditKey@GUI@@QAEXXZ 005025d0 f   UIEditKey.obj
 0001:00101620       ??$_Emplace_reallocate@ABQAVCEditRow@GUI@@@?$vector@PAVCEditRow@GUI@@V?$allocator@PAVCEditRow@GUI@@@std@@@std@@QAEPAPAVCEditRow@GUI@@QAPAV23@ABQAV23@@Z 00502620 f i UIEditStrategy.obj
 0001:00101750       ??0CEditRow@GUI@@QAE@XZ    00502750 f   UIEditStrategy.obj
 0001:001017e0       ??0CEditStrategy@GUI@@QAE@PAVCEditArticle@1@@Z 005027e0 f   UIEditStrategy.obj
 0001:00101840       ??1CEditStrategy@GUI@@QAE@XZ 00502840 f   UIEditStrategy.obj
 0001:001018e0       ?Append@CEditStrategy@GUI@@QAE_NPAVCEditObj@2@@Z 005028e0 f   UIEditStrategy.obj
 0001:00101900       ?Clear@CEditStrategy@GUI@@QAEXXZ 00502900 f   UIEditStrategy.obj
 0001:00101990       ?ParseText@CEditStrategy@GUI@@QAEXPAVCEditTextObj@2@@Z 00502990 f   UIEditStrategy.obj
 0001:00101b70       ?PushUnit@CEditRow@GUI@@QAEXPAVCEditObj@2@0@Z 00502b70 f   UIEditStrategy.obj
 0001:00101bf0       ?RefreshPos@CEditStrategy@GUI@@QAEXHH@Z 00502bf0 f   UIEditStrategy.obj
 0001:00101c70       ?Render@CEditStrategy@GUI@@QAEXXZ 00502c70 f   UIEditStrategy.obj
 0001:00101cc0       ?_AppendToBackRow@CEditStrategy@GUI@@AAEPAVCEditRow@2@PAVCEditObj@2@@Z 00502cc0 f   UIEditStrategy.obj
 0001:00101dd0       ?_Change_array@?$vector@PAVCEditRow@GUI@@V?$allocator@PAVCEditRow@GUI@@@std@@@std@@AAEXQAPAVCEditRow@GUI@@II@Z 00502dd0 f i UIEditStrategy.obj
 0001:00101e30       ?allocate@?$allocator@PAVCEditRow@GUI@@@std@@QAEPAPAVCEditRow@GUI@@I@Z 00502e30 f i UIEditStrategy.obj
 0001:00101ea0       ??$_Emplace_reallocate@ABQAVCSkillRecord@@@?$vector@PAVCSkillRecord@@V?$allocator@PAVCSkillRecord@@@std@@@std@@QAEPAPAVCSkillRecord@@QAPAV2@ABQAV2@@Z 00502ea0 f i UIEquipForm.obj
 0001:00102060       ??$_Emplace_reallocate@ABQAVCSkillStateRecord@@@?$vector@PAVCSkillStateRecord@@V?$allocator@PAVCSkillStateRecord@@@std@@@std@@QAEPAPAVCSkillStateRecord@@QAPAV2@ABQAV2@@Z 00503060 f i UIEquipForm.obj
 0001:00102220       ??1CGuiPic@GUI@@QAE@XZ     00503220 f i UIEquipForm.obj
 0001:00102240       ??_FCGuiPic@GUI@@QAEXXZ    00503240 f i UIEquipForm.obj
 0001:00102250       ?CloseAllForm@CEquipMgr@GUI@@QAEXXZ 00503250 f   UIEquipForm.obj
 0001:00102280       ?DelFastCommand@CEquipMgr@GUI@@QAEXPAVCCommandObj@2@@Z 00503280 f   UIEquipForm.obj
 0001:001022e0       ?End@CEquipMgr@GUI@@MAEXXZ 005032e0 f   UIEquipForm.obj
 0001:00102310       ?ExecFastKey@CEquipMgr@GUI@@QAE_NH@Z 00503310 f   UIEquipForm.obj
 0001:001023d0       ?FindSkill@CEquipMgr@GUI@@QAEPAVCSkillRecord@@H@Z 005033d0 f   UIEquipForm.obj
 0001:00102410       ?FrameMove@CEquipMgr@GUI@@MAEXK@Z 00503410 f   UIEquipForm.obj
 0001:00102870       ?GetChargePic@CEquipMgr@GUI@@SAPAVCGuiPic@2@I@Z 00503870 f   UIEquipForm.obj
 0001:00102890       ?GetEquipItem@CEquipMgr@GUI@@QAEPAVCItemCommand@2@I@Z 00503890 f   UIEquipForm.obj
 0001:001028d0       ?GetIsLock@CEquipMgr@GUI@@QAE_NXZ 005038d0 f   UIEquipForm.obj
 0001:001028e0       ?GetItemCount@CEquipMgr@GUI@@QAEHH@Z 005038e0 f   UIEquipForm.obj
 0001:00102960       ?Init@CEquipMgr@GUI@@MAE_NXZ 00503960 f   UIEquipForm.obj
 0001:00103410       ?IsEquipCom@CEquipMgr@GUI@@QAE_NPAVCOneCommand@2@@Z 00504410 f   UIEquipForm.obj
 0001:00103430       ?LoadingCall@CEquipMgr@GUI@@MAEXXZ 00504430 f   UIEquipForm.obj
 0001:001034f0       ?RefreshServerShortCut@CEquipMgr@GUI@@QAEHXZ 005044f0 f   UIEquipForm.obj
 0001:00103690       ?RefreshUpgrade@CEquipMgr@GUI@@AAEXXZ 00504690 f   UIEquipForm.obj
 0001:00103780       ?SetIsLock@CEquipMgr@GUI@@QAEX_N@Z 00504780 f   UIEquipForm.obj
 0001:001037b0       ?ShowRepairMsg@CEquipMgr@GUI@@QAEXPBDJ@Z 005047b0 f   UIEquipForm.obj
 0001:00103840       ?SynSkillBag@CEquipMgr@GUI@@QAEXKPAUstNetSkillBag@@@Z 00504840 f   UIEquipForm.obj
 0001:00103d60       ?UnfixToGrid@CEquipMgr@GUI@@QAEXPAVCCommandObj@2@HH@Z 00504d60 f   UIEquipForm.obj
 0001:00103da0       ?UpdataEquip@CEquipMgr@GUI@@QAEXABUstNetChangeChaPart@@PAVCCharacter@@@Z 00504da0 f   UIEquipForm.obj
 0001:00103fc0       ?UpdataEquipData@CEquipMgr@GUI@@QAEXABUstNetChangeChaPart@@PAVCCharacter@@@Z 00504fc0 f   UIEquipForm.obj
 0001:001040a0       ?UpdateShortCut@CEquipMgr@GUI@@QAEXAAUstNetShortCut@@@Z 005050a0 f   UIEquipForm.obj
 0001:00104220       ?_ActiveFast@CEquipMgr@GUI@@AAEXH@Z 00505220 f   UIEquipForm.obj
 0001:001042a0       ?_CheckLockMouseEvent@CEquipMgr@GUI@@CAXPAVCCompent@2@HHHK@Z 005052a0 f   UIEquipForm.obj
 0001:001042c0       ?_GetCommandShortCutType@CEquipMgr@GUI@@AAE_NPAVCCommandObj@2@AADAAF@Z 005052c0 f   UIEquipForm.obj
 0001:001043d0       ?_GetThrowPos@CEquipMgr@GUI@@AAE_NAAH0@Z 005053d0 f   UIEquipForm.obj
 0001:00104490       ?_SendThrowData@CEquipMgr@GUI@@AAEXABUstThrow@12@H@Z 00505490 f   UIEquipForm.obj
 0001:00104580       ?_SendUnfixData@CEquipMgr@GUI@@AAEXABUstUnfix@12@H@Z 00505580 f   UIEquipForm.obj
 0001:00104660       ?_StartUnfix@CEquipMgr@GUI@@AAEXAAUstUnfix@12@@Z 00505660 f   UIEquipForm.obj
 0001:001046e0       ?_Xlength@?$vector@PAVCSkillRecord@@V?$allocator@PAVCSkillRecord@@@std@@@std@@CAXXZ 005056e0 f i UIEquipForm.obj
 0001:001046f0       ?_Xlength@?$vector@PAVCSkillStateRecord@@V?$allocator@PAVCSkillStateRecord@@@std@@@std@@CAXXZ 005056f0 f i UIEquipForm.obj
 0001:00104700       ?_cha_render_event@CEquipMgr@GUI@@CAXPAVC3DCompent@2@HH@Z 00505700 f   UIEquipForm.obj
 0001:00104890       ?_evtButtonClickEvent@CEquipMgr@GUI@@CAXPAVCGuiData@2@HHK@Z 00505890 f   UIEquipForm.obj
 0001:001049a0       ?_evtEquipEvent@CEquipMgr@GUI@@CAXPAVCGuiData@2@PAVCCommandObj@2@AA_N@Z 005059a0 f   UIEquipForm.obj
 0001:00104b00       ?_evtFastChange@CEquipMgr@GUI@@CAXPAVCGuiData@2@PAVCCommandObj@2@AA_N@Z 00505b00 f   UIEquipForm.obj
 0001:00104c10       ?_evtItemFormClose@CEquipMgr@GUI@@CAXPAVCForm@2@AA_N@Z 00505c10 f   UIEquipForm.obj
 0001:00104c30       ?_evtItemFormMouseEvent@CEquipMgr@GUI@@CAXPAVCCompent@2@HHHK@Z 00505c30 f   UIEquipForm.obj
 0001:00104dc0       ?_evtItemFormShow@CEquipMgr@GUI@@CAXPAVCGuiData@2@@Z 00505dc0 f   UIEquipForm.obj
 0001:00104de0       ?_evtLostYesNoEvent@CEquipMgr@GUI@@CAXPAVCCompent@2@HHHK@Z 00505de0 f   UIEquipForm.obj
 0001:00104e10       ?_evtRMouseGridEvent@CEquipMgr@GUI@@CAXPAVCGuiData@2@PAVCCommandObj@2@H@Z 00505e10 f   UIEquipForm.obj
 0001:00104e70       ?_evtRepairEvent@CEquipMgr@GUI@@CAXPAVCCompent@2@HHHK@Z 00505e70 f   UIEquipForm.obj
 0001:00104e90       ?_evtSkillFormShow@CEquipMgr@GUI@@CAXPAVCGuiData@2@@Z 00505e90 f   UIEquipForm.obj
 0001:00104ea0       ?_evtSkillUpgrade@CEquipMgr@GUI@@CAXPAVCSkillList@2@PAVCSkillCommand@2@@Z 00505ea0 f   UIEquipForm.obj
 0001:00104ed0       ?_evtSplitItemEvent@SSplitItem@CEquipMgr@GUI@@SAXPAVCCompent@3@HHHK@Z 00505ed0 f   UIEquipForm.obj
 0001:00104f30       ?_evtThrowBoatDialogEvent@CEquipMgr@GUI@@CAXPAVCCompent@2@HHHK@Z 00505f30 f   UIEquipForm.obj
 0001:00104f70       ?_evtThrowDeleteConfirm@CEquipMgr@GUI@@CAXPAVCCompent@2@HHHK@Z 00505f70 f   UIEquipForm.obj
 0001:00104fe0       ?_evtThrowDialogEvent@CEquipMgr@GUI@@CAXPAVCCompent@2@HHHK@Z 00505fe0 f   UIEquipForm.obj
 0001:00105020       ?_evtUnfixDialogEvent@CEquipMgr@GUI@@CAXPAVCCompent@2@HHHK@Z 00506020 f   UIEquipForm.obj
 0001:00105060       ?deallocate@?$allocator@PAVCSkillRecord@@@std@@QAEXQAPAVCSkillRecord@@I@Z 00506060 f i UIEquipForm.obj
 0001:001050a0       ?deallocate@?$allocator@PAVCSkillStateRecord@@@std@@QAEXQAPAVCSkillStateRecord@@I@Z 005060a0 f i UIEquipForm.obj
 0001:001050e0       ?evtSwapItemEvent@CEquipMgr@GUI@@SAXPAVCGuiData@2@HHAA_N@Z 005060e0 f   UIEquipForm.obj
 0001:00105280       ?evtThrowItemEvent@CEquipMgr@GUI@@SAXPAVCGuiData@2@HAA_N@Z 00506280 f   UIEquipForm.obj
 0001:00105420       ?push_back@?$vector@PAVCSkillRecord@@V?$allocator@PAVCSkillRecord@@@std@@@std@@QAEXABQAVCSkillRecord@@@Z 00506420 f i UIEquipForm.obj
 0001:00105450       ??$_Emplace_reallocate@PAVCFastCommand@GUI@@@?$vector@PAVCFastCommand@GUI@@V?$allocator@PAVCFastCommand@GUI@@@std@@@std@@QAEPAPAVCFastCommand@GUI@@QAPAV23@$$QAPAV23@@Z 00506450 f i UIFastCommand.obj
 0001:00105610       ??0CFastCommand@GUI@@QAE@AAVCForm@1@@Z 00506610 f   UIFastCommand.obj
 0001:001056f0       ??0CFastCommand@GUI@@QAE@ABV01@@Z 005066f0 f   UIFastCommand.obj
 0001:001057d0       ??0COneCommand@GUI@@QAE@AAVCForm@1@@Z 005067d0 f   UIFastCommand.obj
 0001:001058b0       ??1CCommandCompent@GUI@@UAE@XZ 005068b0 f i UIFastCommand.obj
 0001:00105900       ??_ECFastCommand@GUI@@UAEPAXI@Z 00506900 f i UIFastCommand.obj
 0001:00105900       ??_GCFastCommand@GUI@@UAEPAXI@Z 00506900 f i UIFastCommand.obj
 0001:001059a0       ??_ECOneCommand@GUI@@UAEPAXI@Z 005069a0 f i UIFastCommand.obj
 0001:001059a0       ??_GCOneCommand@GUI@@UAEPAXI@Z 005069a0 f i UIFastCommand.obj
 0001:00105a30       ?AddCommand@CFastCommand@GUI@@QAEXPAVCCommandObj@2@@Z 00506a30 f   UIFastCommand.obj
 0001:00105a70       ?AddCommand@COneCommand@GUI@@QAEXPAVCCommandObj@2@@Z 00506a70 f   UIFastCommand.obj
 0001:00105ab0       ?Clone@CFastCommand@GUI@@UAEPAVCGuiData@2@XZ 00506ab0 f i UIFastCommand.obj
 0001:00105bd0       ?Clone@CFastCommand@GUI@@UAE_NPAVCGuiData@2@@Z 00506bd0 f i UIFastCommand.obj
 0001:00105c30       ?Clone@COneCommand@GUI@@UAEPAVCGuiData@2@XZ 00506c30 f i UIFastCommand.obj
 0001:00105d60       ?Clone@COneCommand@GUI@@UAE_NPAVCGuiData@2@@Z 00506d60 f i UIFastCommand.obj
 0001:00105e10       ?DelCommand@CFastCommand@GUI@@SAXPAVCCommandObj@2@@Z 00506e10 f   UIFastCommand.obj
 0001:00105e60       ?DelCommand@COneCommand@GUI@@QAEXXZ 00506e60 f   UIFastCommand.obj
 0001:00105e80       ?DragRender@CFastCommand@GUI@@UAEXXZ 00506e80 f   UIFastCommand.obj
 0001:00105eb0       ?DragRender@COneCommand@GUI@@UAEXXZ 00506eb0 f   UIFastCommand.obj
 0001:00105ee0       ?FintFastCommand@CFastCommand@GUI@@SAPAV12@PAVCCommandObj@2@@Z 00506ee0 f   UIFastCommand.obj
 0001:00105f30       ?GetHintCompent@CFastCommand@GUI@@UAEPAVCCompent@2@HH@Z 00506f30 f   UIFastCommand.obj
 0001:00105f90       ?GetHintCompent@COneCommand@GUI@@UAEPAVCCompent@2@HH@Z 00506f90 f   UIFastCommand.obj
 0001:00106000       ?GetUseCommantEvent@COneCommand@GUI@@UAEP6AXPAVCCommandObj@2@AA_N@ZXZ 00507000 f i UIFastCommand.obj
 0001:00106010       ?IsNoDrag@CGuiData@GUI@@QAE_NHHK@Z 00507010 f i UIFastCommand.obj
 0001:00106070       ?MouseRun@CFastCommand@GUI@@UAE_NHHK@Z 00507070 f   UIFastCommand.obj
 0001:00106100       ?MouseRun@COneCommand@GUI@@UAE_NHHK@Z 00507100 f   UIFastCommand.obj
 0001:001061b0       ?Render@CFastCommand@GUI@@UAEXXZ 005071b0 f   UIFastCommand.obj
 0001:001061d0       ?Render@COneCommand@GUI@@UAEXXZ 005071d0 f   UIFastCommand.obj
 0001:00106250       ?RenderHint@CFastCommand@GUI@@UAEXHH@Z 00507250 f   UIFastCommand.obj
 0001:00106280       ?RenderHint@COneCommand@GUI@@UAEXHH@Z 00507280 f   UIFastCommand.obj
 0001:001062b0       ?SetCommand@CFastCommand@GUI@@UAE?AW4eAccept@2@PAVCCommandObj@2@HH@Z 005072b0 f   UIFastCommand.obj
 0001:00106330       ?SetCommand@COneCommand@GUI@@UAE?AW4eAccept@2@PAVCCommandObj@2@HH@Z 00507330 f   UIFastCommand.obj
 0001:001063a0       ?_DragEnd@CFastCommand@GUI@@KAXPAVCGuiData@2@HHK@Z 005073a0 f i UIFastCommand.obj
 0001:00106440       ?_DragEnd@COneCommand@GUI@@KAXPAVCGuiData@2@HHK@Z 00507440 f i UIFastCommand.obj
 0001:001064e0       ?_Xlength@?$vector@PAVCFastCommand@GUI@@V?$allocator@PAVCFastCommand@GUI@@@std@@@std@@CAXXZ 005074e0 f i UIFastCommand.obj
 0001:001064f0       ?deallocate@?$allocator@PAVCFastCommand@GUI@@@std@@QAEXQAPAVCFastCommand@GUI@@I@Z 005074f0 f i UIFastCommand.obj
 0001:00106530       ??0CFindTeamMgr@GUI@@QAE@XZ 00507530 f   UIFindTeamForm.obj
 0001:001065b0       ??1CFindTeamMgr@GUI@@UAE@XZ 005075b0 f   UIFindTeamForm.obj
 0001:00106610       ??_ECFindTeamMgr@GUI@@UAEPAXI@Z 00507610 f i UIFindTeamForm.obj
 0001:00106610       ??_GCFindTeamMgr@GUI@@UAEPAXI@Z 00507610 f i UIFindTeamForm.obj
 0001:00106690       ?AddFindTeamInfo@CFindTeamMgr@GUI@@QAEXHPBDJJ0@Z 00507690 f   UIFindTeamForm.obj
 0001:00106880       ?CloseForm@CFindTeamMgr@GUI@@MAEXXZ 00507880 f   UIFindTeamForm.obj
 0001:00106890       ?FindTeamAsk@CFindTeamMgr@GUI@@QAEXPBD@Z 00507890 f   UIFindTeamForm.obj
 0001:00106930       ?Init@CFindTeamMgr@GUI@@MAE_NXZ 00507930 f   UIFindTeamForm.obj
 0001:00106c30       ?RemoveTeamInfo@CFindTeamMgr@GUI@@QAEXXZ 00507c30 f   UIFindTeamForm.obj
 0001:00106c80       ?SetFindTeamPage@CFindTeamMgr@GUI@@QAEXHH@Z 00507c80 f   UIFindTeamForm.obj
 0001:00106cf0       ?SetOwnFindTeamState@CFindTeamMgr@GUI@@QAEX_N@Z 00507cf0 f   UIFindTeamForm.obj
 0001:00106d40       ?ShowFindTeamForm@CFindTeamMgr@GUI@@QAEX_N@Z 00507d40 f   UIFindTeamForm.obj
 0001:00106d70       ?_evtFindTeamCheckEvent@CFindTeamMgr@GUI@@CAXPAVCCompent@2@HHHK@Z 00507d70 f   UIFindTeamForm.obj
 0001:00106da0       ?_evtFindTeamMouseButton@CFindTeamMgr@GUI@@CAXPAVCCompent@2@HHHK@Z 00507da0 f   UIFindTeamForm.obj
 0001:00107000       ??$_Emplace_reallocate@ABUstFont@CGuiFont@GUI@@@?$vector@UstFont@CGuiFont@GUI@@V?$allocator@UstFont@CGuiFont@GUI@@@std@@@std@@QAEPAUstFont@CGuiFont@GUI@@QAU234@ABU234@@Z 00508000 f i UIFont.obj
 0001:00107250       ??$_Emplace_reallocate@PAUstHint@CTextHint@GUI@@@?$vector@PAUstHint@CTextHint@GUI@@V?$allocator@PAUstHint@CTextHint@GUI@@@std@@@std@@QAEPAPAUstHint@CTextHint@GUI@@QAPAU234@$$QAPAU234@@Z 00508250 f i UIFont.obj
 0001:00107410       ??$_Uninitialized_move@PAUstFont@CGuiFont@GUI@@PAU123@V?$allocator@UstFont@CGuiFont@GUI@@@std@@@std@@YAPAUstFont@CGuiFont@GUI@@QAU123@0PAU123@AAV?$allocator@UstFont@CGuiFont@GUI@@@0@@Z 00508410 f i UIFont.obj
 0001:001074e0       ??$construct@UstFont@CGuiFont@GUI@@ABU123@@?$_Default_allocator_traits@V?$allocator@UstFont@CGuiFont@GUI@@@std@@@std@@SAXAAV?$allocator@UstFont@CGuiFont@GUI@@@1@QAUstFont@CGuiFont@GUI@@ABU345@@Z 005084e0 f i UIFont.obj
 0001:00107550       ??0?$vector@PAUstHint@CTextHint@GUI@@V?$allocator@PAUstHint@CTextHint@GUI@@@std@@@std@@QAE@XZ 00508550 f i UIFont.obj
 0001:00107570       ??0CTextHint@GUI@@QAE@XZ   00508570 f   UIFont.obj
 0001:00107660       ??0CTextScrollHint@GUI@@QAE@XZ 00508660 f   UIFont.obj
 0001:00107740       ??0stHint@CTextHint@GUI@@QAE@PBDKHH@Z 00508740 f i UIFont.obj
 0001:001077e0       ??1?$_Uninitialized_backout_al@PAUstFont@CGuiFont@GUI@@V?$allocator@UstFont@CGuiFont@GUI@@@std@@@std@@QAE@XZ 005087e0 f i UIFont.obj
 0001:00107840       ??1?$vector@PAUstHint@CTextHint@GUI@@V?$allocator@PAUstHint@CTextHint@GUI@@@std@@@std@@QAE@XZ 00508840 f i UIFont.obj
 0001:001078d0       ??1?$vector@PAUstHint@CTextScrollHint@GUI@@V?$allocator@PAUstHint@CTextScrollHint@GUI@@@std@@@std@@QAE@XZ 005088d0 f i UIFont.obj
 0001:00107960       ??1CTextHint@GUI@@QAE@XZ   00508960 f   UIFont.obj
 0001:00107a10       ??1CTextScrollHint@GUI@@QAE@XZ 00508a10 f   UIFont.obj
 0001:00107ac0       ??1stFont@CGuiFont@GUI@@QAE@XZ 00508ac0 f i UIFont.obj
 0001:00107b10       ?AddHintHeight@CTextHint@GUI@@QAEXHH@Z 00508b10 f   UIFont.obj
 0001:00107b50       ?BRender@CGuiFont@GUI@@QAEXIPBDHHKK@Z 00508b50 f i UIFont.obj
 0001:00107c70       ?Clear@CTextHint@GUI@@QAEXXZ 00508c70 f   UIFont.obj
 0001:00107d40       ?Clear@CTextScrollHint@GUI@@QAEXXZ 00508d40 f   UIFont.obj
 0001:00107dd0       ?CreateFontA@CGuiFont@GUI@@QAEHPADHHK@Z 00508dd0 f   UIFont.obj
 0001:00107ee0       ?FrameRender@CGuiFont@GUI@@QAEXPBDHH@Z 00508ee0 f   UIFont.obj
 0001:00107fc0       ?PopFront@CTextHint@GUI@@QAEXXZ 00508fc0 f   UIFont.obj
 0001:00108050       ?PopFront@CTextScrollHint@GUI@@QAEXXZ 00509050 f   UIFont.obj
 0001:001080e0       ?PushHint@CTextHint@GUI@@QAEXPBDKHHH@Z 005090e0 f   UIFont.obj
 0001:00108210       ?ReadyForHint@CTextHint@GUI@@QAEXHH@Z 00509210 f   UIFont.obj
 0001:00108560       ?ReadyForHint@CTextScrollHint@GUI@@QAEXHHH@Z 00509560 f   UIFont.obj
 0001:001086d0       ?ReadyForHintGM@CTextHint@GUI@@QAEXHH@Z 005096d0 f   UIFont.obj
 0001:00108870       ?Render@CTextHint@GUI@@QAEXXZ 00509870 f   UIFont.obj
 0001:00108e10       ?Render@CTextScrollHint@GUI@@QAEXXZ 00509e10 f   UIFont.obj
 0001:001091c0       ?TipRender@CGuiFont@GUI@@QAEXPBDHH@Z 0050a1c0 f   UIFont.obj
 0001:00109290       ?_Destroy@?$vector@UstFont@CGuiFont@GUI@@V?$allocator@UstFont@CGuiFont@GUI@@@std@@@std@@AAEXPAUstFont@CGuiFont@GUI@@0@Z 0050a290 f i UIFont.obj
 0001:001092f0       ?_Xlength@?$vector@PAUstHint@CTextHint@GUI@@V?$allocator@PAUstHint@CTextHint@GUI@@@std@@@std@@CAXXZ 0050a2f0 f i UIFont.obj
 0001:00109300       ?_Xlength@?$vector@UstFont@CGuiFont@GUI@@V?$allocator@UstFont@CGuiFont@GUI@@@std@@@std@@CAXXZ 0050a300 f i UIFont.obj
 0001:00109310       ?deallocate@?$allocator@PAUstHint@CTextHint@GUI@@@std@@QAEXQAPAUstHint@CTextHint@GUI@@I@Z 0050a310 f i UIFont.obj
 0001:00109350       ?deallocate@?$allocator@UstFont@CGuiFont@GUI@@@std@@QAEXQAUstFont@CGuiFont@GUI@@I@Z 0050a350 f i UIFont.obj
 0001:00109390       ??0SForgeCell@@QAE@XZ      0050a390 f i UIForgeForm.obj
 0001:001093a0       ??1SForgeCell@@QAE@XZ      0050a3a0 f i UIForgeForm.obj
 0001:001093b0       ??1stNetItemForgeAsk@@QAE@XZ 0050a3b0 f i UIForgeForm.obj
 0001:00109400       ?Clear@CForgeMgr@GUI@@QAEXXZ 0050a400 f   UIForgeForm.obj
 0001:001094f0       ?CloseForm@CForgeMgr@GUI@@MAEXXZ 0050a4f0 f   UIForgeForm.obj
 0001:00109500       ?DragToEquipGrid@CForgeMgr@GUI@@QAEXH@Z 0050a500 f   UIForgeForm.obj
 0001:00109510       ?ForgeFailed@CForgeMgr@GUI@@QAEXJ@Z 0050a510 f   UIForgeForm.obj
 0001:00109590       ?ForgeOther@CForgeMgr@GUI@@QAEXJ@Z 0050a590 f   UIForgeForm.obj
 0001:001095d0       ?ForgeSuccess@CForgeMgr@GUI@@QAEXJ@Z 0050a5d0 f   UIForgeForm.obj
 0001:00109650       ?GetForgeComIndex@CForgeMgr@GUI@@QAEHPAVCOneCommand@2@@Z 0050a650 f   UIForgeForm.obj
 0001:00109680       ?Init@CForgeMgr@GUI@@MAE_NXZ 0050a680 f   UIForgeForm.obj
 0001:001099f0       ?PopItem@CForgeMgr@GUI@@AAEXH@Z 0050a9f0 f   UIForgeForm.obj
 0001:00109a70       ?PushItem@CForgeMgr@GUI@@AAEXHAAVCItemCommand@2@@Z 0050aa70 f   UIForgeForm.obj
 0001:00109b40       ?SetForgeUI@CForgeMgr@GUI@@AAEXXZ 0050ab40 f   UIForgeForm.obj
 0001:0010a460       ?ShowConfirmDialog@CForgeMgr@GUI@@QAEXJ@Z 0050b460 f   UIForgeForm.obj
 0001:0010a4e0       ?ShowForge@CForgeMgr@GUI@@QAEX_N0@Z 0050b4e0 f   UIForgeForm.obj
 0001:0010a710       ?SwitchMap@CForgeMgr@GUI@@MAEXXZ 0050b710 f   UIForgeForm.obj
 0001:0010a720       ?_DragBeforeEvt@CForgeMgr@GUI@@CAXPAVCGuiData@2@HHK@Z 0050b720 f   UIForgeForm.obj
 0001:0010a750       ?_DragEvtEquip@CForgeMgr@GUI@@CAXPAVCGuiData@2@PAVCCommandObj@2@AA_N@Z 0050b750 f   UIForgeForm.obj
 0001:0010a830       ?_DragEvtForgStone@CForgeMgr@GUI@@CAXPAVCGuiData@2@PAVCCommandObj@2@AA_N@Z 0050b830 f   UIForgeForm.obj
 0001:0010a930       ?_DragEvtGenStone@CForgeMgr@GUI@@CAXPAVCGuiData@2@PAVCCommandObj@2@AA_N@Z 0050b930 f   UIForgeForm.obj
 0001:0010aa30       ?_MainMouseEvent@CForgeMgr@GUI@@CAXPAVCCompent@2@HHHK@Z 0050ba30 f   UIForgeForm.obj
 0001:0010ac00       ?_OnClose@CForgeMgr@GUI@@CAXPAVCForm@2@AA_N@Z 0050bc00 f   UIForgeForm.obj
 0001:0010ac50       ?_ProTimeArriveEvt@CForgeMgr@GUI@@CAXPAVCGuiData@2@@Z 0050bc50 f   UIForgeForm.obj
 0001:0010ac60       ?_evtConfirmEvent@CForgeMgr@GUI@@CAXPAVCCompent@2@HHHK@Z 0050bc60 f   UIForgeForm.obj
 0001:0010ac90       ?evtShowHelpInfo@CForgeMgr@GUI@@CAXPAVCGuiData@2@HHK@Z 0050bc90 f   UIForgeForm.obj
 0001:0010acc0       ??$_Buynode@PAVCForm@GUI@@@?$_List_buy@PAVCForm@GUI@@V?$allocator@PAVCForm@GUI@@@std@@@std@@QAEPAU?$_List_node@PAVCForm@GUI@@PAX@1@PAU21@0$$QAPAVCForm@GUI@@@Z 0050bcc0 f i UIForm.obj
 0001:0010ad40       ??0CForm@GUI@@QAE@XZ       0050bd40 f   UIForm.obj
 0001:0010afa0       ??1?$_List_alloc@U?$_List_base_types@PAVCForm@GUI@@V?$allocator@PAVCForm@GUI@@@std@@@std@@@std@@QAE@XZ 0050bfa0 f i UIForm.obj
 0001:0010afe0       ??1?$_List_buy@PAVCForm@GUI@@V?$allocator@PAVCForm@GUI@@@std@@@std@@QAE@XZ 0050bfe0 f i UIForm.obj
 0001:0010b030       ??1?$list@PAVCForm@GUI@@V?$allocator@PAVCForm@GUI@@@std@@@std@@QAE@XZ 0050c030 f i UIForm.obj
 0001:0010b0b0       ??_GCForm@GUI@@UAEPAXI@Z   0050c0b0 f i UIForm.obj
 0001:0010b0b0       ??_ECForm@GUI@@UAEPAXI@Z   0050c0b0 f i UIForm.obj
 0001:0010b1c0       ?ClearChild@CForm@GUI@@QAEHXZ 0050c1c0 f   UIForm.obj
 0001:0010b200       ?Clone@CForm@GUI@@UAEPAVCGuiData@2@XZ 0050c200 f i UIForm.obj
 0001:0010b3d0       ?Clone@CForm@GUI@@UAE_NPAVCGuiData@2@@Z 0050c3d0 f i UIForm.obj
 0001:0010b430       ?Close@CForm@GUI@@QAEXXZ   0050c430 f i UIForm.obj
 0001:0010b4f0       ?Find@CForm@GUI@@UAEPAVCCompent@2@PBD@Z 0050c4f0 f   UIForm.obj
 0001:0010b560       ?FindActiveCompent@CForm@GUI@@QAEPAVCCompent@2@XZ 0050c560 f   UIForm.obj
 0001:0010b5c0       ?FrameMove@CForm@GUI@@QAEXH@Z 0050c5c0 f   UIForm.obj
 0001:0010b600       ?GetForm@CGuiData@GUI@@UAEPAVCForm@2@XZ 0050c600 f i UIForm.obj
 0001:0010b610       ?GetHintGui@CForm@GUI@@QAEPAVCGuiData@2@HH@Z 0050c610 f   UIForm.obj
 0001:0010b650       ?GetHitCommand@CForm@GUI@@QAEPAVCCompent@2@HH@Z 0050c650 f   UIForm.obj
 0001:0010b690       ?Hide@CForm@GUI@@QAEXXZ    0050c690 f   UIForm.obj
 0001:0010b740       ?Init@CForm@GUI@@UAEXXZ    0050c740 f   UIForm.obj
 0001:0010b7f0       ?MenuMouseRun@CForm@GUI@@QAE_NHHK@Z 0050c7f0 f   UIForm.obj
 0001:0010b830       ?MouseRun@CForm@GUI@@UAE_NHHK@Z 0050c830 f   UIForm.obj
 0001:0010b9b0       ?OnChar@CForm@GUI@@QAE_ND@Z 0050c9b0 f   UIForm.obj
 0001:0010bb30       ?OnKeyDown@CForm@GUI@@QAE_NH@Z 0050cb30 f   UIForm.obj
 0001:0010bb60       ?OnSetScreen@CForm@GUI@@QAEXXZ 0050cb60 f   UIForm.obj
 0001:0010bd10       ?PopMenu@CForm@GUI@@QAEXPAVCMenu@2@HH@Z 0050cd10 f   UIForm.obj
 0001:0010bd80       ?Refresh@CForm@GUI@@UAEXXZ 0050cd80 f   UIForm.obj
 0001:0010bde0       ?Render@CForm@GUI@@UAEXXZ  0050cde0 f   UIForm.obj
 0001:0010be60       ?Reset@CForm@GUI@@UAEXXZ   0050ce60 f   UIForm.obj
 0001:0010be90       ?SetActiveCompent@CForm@GUI@@QAEXPAVCCompent@2@@Z 0050ce90 f   UIForm.obj
 0001:0010bee0       ?SetAlign@CGuiData@GUI@@UAEXW4eCompentAlign@2@@Z 0050cee0 f i UIForm.obj
 0001:0010bef0       ?SetAlpha@CForm@GUI@@UAEXE@Z 0050cef0 f   UIForm.obj
 0001:0010bf30       ?SetIsDrag@CForm@GUI@@UAEX_N@Z 0050cf30 f   UIForm.obj
 0001:0010bf70       ?SetIsShow@CForm@GUI@@UAEX_N@Z 0050cf70 f i UIForm.obj
 0001:0010c000       ?SetNextActiveCompent@CForm@GUI@@QAE_N_N@Z 0050d000 f   UIForm.obj
 0001:0010c0d0       ?SetParent@CForm@GUI@@UAEXPAVCGuiData@2@@Z 0050d0d0 f   UIForm.obj
 0001:0010c220       ?SetStyle@CForm@GUI@@QAEXW4eFormStyle@12@HH_N@Z 0050d220 f   UIForm.obj
 0001:0010c330       ?Show@CForm@GUI@@QAEXXZ    0050d330 f   UIForm.obj
 0001:0010c3b0       ?ShowModal@CForm@GUI@@QAEXXZ 0050d3b0 f   UIForm.obj
 0001:0010c430       ?_AddCompent@CForm@GUI@@IAE_NPAVCCompent@2@_N@Z 0050d430 f   UIForm.obj
 0001:0010c600       ?_AddForm@CGuiData@GUI@@MAEXXZ 0050d600 f i UIForm.obj
 0001:0010c610       ?_AddFrameMove@CForm@GUI@@IAE_NPAVCCompent@2@_N@Z 0050d610 f   UIForm.obj
 0001:0010c6a0       ?_Buynode0@?$_List_alloc@U?$_List_base_types@PAVCForm@GUI@@V?$allocator@PAVCForm@GUI@@@std@@@std@@@std@@QAEPAU?$_List_node@PAVCForm@GUI@@PAX@2@PAU32@0@Z 0050d6a0 f i UIForm.obj
 0001:0010c730       ?_Copy@CForm@GUI@@AAEXPBV12@@Z 0050d730 f   UIForm.obj
 0001:0010c890       ?_CopyCompent@CForm@GUI@@AAEXPBV12@@Z 0050d890 f   UIForm.obj
 0001:0010c910       ?_DragMouseEvent@CForm@GUI@@CAXPAVCGuiData@2@HHK@Z 0050d910 f   UIForm.obj
 0001:0010c9e0       ?_DragMouseEventBegin@CForm@GUI@@CAXPAVCGuiData@2@HHK@Z 0050d9e0 f   UIForm.obj
 0001:0010ca50       ?_DragMouseEventEnd@CForm@GUI@@CAXPAVCGuiData@2@HHK@Z 0050da50 f   UIForm.obj
 0001:0010caa0       ?_OnActive@CForm@GUI@@IAEXXZ 0050daa0 f   UIForm.obj
 0001:0010cb60       ?_TempleteClear@CForm@GUI@@IAEXXZ 0050db60 f   UIForm.obj
 0001:0010cb70       ?_TempleteInit@CForm@GUI@@IAEXXZ 0050db70 f   UIForm.obj
 0001:0010cb80       ?deallocate@?$allocator@U?$_List_node@PAVCForm@GUI@@PAX@std@@@std@@QAEXQAU?$_List_node@PAVCForm@GUI@@PAX@2@I@Z 0050db80 f i UIForm.obj
 0001:0010cbc0       ??$_Buynode@ABQAVCForm@GUI@@@?$_List_buy@PAVCForm@GUI@@V?$allocator@PAVCForm@GUI@@@std@@@std@@QAEPAU?$_List_node@PAVCForm@GUI@@PAX@1@PAU21@0ABQAVCForm@GUI@@@Z 0050dbc0 f i UIFormMgr.obj
 0001:0010cc40       ??$_Emplace_reallocate@ABQ6A_NAAD@Z@?$vector@P6A_NAAD@ZV?$allocator@P6A_NAAD@Z@std@@@std@@QAEPAP6A_NAAD@ZQAP6A_N0@ZABQ6A_N0@Z@Z 0050dc40 f i UIFormMgr.obj
 0001:0010ce00       ??$_Emplace_reallocate@ABQ6A_NAADAAH@Z@?$vector@P6A_NAADAAH@ZV?$allocator@P6A_NAADAAH@Z@std@@@std@@QAEPAP6A_NAADAAH@ZQAP6A_N01@ZABQ6A_N01@Z@Z 0050de00 f i UIFormMgr.obj
 0001:0010cfc0       ??$_Emplace_reallocate@ABQ6A_NAAH@Z@?$vector@P6A_NAAH@ZV?$allocator@P6A_NAAH@Z@std@@@std@@QAEPAP6A_NAAH@ZQAP6A_N0@ZABQ6A_N0@Z@Z 0050dfc0 f i UIFormMgr.obj
 0001:0010d180       ??$_Emplace_reallocate@ABQ6A_NPAVCFormMgr@GUI@@@Z@?$vector@P6A_NPAVCFormMgr@GUI@@@ZV?$allocator@P6A_NPAVCFormMgr@GUI@@@Z@std@@@std@@QAEPAP6A_NPAVCFormMgr@GUI@@@ZQAP6A_N0@ZABQ6A_N0@Z@Z 0050e180 f i UIFormMgr.obj
 0001:0010d340       ??$_Resize@V<lambda_33d7fe76a804d58fd2ccfae8fe028545>@@@?$vector@PAV?$list@PAVCForm@GUI@@V?$allocator@PAVCForm@GUI@@@std@@@std@@V?$allocator@PAV?$list@PAVCForm@GUI@@V?$allocator@PAVCForm@GUI@@@std@@@std@@@2@@std@@AAEXIV<lambda_33d7fe76a804d58fd2ccfae8fe028545>@@@Z 0050e340 f i UIFormMgr.obj
 0001:0010d510       ??0CFormMgr@GUI@@QAE@XZ    0050e510 f   UIFormMgr.obj
 0001:0010d6d0       ??0sUIDebugInfo@@QAE@XZ    0050e6d0 f i UIFormMgr.obj
 0001:0010d7c0       ??1?$vector@P6A_NAAD@ZV?$allocator@P6A_NAAD@Z@std@@@std@@QAE@XZ 0050e7c0 f i UIFormMgr.obj
 0001:0010d850       ??1?$vector@P6A_NAADAAH@ZV?$allocator@P6A_NAADAAH@Z@std@@@std@@QAE@XZ 0050e850 f i UIFormMgr.obj
 0001:0010d8e0       ??1?$vector@P6A_NAAH0AAK@ZV?$allocator@P6A_NAAH0AAK@Z@std@@@std@@QAE@XZ 0050e8e0 f i UIFormMgr.obj
 0001:0010d970       ??1?$vector@P6A_NAAH@ZV?$allocator@P6A_NAAH@Z@std@@@std@@QAE@XZ 0050e970 f i UIFormMgr.obj
 0001:0010da00       ??1?$vector@P6A_NPAVCFormMgr@GUI@@@ZV?$allocator@P6A_NPAVCFormMgr@GUI@@@Z@std@@@std@@QAE@XZ 0050ea00 f i UIFormMgr.obj
 0001:0010da90       ??1?$vector@PAV?$list@PAVCForm@GUI@@V?$allocator@PAVCForm@GUI@@@std@@@std@@V?$allocator@PAV?$list@PAVCForm@GUI@@V?$allocator@PAVCForm@GUI@@@std@@@std@@@2@@std@@QAE@XZ 0050ea90 f i UIFormMgr.obj
 0001:0010db20       ??1sUIDebugInfo@@QAE@XZ    0050eb20 f i UIFormMgr.obj
 0001:0010dbc0       ?AddForm@CFormMgr@GUI@@QAE_NPAVCForm@2@H@Z 0050ebc0 f   UIFormMgr.obj
 0001:0010dc20       ?AddFormInit@CFormMgr@GUI@@QAE_NP6A_NPAV12@@Z@Z 0050ec20 f   UIFormMgr.obj
 0001:0010dc70       ?AddHotKeyEvent@CFormMgr@GUI@@QAE_NP6A_NAADAAH@Z@Z 0050ec70 f   UIFormMgr.obj
 0001:0010dcc0       ?AddKeyCharEvent@CFormMgr@GUI@@QAE_NP6A_NAAD@Z@Z 0050ecc0 f   UIFormMgr.obj
 0001:0010dd10       ?AddKeyDownEvent@CFormMgr@GUI@@QAE_NP6A_NAAH@Z@Z 0050ed10 f   UIFormMgr.obj
 0001:0010dd60       ?Find@CFormMgr@GUI@@QAEPAVCForm@2@PBDH@Z 0050ed60 f   UIFormMgr.obj
 0001:0010ddf0       ?FindESCForm@CFormMgr@GUI@@QAEPAVCForm@2@XZ 0050edf0 f   UIFormMgr.obj
 0001:0010de50       ?FrameMove@CFormMgr@GUI@@QAEXHHKK@Z 0050ee50 f   UIFormMgr.obj
 0001:0010dfb0       ?GetHitForm@CFormMgr@GUI@@QAEPAVCForm@2@HH@Z 0050efb0 f   UIFormMgr.obj
 0001:0010e140       ?GetName@CGuiData@GUI@@QAEPBDXZ 0050f140 f i UIFormMgr.obj
 0001:0010e150       ?HandleWindowMsg@CFormMgr@GUI@@QAE_NKKK@Z 0050f150 f   UIFormMgr.obj
 0001:0010e1d0       ?MouseScroll@CFormMgr@GUI@@QAE_NH@Z 0050f1d0 f   UIFormMgr.obj
 0001:0010e240       ?OnHotKey@CFormMgr@GUI@@QAE_NDH@Z 0050f240 f   UIFormMgr.obj
 0001:0010e320       ?OnKeyChar@CFormMgr@GUI@@QAE_ND@Z 0050f320 f   UIFormMgr.obj
 0001:0010e3b0       ?OnKeyDown@CFormMgr@GUI@@QAE_NH@Z 0050f3b0 f   UIFormMgr.obj
 0001:0010e430       ?Refresh@CFormMgr@GUI@@QAEXXZ 0050f430 f   UIFormMgr.obj
 0001:0010e460       ?Render@CFormMgr@GUI@@QAEXXZ 0050f460 f   UIFormMgr.obj
 0001:0010e4d0       ?RenderHint@CFormMgr@GUI@@QAEXHH@Z 0050f4d0 f   UIFormMgr.obj
 0001:0010e540       ?ResetAllForm@CFormMgr@GUI@@QAEXXZ 0050f540 f   UIFormMgr.obj
 0001:0010e5a0       ?SetEnableHotKey@CFormMgr@GUI@@QAEXH_N@Z 0050f5a0 f   UIFormMgr.obj
 0001:0010e5d0       ?SetFormTempleteMax@CFormMgr@GUI@@QAE_NH@Z 0050f5d0 f   UIFormMgr.obj
 0001:0010e6e0       ?SetScreen@CFormMgr@GUI@@QAEXXZ 0050f6e0 f   UIFormMgr.obj
 0001:0010e720       ?ShowDebugInfo@CFormMgr@GUI@@QAEXXZ 0050f720 f   UIFormMgr.obj
 0001:0010f190       ?SwitchTemplete@CFormMgr@GUI@@QAE_NH@Z 00510190 f   UIFormMgr.obj
 0001:0010f1f0       ?_ActiveCompent@CFormMgr@GUI@@AAEXXZ 005101f0 f   UIFormMgr.obj
 0001:0010f260       ?_AddMemory@CFormMgr@GUI@@AAE_NPAVCForm@2@@Z 00510260 f   UIFormMgr.obj
 0001:0010f390       ?_AddShowForm@CFormMgr@GUI@@AAEXPAVCForm@2@@Z 00510390 f   UIFormMgr.obj
 0001:0010f3f0       ?_DelForm@CFormMgr@GUI@@AAEXAAV?$list@PAVCForm@GUI@@V?$allocator@PAVCForm@GUI@@@std@@@std@@PAVCForm@2@@Z 005103f0 f   UIFormMgr.obj
 0001:0010f470       ?_DelMemory@CFormMgr@GUI@@AAE_NPAVCForm@2@@Z 00510470 f   UIFormMgr.obj
 0001:0010f4d0       ?_DelShowForm@CFormMgr@GUI@@AAEXPAVCForm@2@@Z 005104d0 f   UIFormMgr.obj
 0001:0010f520       ?_Getal@?$_Vector_alloc@U?$_Vec_base_types@PAV?$list@PAVCForm@GUI@@V?$allocator@PAVCForm@GUI@@@std@@@std@@V?$allocator@PAV?$list@PAVCForm@GUI@@V?$allocator@PAVCForm@GUI@@@std@@@std@@@2@@std@@@std@@QAEAAV?$allocator@PAV?$list@PAVCForm@GUI@@V?$allocator@PAVCForm@GUI@@@std@@@std@@@2@XZ 00510520 f i UIFormMgr.obj
 0001:0010f530       ?_InitFormID@CFormMgr@GUI@@AAEXXZ 00510530 f   UIFormMgr.obj
 0001:0010f640       ?_ModalClose@CFormMgr@GUI@@AAEXPAVCForm@2@@Z 00510640 f   UIFormMgr.obj
 0001:0010f6b0       ?_MouseRun@CFormMgr@GUI@@AAE_NHHK@Z 005106b0 f   UIFormMgr.obj
 0001:0010f860       ?_SetNewActiveForm@CFormMgr@GUI@@AAEXXZ 00510860 f   UIFormMgr.obj
 0001:0010f8d0       ?_ShowModal@CFormMgr@GUI@@AAEXPAVCForm@2@@Z 005108d0 f   UIFormMgr.obj
 0001:0010f950       ?_UpdataShowForm@CFormMgr@GUI@@AAEXPAVCForm@2@@Z 00510950 f   UIFormMgr.obj
 0001:0010f9c0       ?_Xlength@?$vector@P6A_NAAD@ZV?$allocator@P6A_NAAD@Z@std@@@std@@CAXXZ 005109c0 f i UIFormMgr.obj
